opt subtitle "HI-TECH Software Omniscient Code Generator (Lite mode) build 7503"

opt pagewidth 120

	opt lm

	processor	16F887
clrc	macro
	bcf	3,0
	endm
clrz	macro
	bcf	3,2
	endm
setc	macro
	bsf	3,0
	endm
setz	macro
	bsf	3,2
	endm
skipc	macro
	btfss	3,0
	endm
skipz	macro
	btfss	3,2
	endm
skipnc	macro
	btfsc	3,0
	endm
skipnz	macro
	btfsc	3,2
	endm
indf	equ	0
indf0	equ	0
pc	equ	2
pcl	equ	2
status	equ	3
fsr	equ	4
fsr0	equ	4
c	equ	1
z	equ	0
pclath	equ	10
	FNCALL	_main,_delay
	FNROOT	_main
	global	main@F1604
psect	idataBANK0,class=CODE,space=0,delta=2
global __pidataBANK0
__pidataBANK0:
	file	"D:\Embedded\pic\code\software\segment\incdec\incdec.c"
	line	11

;initializer for main@F1604
	retlw	03Fh
	retlw	06h
	retlw	05Bh
	retlw	04Fh
	retlw	066h
	retlw	06Dh
	retlw	07Dh
	retlw	07h
	retlw	07Fh
	retlw	06Fh
	retlw	0
	retlw	0
	retlw	0
	retlw	0
	retlw	0
	retlw	0
	retlw	0
	retlw	0
	retlw	0
	retlw	0
	global	_PORTB
_PORTB	set	6
	global	_PORTC
_PORTC	set	7
	global	_RC0
_RC0	set	56
	global	_RC1
_RC1	set	57
	global	_TRISB
_TRISB	set	134
	global	_TRISC
_TRISC	set	135
	global	_ANSEL
_ANSEL	set	392
	global	_ANSELH
_ANSELH	set	393
	file	"incdec.as"
	line	#
psect cinit,class=CODE,delta=2
global start_initialization
start_initialization:

psect	dataBANK0,class=BANK0,space=1
global __pdataBANK0
__pdataBANK0:
	file	"D:\Embedded\pic\code\software\segment\incdec\incdec.c"
main@F1604:
       ds      20

global btemp
psect inittext,class=CODE,delta=2
global init_fetch,btemp
;	Called with low address in FSR and high address in W
init_fetch:
	movf btemp,w
	movwf pclath
	movf btemp+1,w
	movwf pc
global init_ram
;Called with:
;	high address of idata address in btemp 
;	low address of idata address in btemp+1 
;	low address of data in FSR
;	high address + 1 of data in btemp-1
init_ram:
	fcall init_fetch
	movwf indf,f
	incf fsr,f
	movf fsr,w
	xorwf btemp-1,w
	btfsc status,2
	retlw 0
	incf btemp+1,f
	btfsc status,2
	incf btemp,f
	goto init_ram
; Initialize objects allocated to BANK0
psect cinit,class=CODE,delta=2
global init_ram, __pidataBANK0
	bcf	status, 7	;select IRP bank0
	movlw low(__pdataBANK0+20)
	movwf btemp-1,f
	movlw high(__pidataBANK0)
	movwf btemp,f
	movlw low(__pidataBANK0)
	movwf btemp+1,f
	movlw low(__pdataBANK0)
	movwf fsr,f
	fcall init_ram
psect cinit,class=CODE,delta=2
global end_of_initialization

;End of C runtime variable initialization code

end_of_initialization:
clrf status
ljmp _main	;jump to C main() function
psect	cstackCOMMON,class=COMMON,space=1
global __pcstackCOMMON
__pcstackCOMMON:
	global	?_delay
?_delay:	; 0 bytes @ 0x0
	global	?_main
?_main:	; 0 bytes @ 0x0
	global	delay@a
delay@a:	; 2 bytes @ 0x0
	ds	2
	global	??_delay
??_delay:	; 0 bytes @ 0x2
	global	??_main
??_main:	; 0 bytes @ 0x2
	ds	4
psect	cstackBANK0,class=BANK0,space=1
global __pcstackBANK0
__pcstackBANK0:
	global	main@seg
main@seg:	; 20 bytes @ 0x0
	ds	20
	global	main@i
main@i:	; 2 bytes @ 0x14
	ds	2
	global	main@j
main@j:	; 2 bytes @ 0x16
	ds	2
;;Data sizes: Strings 0, constant 0, data 20, bss 0, persistent 0 stack 0
;;Auto spaces:   Size  Autos    Used
;; COMMON          14      6       6
;; BANK0           80     24      44
;; BANK1           80      0       0
;; BANK3           96      0       0
;; BANK2           96      0       0

;;
;; Pointer list with targets:



;;
;; Critical Paths under _main in COMMON
;;
;;   _main->_delay
;;
;; Critical Paths under _main in BANK0
;;
;;   None.
;;
;; Critical Paths under _main in BANK1
;;
;;   None.
;;
;; Critical Paths under _main in BANK3
;;
;;   None.
;;
;; Critical Paths under _main in BANK2
;;
;;   None.

;;
;;Main: autosize = 0, tempsize = 4, incstack = 0, save=0
;;

;;
;;Call Graph Tables:
;;
;; ---------------------------------------------------------------------------------
;; (Depth) Function   	        Calls       Base Space   Used Autos Params    Refs
;; ---------------------------------------------------------------------------------
;; (0) _main                                                28    28      0     205
;;                                              2 COMMON     4     4      0
;;                                              0 BANK0     24    24      0
;;                              _delay
;; ---------------------------------------------------------------------------------
;; (1) _delay                                                2     0      2      22
;;                                              0 COMMON     2     0      2
;; ---------------------------------------------------------------------------------
;; Estimated maximum stack depth 1
;; ---------------------------------------------------------------------------------

;; Call Graph Graphs:

;; _main (ROOT)
;;   _delay
;;

;; Address spaces:

;;Name               Size   Autos  Total    Cost      Usage
;;BANK3               60      0       0       9        0.0%
;;BITBANK3            60      0       0       8        0.0%
;;SFR3                 0      0       0       4        0.0%
;;BITSFR3              0      0       0       4        0.0%
;;BANK2               60      0       0      11        0.0%
;;BITBANK2            60      0       0      10        0.0%
;;SFR2                 0      0       0       5        0.0%
;;BITSFR2              0      0       0       5        0.0%
;;SFR1                 0      0       0       2        0.0%
;;BITSFR1              0      0       0       2        0.0%
;;BANK1               50      0       0       7        0.0%
;;BITBANK1            50      0       0       6        0.0%
;;CODE                 0      0       0       0        0.0%
;;DATA                 0      0      33      12        0.0%
;;ABS                  0      0      32       3        0.0%
;;NULL                 0      0       0       0        0.0%
;;STACK                0      0       1       2        0.0%
;;BANK0               50     18      2C       5       55.0%
;;BITBANK0            50      0       0       4        0.0%
;;SFR0                 0      0       0       1        0.0%
;;BITSFR0              0      0       0       1        0.0%
;;COMMON               E      6       6       1       42.9%
;;BITCOMMON            E      0       0       0        0.0%
;;EEDATA             100      0       0       0        0.0%

	global	_main
psect	maintext,global,class=CODE,delta=2
global __pmaintext
__pmaintext:

;; *************** function _main *****************
;; Defined at:
;;		line 9 in file "D:\Embedded\pic\code\software\segment\incdec\incdec.c"
;; Parameters:    Size  Location     Type
;;		None
;; Auto vars:     Size  Location     Type
;;  seg            20    0[BANK0 ] unsigned char [20]
;;  j               2   22[BANK0 ] int 
;;  i               2   20[BANK0 ] int 
;; Return value:  Size  Location     Type
;;		None               void
;; Registers used:
;;		wreg, fsr0l, fsr0h, status,2, status,0, btemp+1, pclath, cstack
;; Tracked objects:
;;		On entry : 17F/0
;;		On exit  : 0/0
;;		Unchanged: 0/0
;; Data sizes:     COMMON   BANK0   BANK1   BANK3   BANK2
;;      Params:         0       0       0       0       0
;;      Locals:         0      24       0       0       0
;;      Temps:          4       0       0       0       0
;;      Totals:         4      24       0       0       0
;;Total ram usage:       28 bytes
;; Hardware stack levels required when called:    1
;; This function calls:
;;		_delay
;; This function is called by:
;;		Startup code after reset
;; This function uses a non-reentrant model
;;
psect	maintext
	file	"D:\Embedded\pic\code\software\segment\incdec\incdec.c"
	line	9
	global	__size_of_main
	__size_of_main	equ	__end_of_main-_main
	
_main:	
	opt	stack 7
; Regs used in _main: [wreg-fsr0h+status,2+status,0+btemp+1+pclath+cstack]
	line	11
	
l2235:	
;incdec.c: 10: int i,j;
;incdec.c: 11: char seg[20]={0X3F,0X06,0X5B,0X4F,0X66,0X6D,0X7D,0X07,0X7F,0X6F};
	movlw	(main@seg)&0ffh
	movwf	fsr0
	movlw	low(main@F1604)
	movwf	(??_main+0)+0
	movf	fsr0,w
	movwf	((??_main+0)+0+1)
	movlw	20
	movwf	((??_main+0)+0+2)
u2250:
	movf	(??_main+0)+0,w
	movwf	fsr0
	bcf	status, 7	;select IRP bank0
	
	movf	indf,w
	movwf	((??_main+0)+0+3)
	incf	(??_main+0)+0,f
	movf	((??_main+0)+0+1),w
	movwf	fsr0
	
	movf	((??_main+0)+0+3),w
	movwf	indf
	incf	((??_main+0)+0+1),f
	decfsz	((??_main+0)+0+2),f
	goto	u2250
	line	12
	
l2237:	
;incdec.c: 12: PORTC=0X00;
	bcf	status, 5	;RP0=0, select bank0
	bcf	status, 6	;RP1=0, select bank0
	clrf	(7)	;volatile
	line	13
	
l2239:	
;incdec.c: 13: TRISC=0X03;
	movlw	(03h)
	bsf	status, 5	;RP0=1, select bank1
	bcf	status, 6	;RP1=0, select bank1
	movwf	(135)^080h	;volatile
	line	14
	
l2241:	
;incdec.c: 14: PORTB=0X00;
	bcf	status, 5	;RP0=0, select bank0
	bcf	status, 6	;RP1=0, select bank0
	clrf	(6)	;volatile
	line	15
	
l2243:	
;incdec.c: 15: TRISB=0X00;
	bsf	status, 5	;RP0=1, select bank1
	bcf	status, 6	;RP1=0, select bank1
	clrf	(134)^080h	;volatile
	line	16
	
l2245:	
;incdec.c: 16: ANSEL=0X00;
	bsf	status, 5	;RP0=1, select bank3
	bsf	status, 6	;RP1=1, select bank3
	clrf	(392)^0180h	;volatile
	line	17
	
l2247:	
;incdec.c: 17: ANSELH=0X00;
	clrf	(393)^0180h	;volatile
	goto	l2249
	line	18
;incdec.c: 18: while(1)
	
l1033:	
	line	20
	
l2249:	
;incdec.c: 19: {
;incdec.c: 20: if(RC0==1)
	bcf	status, 5	;RP0=0, select bank0
	bcf	status, 6	;RP1=0, select bank0
	btfss	(56/8),(56)&7
	goto	u2261
	goto	u2260
u2261:
	goto	l1034
u2260:
	line	22
	
l2251:	
;incdec.c: 21: {
;incdec.c: 22: for(i=0;i<=9;i++)
	clrf	(main@i)
	clrf	(main@i+1)
	
l2253:	
	movf	(main@i+1),w
	xorlw	80h
	movwf	btemp+1
	movlw	(high(0Ah))^80h
	subwf	btemp+1,w
	skipz
	goto	u2275
	movlw	low(0Ah)
	subwf	(main@i),w
u2275:

	skipc
	goto	u2271
	goto	u2270
u2271:
	goto	l2257
u2270:
	goto	l1037
	
l2255:	
	goto	l1037
	line	23
	
l1035:	
	line	24
	
l2257:	
;incdec.c: 23: {
;incdec.c: 24: PORTB=seg[i];
	bcf	status, 5	;RP0=0, select bank0
	bcf	status, 6	;RP1=0, select bank0
	movf	(main@i),w
	addlw	main@seg&0ffh
	movwf	fsr0
	bcf	status, 7	;select IRP bank0
	movf	indf,w
	movwf	(6)	;volatile
	line	25
	
l2259:	
;incdec.c: 25: delay(20000);
	movlw	low(04E20h)
	movwf	(?_delay)
	movlw	high(04E20h)
	movwf	((?_delay))+1
	fcall	_delay
	line	22
	
l2261:	
	movlw	low(01h)
	bcf	status, 5	;RP0=0, select bank0
	bcf	status, 6	;RP1=0, select bank0
	addwf	(main@i),f
	skipnc
	incf	(main@i+1),f
	movlw	high(01h)
	addwf	(main@i+1),f
	
l2263:	
	movf	(main@i+1),w
	xorlw	80h
	movwf	btemp+1
	movlw	(high(0Ah))^80h
	subwf	btemp+1,w
	skipz
	goto	u2285
	movlw	low(0Ah)
	subwf	(main@i),w
u2285:

	skipc
	goto	u2281
	goto	u2280
u2281:
	goto	l2257
u2280:
	goto	l1037
	
l1036:	
	line	27
;incdec.c: 26: }
;incdec.c: 27: while(RC0==1);
	goto	l1037
	
l1038:	
	
l1037:	
	bcf	status, 5	;RP0=0, select bank0
	bcf	status, 6	;RP1=0, select bank0
	btfsc	(56/8),(56)&7
	goto	u2291
	goto	u2290
u2291:
	goto	l1037
u2290:
	goto	l1034
	
l1039:	
	line	28
	
l1034:	
	line	29
;incdec.c: 28: }
;incdec.c: 29: if(RC1==1)
	btfss	(57/8),(57)&7
	goto	u2301
	goto	u2300
u2301:
	goto	l2249
u2300:
	line	31
	
l2265:	
;incdec.c: 30: {
;incdec.c: 31: for(j=9;j>=0;j--)
	movlw	low(09h)
	movwf	(main@j)
	movlw	high(09h)
	movwf	((main@j))+1
	
l2267:	
	btfss	(main@j+1),7
	goto	u2311
	goto	u2310
u2311:
	goto	l2271
u2310:
	goto	l1043
	
l2269:	
	goto	l1043
	line	32
	
l1041:	
	line	33
	
l2271:	
;incdec.c: 32: {
;incdec.c: 33: PORTB=seg[j];
	movf	(main@j),w
	addlw	main@seg&0ffh
	movwf	fsr0
	bcf	status, 7	;select IRP bank0
	movf	indf,w
	movwf	(6)	;volatile
	line	34
	
l2273:	
;incdec.c: 34: delay(20000);
	movlw	low(04E20h)
	movwf	(?_delay)
	movlw	high(04E20h)
	movwf	((?_delay))+1
	fcall	_delay
	line	31
	
l2275:	
	movlw	low(-1)
	bcf	status, 5	;RP0=0, select bank0
	bcf	status, 6	;RP1=0, select bank0
	addwf	(main@j),f
	skipnc
	incf	(main@j+1),f
	movlw	high(-1)
	addwf	(main@j+1),f
	
l2277:	
	btfss	(main@j+1),7
	goto	u2321
	goto	u2320
u2321:
	goto	l2271
u2320:
	goto	l1043
	
l1042:	
	line	36
;incdec.c: 35: }
;incdec.c: 36: while(RC1==1);
	goto	l1043
	
l1044:	
	
l1043:	
	btfsc	(57/8),(57)&7
	goto	u2331
	goto	u2330
u2331:
	goto	l1043
u2330:
	goto	l2249
	
l1045:	
	goto	l2249
	line	37
	
l1040:	
	goto	l2249
	line	38
	
l1046:	
	line	18
	goto	l2249
	
l1047:	
	line	39
	
l1048:	
	global	start
	ljmp	start
	opt stack 0
GLOBAL	__end_of_main
	__end_of_main:
;; =============== function _main ends ============

	signat	_main,88
	global	_delay
psect	text73,local,class=CODE,delta=2
global __ptext73
__ptext73:

;; *************** function _delay *****************
;; Defined at:
;;		line 5 in file "D:\Embedded\pic\code\software\segment\incdec\incdec.c"
;; Parameters:    Size  Location     Type
;;  a               2    0[COMMON] unsigned int 
;; Auto vars:     Size  Location     Type
;;		None
;; Return value:  Size  Location     Type
;;		None               void
;; Registers used:
;;		wreg
;; Tracked objects:
;;		On entry : 0/0
;;		On exit  : 0/0
;;		Unchanged: 0/0
;; Data sizes:     COMMON   BANK0   BANK1   BANK3   BANK2
;;      Params:         2       0       0       0       0
;;      Locals:         0       0       0       0       0
;;      Temps:          0       0       0       0       0
;;      Totals:         2       0       0       0       0
;;Total ram usage:        2 bytes
;; Hardware stack levels used:    1
;; This function calls:
;;		Nothing
;; This function is called by:
;;		_main
;; This function uses a non-reentrant model
;;
psect	text73
	file	"D:\Embedded\pic\code\software\segment\incdec\incdec.c"
	line	5
	global	__size_of_delay
	__size_of_delay	equ	__end_of_delay-_delay
	
_delay:	
	opt	stack 7
; Regs used in _delay: [wreg]
	line	6
	
l2231:	
;incdec.c: 6: while(a--);
	goto	l2233
	
l1026:	
	goto	l2233
	
l1025:	
	
l2233:	
	movlw	low(01h)
	subwf	(delay@a),f
	movlw	high(01h)
	skipc
	decf	(delay@a+1),f
	subwf	(delay@a+1),f
	movlw	high(0FFFFh)
	xorwf	((delay@a+1)),w
	skipz
	goto	u2245
	movlw	low(0FFFFh)
	xorwf	((delay@a)),w
u2245:

	skipz
	goto	u2241
	goto	u2240
u2241:
	goto	l2233
u2240:
	goto	l1028
	
l1027:	
	line	7
	
l1028:	
	return
	opt stack 0
GLOBAL	__end_of_delay
	__end_of_delay:
;; =============== function _delay ends ============

	signat	_delay,4216
psect	text74,local,class=CODE,delta=2
global __ptext74
__ptext74:
	global	btemp
	btemp set 07Eh

	DABS	1,126,2	;btemp
	global	wtemp0
	wtemp0 set btemp
	end
