opt subtitle "HI-TECH Software Omniscient Code Generator (Lite mode) build 7503"

opt pagewidth 120

	opt lm

	processor	16F887
clrc	macro
	bcf	3,0
	endm
clrz	macro
	bcf	3,2
	endm
setc	macro
	bsf	3,0
	endm
setz	macro
	bsf	3,2
	endm
skipc	macro
	btfss	3,0
	endm
skipz	macro
	btfss	3,2
	endm
skipnc	macro
	btfsc	3,0
	endm
skipnz	macro
	btfsc	3,2
	endm
indf	equ	0
indf0	equ	0
pc	equ	2
pcl	equ	2
status	equ	3
fsr	equ	4
fsr0	equ	4
c	equ	1
z	equ	0
pclath	equ	10
	FNCALL	_main,_delay
	FNROOT	_main
	global	_a
psect	idataCOMMON,class=CODE,space=0,delta=2
global __pidataCOMMON
__pidataCOMMON:
	file	"D:\Embedded\pic\code\software\PWM\pwm.c"
	line	6

;initializer for _a
	retlw	0
	retlw	03h

	global	_CCP2CON
_CCP2CON	set	29
	global	_CCPR2L
_CCPR2L	set	27
	global	_PORTC
_PORTC	set	7
	global	_PORTD
_PORTD	set	8
	global	_T2CON
_T2CON	set	18
	global	_TRISC
_TRISC	set	135
	global	_TRISD
_TRISD	set	136
	file	"pwm.as"
	line	#
psect cinit,class=CODE,delta=2
global start_initialization
start_initialization:

psect	dataCOMMON,class=COMMON,space=1
global __pdataCOMMON
__pdataCOMMON:
	file	"D:\Embedded\pic\code\software\PWM\pwm.c"
_a:
       ds      2

; Initialize objects allocated to COMMON
	global __pidataCOMMON
psect cinit,class=CODE,delta=2
	fcall	__pidataCOMMON+0		;fetch initializer
	movwf	__pdataCOMMON+0&07fh		
	fcall	__pidataCOMMON+1		;fetch initializer
	movwf	__pdataCOMMON+1&07fh		
psect cinit,class=CODE,delta=2
global end_of_initialization

;End of C runtime variable initialization code

end_of_initialization:
clrf status
ljmp _main	;jump to C main() function
psect	cstackCOMMON,class=COMMON,space=1
global __pcstackCOMMON
__pcstackCOMMON:
	global	?_delay
?_delay:	; 0 bytes @ 0x0
	global	?_main
?_main:	; 0 bytes @ 0x0
	global	delay@ms
delay@ms:	; 2 bytes @ 0x0
	ds	2
	global	??_delay
??_delay:	; 0 bytes @ 0x2
	global	??_main
??_main:	; 0 bytes @ 0x2
	ds	2
;;Data sizes: Strings 0, constant 0, data 2, bss 0, persistent 0 stack 0
;;Auto spaces:   Size  Autos    Used
;; COMMON          14      4       6
;; BANK0           80      0       0
;; BANK1           80      0       0
;; BANK3           96      0       0
;; BANK2           96      0       0

;;
;; Pointer list with targets:



;;
;; Critical Paths under _main in COMMON
;;
;;   _main->_delay
;;
;; Critical Paths under _main in BANK0
;;
;;   None.
;;
;; Critical Paths under _main in BANK1
;;
;;   None.
;;
;; Critical Paths under _main in BANK3
;;
;;   None.
;;
;; Critical Paths under _main in BANK2
;;
;;   None.

;;
;;Main: autosize = 0, tempsize = 2, incstack = 0, save=0
;;

;;
;;Call Graph Tables:
;;
;; ---------------------------------------------------------------------------------
;; (Depth) Function   	        Calls       Base Space   Used Autos Params    Refs
;; ---------------------------------------------------------------------------------
;; (0) _main                                                 2     2      0      15
;;                                              2 COMMON     2     2      0
;;                              _delay
;; ---------------------------------------------------------------------------------
;; (1) _delay                                                2     0      2      15
;;                                              0 COMMON     2     0      2
;; ---------------------------------------------------------------------------------
;; Estimated maximum stack depth 1
;; ---------------------------------------------------------------------------------

;; Call Graph Graphs:

;; _main (ROOT)
;;   _delay
;;

;; Address spaces:

;;Name               Size   Autos  Total    Cost      Usage
;;BANK3               60      0       0       9        0.0%
;;BITBANK3            60      0       0       8        0.0%
;;SFR3                 0      0       0       4        0.0%
;;BITSFR3              0      0       0       4        0.0%
;;BANK2               60      0       0      11        0.0%
;;BITBANK2            60      0       0      10        0.0%
;;SFR2                 0      0       0       5        0.0%
;;BITSFR2              0      0       0       5        0.0%
;;SFR1                 0      0       0       2        0.0%
;;BITSFR1              0      0       0       2        0.0%
;;BANK1               50      0       0       7        0.0%
;;BITBANK1            50      0       0       6        0.0%
;;CODE                 0      0       0       0        0.0%
;;DATA                 0      0       7      12        0.0%
;;ABS                  0      0       6       3        0.0%
;;NULL                 0      0       0       0        0.0%
;;STACK                0      0       1       2        0.0%
;;BANK0               50      0       0       5        0.0%
;;BITBANK0            50      0       0       4        0.0%
;;SFR0                 0      0       0       1        0.0%
;;BITSFR0              0      0       0       1        0.0%
;;COMMON               E      4       6       1       42.9%
;;BITCOMMON            E      0       0       0        0.0%
;;EEDATA             100      0       0       0        0.0%

	global	_main
psect	maintext,global,class=CODE,delta=2
global __pmaintext
__pmaintext:

;; *************** function _main *****************
;; Defined at:
;;		line 12 in file "D:\Embedded\pic\code\software\PWM\pwm.c"
;; Parameters:    Size  Location     Type
;;		None
;; Auto vars:     Size  Location     Type
;;		None
;; Return value:  Size  Location     Type
;;		None               void
;; Registers used:
;;		wreg, status,2, status,0, btemp+1, pclath, cstack
;; Tracked objects:
;;		On entry : 17F/0
;;		On exit  : 0/0
;;		Unchanged: 0/0
;; Data sizes:     COMMON   BANK0   BANK1   BANK3   BANK2
;;      Params:         0       0       0       0       0
;;      Locals:         0       0       0       0       0
;;      Temps:          2       0       0       0       0
;;      Totals:         2       0       0       0       0
;;Total ram usage:        2 bytes
;; Hardware stack levels required when called:    1
;; This function calls:
;;		_delay
;; This function is called by:
;;		Startup code after reset
;; This function uses a non-reentrant model
;;
psect	maintext
	file	"D:\Embedded\pic\code\software\PWM\pwm.c"
	line	12
	global	__size_of_main
	__size_of_main	equ	__end_of_main-_main
	
_main:	
	opt	stack 7
; Regs used in _main: [wreg+status,2+status,0+btemp+1+pclath+cstack]
	line	13
	
l2175:	
;pwm.c: 13: TRISC=0X00;
	bsf	status, 5	;RP0=1, select bank1
	bcf	status, 6	;RP1=0, select bank1
	clrf	(135)^080h	;volatile
	line	14
;pwm.c: 14: PORTC=0X00;
	bcf	status, 5	;RP0=0, select bank0
	bcf	status, 6	;RP1=0, select bank0
	clrf	(7)	;volatile
	line	15
;pwm.c: 15: TRISD=0X00;
	bsf	status, 5	;RP0=1, select bank1
	bcf	status, 6	;RP1=0, select bank1
	clrf	(136)^080h	;volatile
	line	16
;pwm.c: 16: PORTD=0X00;
	bcf	status, 5	;RP0=0, select bank0
	bcf	status, 6	;RP1=0, select bank0
	clrf	(8)	;volatile
	line	17
	
l2177:	
;pwm.c: 17: T2CON=0X07;
	movlw	(07h)
	movwf	(18)	;volatile
	line	18
	
l2179:	
;pwm.c: 18: CCP2CON=0X0F;
	movlw	(0Fh)
	movwf	(29)	;volatile
	goto	l2181
	line	19
;pwm.c: 19: while(1)
	
l1033:	
	line	21
	
l2181:	
;pwm.c: 20: {
;pwm.c: 21: CCPR2L=a>>2;
	movf	(_a+1),w
	movwf	(??_main+0)+0+1
	movf	(_a),w
	movwf	(??_main+0)+0
	movlw	02h
	movwf	btemp+1
u2155:
	rlf	(??_main+0)+1,w
	rrf	(??_main+0)+1,f
	rrf	(??_main+0)+0,f
	decfsz	btemp+1,f
	goto	u2155
	movf	0+(??_main+0)+0,w
	bcf	status, 5	;RP0=0, select bank0
	bcf	status, 6	;RP1=0, select bank0
	movwf	(27)	;volatile
	line	22
	
l2183:	
;pwm.c: 22: CCP2CON=(((a&0X30)<<4)|CCP2CON);
	movf	(_a),w
	andlw	030h
	movwf	(??_main+0)+0
	movlw	(04h)-1
u2165:
	clrc
	rlf	(??_main+0)+0,f
	addlw	-1
	skipz
	goto	u2165
	clrc
	rlf	(??_main+0)+0,w
	iorwf	(29),w	;volatile
	movwf	(29)	;volatile
	line	23
	
l2185:	
;pwm.c: 23: delay(100);
	movlw	low(064h)
	movwf	(?_delay)
	movlw	high(064h)
	movwf	((?_delay))+1
	fcall	_delay
	goto	l2181
	line	24
	
l1034:	
	line	19
	goto	l2181
	
l1035:	
	line	25
	
l1036:	
	global	start
	ljmp	start
	opt stack 0
GLOBAL	__end_of_main
	__end_of_main:
;; =============== function _main ends ============

	signat	_main,88
	global	_delay
psect	text55,local,class=CODE,delta=2
global __ptext55
__ptext55:

;; *************** function _delay *****************
;; Defined at:
;;		line 8 in file "D:\Embedded\pic\code\software\PWM\pwm.c"
;; Parameters:    Size  Location     Type
;;  ms              2    0[COMMON] unsigned int 
;; Auto vars:     Size  Location     Type
;;		None
;; Return value:  Size  Location     Type
;;		None               void
;; Registers used:
;;		wreg
;; Tracked objects:
;;		On entry : 0/0
;;		On exit  : 0/0
;;		Unchanged: 0/0
;; Data sizes:     COMMON   BANK0   BANK1   BANK3   BANK2
;;      Params:         2       0       0       0       0
;;      Locals:         0       0       0       0       0
;;      Temps:          0       0       0       0       0
;;      Totals:         2       0       0       0       0
;;Total ram usage:        2 bytes
;; Hardware stack levels used:    1
;; This function calls:
;;		Nothing
;; This function is called by:
;;		_main
;; This function uses a non-reentrant model
;;
psect	text55
	file	"D:\Embedded\pic\code\software\PWM\pwm.c"
	line	8
	global	__size_of_delay
	__size_of_delay	equ	__end_of_delay-_delay
	
_delay:	
	opt	stack 7
; Regs used in _delay: [wreg]
	line	9
	
l1405:	
;pwm.c: 9: while(ms--);
	goto	l1407
	
l1028:	
	goto	l1407
	
l1027:	
	
l1407:	
	movlw	low(01h)
	subwf	(delay@ms),f
	movlw	high(01h)
	skipc
	decf	(delay@ms+1),f
	subwf	(delay@ms+1),f
	movlw	high(0FFFFh)
	xorwf	((delay@ms+1)),w
	skipz
	goto	u15
	movlw	low(0FFFFh)
	xorwf	((delay@ms)),w
u15:

	skipz
	goto	u11
	goto	u10
u11:
	goto	l1407
u10:
	goto	l1030
	
l1029:	
	line	10
	
l1030:	
	return
	opt stack 0
GLOBAL	__end_of_delay
	__end_of_delay:
;; =============== function _delay ends ============

	signat	_delay,4216
psect	text56,local,class=CODE,delta=2
global __ptext56
__ptext56:
	global	btemp
	btemp set 07Eh

	DABS	1,126,2	;btemp
	global	wtemp0
	wtemp0 set btemp
	end
