opt subtitle "HI-TECH Software Omniscient Code Generator (Lite mode) build 7503"

opt pagewidth 120

	opt lm

	processor	16F887
clrc	macro
	bcf	3,0
	endm
clrz	macro
	bcf	3,2
	endm
setc	macro
	bsf	3,0
	endm
setz	macro
	bsf	3,2
	endm
skipc	macro
	btfss	3,0
	endm
skipz	macro
	btfss	3,2
	endm
skipnc	macro
	btfsc	3,0
	endm
skipnz	macro
	btfsc	3,2
	endm
indf	equ	0
indf0	equ	0
pc	equ	2
pcl	equ	2
status	equ	3
fsr	equ	4
fsr0	equ	4
c	equ	1
z	equ	0
pclath	equ	10
	FNCALL	_main,___awdiv
	FNCALL	_main,___awmod
	FNCALL	_main,_delay
	FNROOT	_main
	global	main@F1609
psect	idataBANK0,class=CODE,space=0,delta=2
global __pidataBANK0
__pidataBANK0:
	file	"D:\Embedded\pic\code\software\segment\four-digit-twotwo\four-digit-twotwo.c"
	line	14

;initializer for main@F1609
	retlw	03Fh
	retlw	06h
	retlw	05Bh
	retlw	04Fh
	retlw	066h
	retlw	06Dh
	retlw	07Dh
	retlw	07h
	retlw	07Fh
	retlw	06Fh
	retlw	0
	retlw	0
	retlw	0
	retlw	0
	retlw	0
	retlw	0
	retlw	0
	retlw	0
	retlw	0
	retlw	0
	global	_PORTB
_PORTB	set	6
	global	_PORTD
_PORTD	set	8
	global	_RD0
_RD0	set	64
	global	_RD1
_RD1	set	65
	global	_RD2
_RD2	set	66
	global	_RD3
_RD3	set	67
	global	_TRISB
_TRISB	set	134
	global	_TRISD
_TRISD	set	136
	file	"four-digit-twotwo.as"
	line	#
psect cinit,class=CODE,delta=2
global start_initialization
start_initialization:

psect	dataBANK0,class=BANK0,space=1
global __pdataBANK0
__pdataBANK0:
	file	"D:\Embedded\pic\code\software\segment\four-digit-twotwo\four-digit-twotwo.c"
main@F1609:
       ds      20

global btemp
psect inittext,class=CODE,delta=2
global init_fetch,btemp
;	Called with low address in FSR and high address in W
init_fetch:
	movf btemp,w
	movwf pclath
	movf btemp+1,w
	movwf pc
global init_ram
;Called with:
;	high address of idata address in btemp 
;	low address of idata address in btemp+1 
;	low address of data in FSR
;	high address + 1 of data in btemp-1
init_ram:
	fcall init_fetch
	movwf indf,f
	incf fsr,f
	movf fsr,w
	xorwf btemp-1,w
	btfsc status,2
	retlw 0
	incf btemp+1,f
	btfsc status,2
	incf btemp,f
	goto init_ram
; Initialize objects allocated to BANK0
psect cinit,class=CODE,delta=2
global init_ram, __pidataBANK0
	bcf	status, 7	;select IRP bank0
	movlw low(__pdataBANK0+20)
	movwf btemp-1,f
	movlw high(__pidataBANK0)
	movwf btemp,f
	movlw low(__pidataBANK0)
	movwf btemp+1,f
	movlw low(__pdataBANK0)
	movwf fsr,f
	fcall init_ram
psect cinit,class=CODE,delta=2
global end_of_initialization

;End of C runtime variable initialization code

end_of_initialization:
clrf status
ljmp _main	;jump to C main() function
psect	cstackCOMMON,class=COMMON,space=1
global __pcstackCOMMON
__pcstackCOMMON:
	global	?_delay
?_delay:	; 0 bytes @ 0x0
	global	?_main
?_main:	; 0 bytes @ 0x0
	global	?___awdiv
?___awdiv:	; 2 bytes @ 0x0
	global	?___awmod
?___awmod:	; 2 bytes @ 0x0
	global	delay@a
delay@a:	; 2 bytes @ 0x0
	global	___awdiv@divisor
___awdiv@divisor:	; 2 bytes @ 0x0
	global	___awmod@divisor
___awmod@divisor:	; 2 bytes @ 0x0
	ds	2
	global	??_delay
??_delay:	; 0 bytes @ 0x2
	global	___awdiv@dividend
___awdiv@dividend:	; 2 bytes @ 0x2
	global	___awmod@dividend
___awmod@dividend:	; 2 bytes @ 0x2
	ds	2
	global	??___awdiv
??___awdiv:	; 0 bytes @ 0x4
	global	??___awmod
??___awmod:	; 0 bytes @ 0x4
	ds	1
	global	___awdiv@counter
___awdiv@counter:	; 1 bytes @ 0x5
	global	___awmod@counter
___awmod@counter:	; 1 bytes @ 0x5
	ds	1
	global	___awdiv@sign
___awdiv@sign:	; 1 bytes @ 0x6
	global	___awmod@sign
___awmod@sign:	; 1 bytes @ 0x6
	ds	1
	global	___awdiv@quotient
___awdiv@quotient:	; 2 bytes @ 0x7
	ds	2
	global	??_main
??_main:	; 0 bytes @ 0x9
	ds	4
psect	cstackBANK0,class=BANK0,space=1
global __pcstackBANK0
__pcstackBANK0:
	global	main@seg
main@seg:	; 20 bytes @ 0x0
	ds	20
	global	main@a
main@a:	; 2 bytes @ 0x14
	ds	2
	global	main@b
main@b:	; 2 bytes @ 0x16
	ds	2
	global	main@c
main@c:	; 2 bytes @ 0x18
	ds	2
	global	main@d
main@d:	; 2 bytes @ 0x1A
	ds	2
	global	main@i
main@i:	; 2 bytes @ 0x1C
	ds	2
	global	main@j
main@j:	; 2 bytes @ 0x1E
	ds	2
;;Data sizes: Strings 0, constant 0, data 20, bss 0, persistent 0 stack 0
;;Auto spaces:   Size  Autos    Used
;; COMMON          14     13      13
;; BANK0           80     32      52
;; BANK1           80      0       0
;; BANK3           96      0       0
;; BANK2           96      0       0

;;
;; Pointer list with targets:

;; ?___awmod	int  size(1) Largest target is 0
;;
;; ?___awdiv	int  size(1) Largest target is 0
;;


;;
;; Critical Paths under _main in COMMON
;;
;;   _main->___awdiv
;;
;; Critical Paths under _main in BANK0
;;
;;   None.
;;
;; Critical Paths under _main in BANK1
;;
;;   None.
;;
;; Critical Paths under _main in BANK3
;;
;;   None.
;;
;; Critical Paths under _main in BANK2
;;
;;   None.

;;
;;Main: autosize = 0, tempsize = 4, incstack = 0, save=0
;;

;;
;;Call Graph Tables:
;;
;; ---------------------------------------------------------------------------------
;; (Depth) Function   	        Calls       Base Space   Used Autos Params    Refs
;; ---------------------------------------------------------------------------------
;; (0) _main                                                38    38      0     917
;;                                              9 COMMON     4     4      0
;;                                              0 BANK0     32    32      0
;;                            ___awdiv
;;                            ___awmod
;;                              _delay
;; ---------------------------------------------------------------------------------
;; (1) ___awmod                                              7     3      4     296
;;                                              0 COMMON     7     3      4
;; ---------------------------------------------------------------------------------
;; (1) ___awdiv                                              9     5      4     300
;;                                              0 COMMON     9     5      4
;; ---------------------------------------------------------------------------------
;; (1) _delay                                                2     0      2      22
;;                                              0 COMMON     2     0      2
;; ---------------------------------------------------------------------------------
;; Estimated maximum stack depth 1
;; ---------------------------------------------------------------------------------

;; Call Graph Graphs:

;; _main (ROOT)
;;   ___awdiv
;;   ___awmod
;;   _delay
;;

;; Address spaces:

;;Name               Size   Autos  Total    Cost      Usage
;;BANK3               60      0       0       9        0.0%
;;BITBANK3            60      0       0       8        0.0%
;;SFR3                 0      0       0       4        0.0%
;;BITSFR3              0      0       0       4        0.0%
;;BANK2               60      0       0      11        0.0%
;;BITBANK2            60      0       0      10        0.0%
;;SFR2                 0      0       0       5        0.0%
;;BITSFR2              0      0       0       5        0.0%
;;SFR1                 0      0       0       2        0.0%
;;BITSFR1              0      0       0       2        0.0%
;;BANK1               50      0       0       7        0.0%
;;BITBANK1            50      0       0       6        0.0%
;;CODE                 0      0       0       0        0.0%
;;DATA                 0      0      42      12        0.0%
;;ABS                  0      0      41       3        0.0%
;;NULL                 0      0       0       0        0.0%
;;STACK                0      0       1       2        0.0%
;;BANK0               50     20      34       5       65.0%
;;BITBANK0            50      0       0       4        0.0%
;;SFR0                 0      0       0       1        0.0%
;;BITSFR0              0      0       0       1        0.0%
;;COMMON               E      D       D       1       92.9%
;;BITCOMMON            E      0       0       0        0.0%
;;EEDATA             100      0       0       0        0.0%

	global	_main
psect	maintext,global,class=CODE,delta=2
global __pmaintext
__pmaintext:

;; *************** function _main *****************
;; Defined at:
;;		line 12 in file "D:\Embedded\pic\code\software\segment\four-digit-twotwo\four-digit-twotwo.c"
;; Parameters:    Size  Location     Type
;;		None
;; Auto vars:     Size  Location     Type
;;  seg            20    0[BANK0 ] unsigned char [20]
;;  j               2   30[BANK0 ] int 
;;  i               2   28[BANK0 ] int 
;;  d               2   26[BANK0 ] int 
;;  c               2   24[BANK0 ] int 
;;  b               2   22[BANK0 ] int 
;;  a               2   20[BANK0 ] int 
;;  k               2    0        int 
;; Return value:  Size  Location     Type
;;		None               void
;; Registers used:
;;		wreg, fsr0l, fsr0h, status,2, status,0, pclath, cstack
;; Tracked objects:
;;		On entry : 17F/0
;;		On exit  : 0/0
;;		Unchanged: 0/0
;; Data sizes:     COMMON   BANK0   BANK1   BANK3   BANK2
;;      Params:         0       0       0       0       0
;;      Locals:         0      32       0       0       0
;;      Temps:          4       0       0       0       0
;;      Totals:         4      32       0       0       0
;;Total ram usage:       36 bytes
;; Hardware stack levels required when called:    1
;; This function calls:
;;		___awdiv
;;		___awmod
;;		_delay
;; This function is called by:
;;		Startup code after reset
;; This function uses a non-reentrant model
;;
psect	maintext
	file	"D:\Embedded\pic\code\software\segment\four-digit-twotwo\four-digit-twotwo.c"
	line	12
	global	__size_of_main
	__size_of_main	equ	__end_of_main-_main
	
_main:	
	opt	stack 7
; Regs used in _main: [wreg-fsr0h+status,2+status,0+pclath+cstack]
	line	14
	
l2366:	
;four-digit-twotwo.c: 13: int i,j,a,b,c,d,k;
;four-digit-twotwo.c: 14: char seg[20]={0X3F,0X06,0X5B,0X4F,0X66,0X6D,0X7D,0X07,0X7F,0X6F};
	movlw	(main@seg)&0ffh
	movwf	fsr0
	movlw	low(main@F1609)
	movwf	(??_main+0)+0
	movf	fsr0,w
	movwf	((??_main+0)+0+1)
	movlw	20
	movwf	((??_main+0)+0+2)
u2370:
	movf	(??_main+0)+0,w
	movwf	fsr0
	bcf	status, 7	;select IRP bank0
	
	movf	indf,w
	movwf	((??_main+0)+0+3)
	incf	(??_main+0)+0,f
	movf	((??_main+0)+0+1),w
	movwf	fsr0
	
	movf	((??_main+0)+0+3),w
	movwf	indf
	incf	((??_main+0)+0+1),f
	decfsz	((??_main+0)+0+2),f
	goto	u2370
	line	15
	
l2368:	
;four-digit-twotwo.c: 15: TRISB=0X00;
	bsf	status, 5	;RP0=1, select bank1
	bcf	status, 6	;RP1=0, select bank1
	clrf	(134)^080h	;volatile
	line	16
	
l2370:	
;four-digit-twotwo.c: 16: PORTB=0X00;
	bcf	status, 5	;RP0=0, select bank0
	bcf	status, 6	;RP1=0, select bank0
	clrf	(6)	;volatile
	line	17
	
l2372:	
;four-digit-twotwo.c: 17: TRISD=0X00;
	bsf	status, 5	;RP0=1, select bank1
	bcf	status, 6	;RP1=0, select bank1
	clrf	(136)^080h	;volatile
	line	18
	
l2374:	
;four-digit-twotwo.c: 18: PORTD=0X00;
	bcf	status, 5	;RP0=0, select bank0
	bcf	status, 6	;RP1=0, select bank0
	clrf	(8)	;volatile
	goto	l2376
	line	19
;four-digit-twotwo.c: 19: while(1)
	
l1033:	
	line	22
	
l2376:	
;four-digit-twotwo.c: 20: {
;four-digit-twotwo.c: 22: for(i=0,j=99;i<=99,j>=0;i++,j--)
	clrf	(main@i)
	clrf	(main@i+1)
	
l2378:	
	movlw	low(063h)
	movwf	(main@j)
	movlw	high(063h)
	movwf	((main@j))+1
	goto	l2414
	line	23
	
l1035:	
	line	24
	
l2380:	
;four-digit-twotwo.c: 23: {
;four-digit-twotwo.c: 24: a=i/10;
	movlw	low(0Ah)
	movwf	(?___awdiv)
	movlw	high(0Ah)
	movwf	((?___awdiv))+1
	movf	(main@i+1),w
	clrf	1+(?___awdiv)+02h
	addwf	1+(?___awdiv)+02h
	movf	(main@i),w
	clrf	0+(?___awdiv)+02h
	addwf	0+(?___awdiv)+02h

	fcall	___awdiv
	movf	(1+(?___awdiv)),w
	bcf	status, 5	;RP0=0, select bank0
	bcf	status, 6	;RP1=0, select bank0
	clrf	(main@a+1)
	addwf	(main@a+1)
	movf	(0+(?___awdiv)),w
	clrf	(main@a)
	addwf	(main@a)

	line	25
;four-digit-twotwo.c: 25: b=i%10;
	movlw	low(0Ah)
	movwf	(?___awmod)
	movlw	high(0Ah)
	movwf	((?___awmod))+1
	movf	(main@i+1),w
	clrf	1+(?___awmod)+02h
	addwf	1+(?___awmod)+02h
	movf	(main@i),w
	clrf	0+(?___awmod)+02h
	addwf	0+(?___awmod)+02h

	fcall	___awmod
	movf	(1+(?___awmod)),w
	bcf	status, 5	;RP0=0, select bank0
	bcf	status, 6	;RP1=0, select bank0
	clrf	(main@b+1)
	addwf	(main@b+1)
	movf	(0+(?___awmod)),w
	clrf	(main@b)
	addwf	(main@b)

	line	26
;four-digit-twotwo.c: 26: c=j/10;
	movlw	low(0Ah)
	movwf	(?___awdiv)
	movlw	high(0Ah)
	movwf	((?___awdiv))+1
	movf	(main@j+1),w
	clrf	1+(?___awdiv)+02h
	addwf	1+(?___awdiv)+02h
	movf	(main@j),w
	clrf	0+(?___awdiv)+02h
	addwf	0+(?___awdiv)+02h

	fcall	___awdiv
	movf	(1+(?___awdiv)),w
	bcf	status, 5	;RP0=0, select bank0
	bcf	status, 6	;RP1=0, select bank0
	clrf	(main@c+1)
	addwf	(main@c+1)
	movf	(0+(?___awdiv)),w
	clrf	(main@c)
	addwf	(main@c)

	line	27
;four-digit-twotwo.c: 27: d=j%10;
	movlw	low(0Ah)
	movwf	(?___awmod)
	movlw	high(0Ah)
	movwf	((?___awmod))+1
	movf	(main@j+1),w
	clrf	1+(?___awmod)+02h
	addwf	1+(?___awmod)+02h
	movf	(main@j),w
	clrf	0+(?___awmod)+02h
	addwf	0+(?___awmod)+02h

	fcall	___awmod
	movf	(1+(?___awmod)),w
	bcf	status, 5	;RP0=0, select bank0
	bcf	status, 6	;RP1=0, select bank0
	clrf	(main@d+1)
	addwf	(main@d+1)
	movf	(0+(?___awmod)),w
	clrf	(main@d)
	addwf	(main@d)

	line	29
	
l2382:	
;four-digit-twotwo.c: 29: RD0=0;
	bcf	(64/8),(64)&7
	line	30
	
l2384:	
;four-digit-twotwo.c: 30: RD1=1;
	bsf	(65/8),(65)&7
	line	31
	
l2386:	
;four-digit-twotwo.c: 31: PORTB=seg[a];
	movf	(main@a),w
	addlw	main@seg&0ffh
	movwf	fsr0
	bcf	status, 7	;select IRP bank0
	movf	indf,w
	movwf	(6)	;volatile
	line	32
	
l2388:	
;four-digit-twotwo.c: 32: delay(1800);
	movlw	low(0708h)
	movwf	(?_delay)
	movlw	high(0708h)
	movwf	((?_delay))+1
	fcall	_delay
	line	33
	
l2390:	
;four-digit-twotwo.c: 33: RD0=1;
	bcf	status, 5	;RP0=0, select bank0
	bcf	status, 6	;RP1=0, select bank0
	bsf	(64/8),(64)&7
	line	34
	
l2392:	
;four-digit-twotwo.c: 34: RD1=0;
	bcf	(65/8),(65)&7
	line	35
;four-digit-twotwo.c: 35: PORTB=seg[b];
	movf	(main@b),w
	addlw	main@seg&0ffh
	movwf	fsr0
	bcf	status, 7	;select IRP bank0
	movf	indf,w
	movwf	(6)	;volatile
	line	36
	
l2394:	
;four-digit-twotwo.c: 36: delay(1800);
	movlw	low(0708h)
	movwf	(?_delay)
	movlw	high(0708h)
	movwf	((?_delay))+1
	fcall	_delay
	line	38
	
l2396:	
;four-digit-twotwo.c: 38: RD2=0;
	bcf	status, 5	;RP0=0, select bank0
	bcf	status, 6	;RP1=0, select bank0
	bcf	(66/8),(66)&7
	line	39
	
l2398:	
;four-digit-twotwo.c: 39: RD3=1;
	bsf	(67/8),(67)&7
	line	40
	
l2400:	
;four-digit-twotwo.c: 40: PORTB=seg[c];
	movf	(main@c),w
	addlw	main@seg&0ffh
	movwf	fsr0
	bcf	status, 7	;select IRP bank0
	movf	indf,w
	movwf	(6)	;volatile
	line	41
;four-digit-twotwo.c: 41: delay(1800);
	movlw	low(0708h)
	movwf	(?_delay)
	movlw	high(0708h)
	movwf	((?_delay))+1
	fcall	_delay
	line	42
	
l2402:	
;four-digit-twotwo.c: 42: RD2=1;
	bcf	status, 5	;RP0=0, select bank0
	bcf	status, 6	;RP1=0, select bank0
	bsf	(66/8),(66)&7
	line	43
	
l2404:	
;four-digit-twotwo.c: 43: RD3=0;
	bcf	(67/8),(67)&7
	line	44
	
l2406:	
;four-digit-twotwo.c: 44: PORTB=seg[d];
	movf	(main@d),w
	addlw	main@seg&0ffh
	movwf	fsr0
	bcf	status, 7	;select IRP bank0
	movf	indf,w
	movwf	(6)	;volatile
	line	45
	
l2408:	
;four-digit-twotwo.c: 45: delay(1800);
	movlw	low(0708h)
	movwf	(?_delay)
	movlw	high(0708h)
	movwf	((?_delay))+1
	fcall	_delay
	line	22
	
l2410:	
	movlw	low(01h)
	bcf	status, 5	;RP0=0, select bank0
	bcf	status, 6	;RP1=0, select bank0
	addwf	(main@i),f
	skipnc
	incf	(main@i+1),f
	movlw	high(01h)
	addwf	(main@i+1),f
	
l2412:	
	movlw	low(-1)
	addwf	(main@j),f
	skipnc
	incf	(main@j+1),f
	movlw	high(-1)
	addwf	(main@j+1),f
	goto	l2414
	
l1034:	
	
l2414:	
	btfss	(main@j+1),7
	goto	u2381
	goto	u2380
u2381:
	goto	l2380
u2380:
	goto	l2376
	
l1036:	
	goto	l2376
	line	48
	
l1037:	
	line	19
	goto	l2376
	
l1038:	
	line	49
	
l1039:	
	global	start
	ljmp	start
	opt stack 0
GLOBAL	__end_of_main
	__end_of_main:
;; =============== function _main ends ============

	signat	_main,88
	global	___awmod
psect	text95,local,class=CODE,delta=2
global __ptext95
__ptext95:

;; *************** function ___awmod *****************
;; Defined at:
;;		line 5 in file "C:\Program Files\HI-TECH Software\PICC\9.81\sources\awmod.c"
;; Parameters:    Size  Location     Type
;;  divisor         2    0[COMMON] int 
;;  dividend        2    2[COMMON] int 
;; Auto vars:     Size  Location     Type
;;  sign            1    6[COMMON] unsigned char 
;;  counter         1    5[COMMON] unsigned char 
;; Return value:  Size  Location     Type
;;                  2    0[COMMON] int 
;; Registers used:
;;		wreg, status,2, status,0
;; Tracked objects:
;;		On entry : 0/0
;;		On exit  : 0/0
;;		Unchanged: 0/0
;; Data sizes:     COMMON   BANK0   BANK1   BANK3   BANK2
;;      Params:         4       0       0       0       0
;;      Locals:         2       0       0       0       0
;;      Temps:          1       0       0       0       0
;;      Totals:         7       0       0       0       0
;;Total ram usage:        7 bytes
;; Hardware stack levels used:    1
;; This function calls:
;;		Nothing
;; This function is called by:
;;		_main
;; This function uses a non-reentrant model
;;
psect	text95
	file	"C:\Program Files\HI-TECH Software\PICC\9.81\sources\awmod.c"
	line	5
	global	__size_of___awmod
	__size_of___awmod	equ	__end_of___awmod-___awmod
	
___awmod:	
	opt	stack 7
; Regs used in ___awmod: [wreg+status,2+status,0]
	line	8
	
l2332:	
	clrf	(___awmod@sign)
	line	9
	btfss	(___awmod@dividend+1),7
	goto	u2281
	goto	u2280
u2281:
	goto	l2336
u2280:
	line	10
	
l2334:	
	comf	(___awmod@dividend),f
	comf	(___awmod@dividend+1),f
	incf	(___awmod@dividend),f
	skipnz
	incf	(___awmod@dividend+1),f
	line	11
	clrf	(___awmod@sign)
	bsf	status,0
	rlf	(___awmod@sign),f
	goto	l2336
	line	12
	
l1256:	
	line	13
	
l2336:	
	btfss	(___awmod@divisor+1),7
	goto	u2291
	goto	u2290
u2291:
	goto	l2340
u2290:
	line	14
	
l2338:	
	comf	(___awmod@divisor),f
	comf	(___awmod@divisor+1),f
	incf	(___awmod@divisor),f
	skipnz
	incf	(___awmod@divisor+1),f
	goto	l2340
	
l1257:	
	line	15
	
l2340:	
	movf	(___awmod@divisor+1),w
	iorwf	(___awmod@divisor),w
	skipnz
	goto	u2301
	goto	u2300
u2301:
	goto	l2358
u2300:
	line	16
	
l2342:	
	clrf	(___awmod@counter)
	bsf	status,0
	rlf	(___awmod@counter),f
	line	17
	goto	l2348
	
l1260:	
	line	18
	
l2344:	
	movlw	01h
	
u2315:
	clrc
	rlf	(___awmod@divisor),f
	rlf	(___awmod@divisor+1),f
	addlw	-1
	skipz
	goto	u2315
	line	19
	
l2346:	
	movlw	(01h)
	movwf	(??___awmod+0)+0
	movf	(??___awmod+0)+0,w
	addwf	(___awmod@counter),f
	goto	l2348
	line	20
	
l1259:	
	line	17
	
l2348:	
	btfss	(___awmod@divisor+1),(15)&7
	goto	u2321
	goto	u2320
u2321:
	goto	l2344
u2320:
	goto	l2350
	
l1261:	
	goto	l2350
	line	21
	
l1262:	
	line	22
	
l2350:	
	movf	(___awmod@divisor+1),w
	subwf	(___awmod@dividend+1),w
	skipz
	goto	u2335
	movf	(___awmod@divisor),w
	subwf	(___awmod@dividend),w
u2335:
	skipc
	goto	u2331
	goto	u2330
u2331:
	goto	l2354
u2330:
	line	23
	
l2352:	
	movf	(___awmod@divisor),w
	subwf	(___awmod@dividend),f
	movf	(___awmod@divisor+1),w
	skipc
	decf	(___awmod@dividend+1),f
	subwf	(___awmod@dividend+1),f
	goto	l2354
	
l1263:	
	line	24
	
l2354:	
	movlw	01h
	
u2345:
	clrc
	rrf	(___awmod@divisor+1),f
	rrf	(___awmod@divisor),f
	addlw	-1
	skipz
	goto	u2345
	line	25
	
l2356:	
	movlw	low(01h)
	subwf	(___awmod@counter),f
	btfss	status,2
	goto	u2351
	goto	u2350
u2351:
	goto	l2350
u2350:
	goto	l2358
	
l1264:	
	goto	l2358
	line	26
	
l1258:	
	line	27
	
l2358:	
	movf	(___awmod@sign),w
	skipz
	goto	u2360
	goto	l2362
u2360:
	line	28
	
l2360:	
	comf	(___awmod@dividend),f
	comf	(___awmod@dividend+1),f
	incf	(___awmod@dividend),f
	skipnz
	incf	(___awmod@dividend+1),f
	goto	l2362
	
l1265:	
	line	29
	
l2362:	
	movf	(___awmod@dividend+1),w
	clrf	(?___awmod+1)
	addwf	(?___awmod+1)
	movf	(___awmod@dividend),w
	clrf	(?___awmod)
	addwf	(?___awmod)

	goto	l1266
	
l2364:	
	line	30
	
l1266:	
	return
	opt stack 0
GLOBAL	__end_of___awmod
	__end_of___awmod:
;; =============== function ___awmod ends ============

	signat	___awmod,8314
	global	___awdiv
psect	text96,local,class=CODE,delta=2
global __ptext96
__ptext96:

;; *************** function ___awdiv *****************
;; Defined at:
;;		line 5 in file "C:\Program Files\HI-TECH Software\PICC\9.81\sources\awdiv.c"
;; Parameters:    Size  Location     Type
;;  divisor         2    0[COMMON] int 
;;  dividend        2    2[COMMON] int 
;; Auto vars:     Size  Location     Type
;;  quotient        2    7[COMMON] int 
;;  sign            1    6[COMMON] unsigned char 
;;  counter         1    5[COMMON] unsigned char 
;; Return value:  Size  Location     Type
;;                  2    0[COMMON] int 
;; Registers used:
;;		wreg, status,2, status,0
;; Tracked objects:
;;		On entry : 0/0
;;		On exit  : 0/0
;;		Unchanged: 0/0
;; Data sizes:     COMMON   BANK0   BANK1   BANK3   BANK2
;;      Params:         4       0       0       0       0
;;      Locals:         4       0       0       0       0
;;      Temps:          1       0       0       0       0
;;      Totals:         9       0       0       0       0
;;Total ram usage:        9 bytes
;; Hardware stack levels used:    1
;; This function calls:
;;		Nothing
;; This function is called by:
;;		_main
;; This function uses a non-reentrant model
;;
psect	text96
	file	"C:\Program Files\HI-TECH Software\PICC\9.81\sources\awdiv.c"
	line	5
	global	__size_of___awdiv
	__size_of___awdiv	equ	__end_of___awdiv-___awdiv
	
___awdiv:	
	opt	stack 7
; Regs used in ___awdiv: [wreg+status,2+status,0]
	line	9
	
l2292:	
	clrf	(___awdiv@sign)
	line	10
	btfss	(___awdiv@divisor+1),7
	goto	u2181
	goto	u2180
u2181:
	goto	l2296
u2180:
	line	11
	
l2294:	
	comf	(___awdiv@divisor),f
	comf	(___awdiv@divisor+1),f
	incf	(___awdiv@divisor),f
	skipnz
	incf	(___awdiv@divisor+1),f
	line	12
	clrf	(___awdiv@sign)
	bsf	status,0
	rlf	(___awdiv@sign),f
	goto	l2296
	line	13
	
l1188:	
	line	14
	
l2296:	
	btfss	(___awdiv@dividend+1),7
	goto	u2191
	goto	u2190
u2191:
	goto	l2302
u2190:
	line	15
	
l2298:	
	comf	(___awdiv@dividend),f
	comf	(___awdiv@dividend+1),f
	incf	(___awdiv@dividend),f
	skipnz
	incf	(___awdiv@dividend+1),f
	line	16
	
l2300:	
	movlw	(01h)
	movwf	(??___awdiv+0)+0
	movf	(??___awdiv+0)+0,w
	xorwf	(___awdiv@sign),f
	goto	l2302
	line	17
	
l1189:	
	line	18
	
l2302:	
	clrf	(___awdiv@quotient)
	clrf	(___awdiv@quotient+1)
	line	19
	
l2304:	
	movf	(___awdiv@divisor+1),w
	iorwf	(___awdiv@divisor),w
	skipnz
	goto	u2201
	goto	u2200
u2201:
	goto	l2324
u2200:
	line	20
	
l2306:	
	clrf	(___awdiv@counter)
	bsf	status,0
	rlf	(___awdiv@counter),f
	line	21
	goto	l2312
	
l1192:	
	line	22
	
l2308:	
	movlw	01h
	
u2215:
	clrc
	rlf	(___awdiv@divisor),f
	rlf	(___awdiv@divisor+1),f
	addlw	-1
	skipz
	goto	u2215
	line	23
	
l2310:	
	movlw	(01h)
	movwf	(??___awdiv+0)+0
	movf	(??___awdiv+0)+0,w
	addwf	(___awdiv@counter),f
	goto	l2312
	line	24
	
l1191:	
	line	21
	
l2312:	
	btfss	(___awdiv@divisor+1),(15)&7
	goto	u2221
	goto	u2220
u2221:
	goto	l2308
u2220:
	goto	l2314
	
l1193:	
	goto	l2314
	line	25
	
l1194:	
	line	26
	
l2314:	
	movlw	01h
	
u2235:
	clrc
	rlf	(___awdiv@quotient),f
	rlf	(___awdiv@quotient+1),f
	addlw	-1
	skipz
	goto	u2235
	line	27
	movf	(___awdiv@divisor+1),w
	subwf	(___awdiv@dividend+1),w
	skipz
	goto	u2245
	movf	(___awdiv@divisor),w
	subwf	(___awdiv@dividend),w
u2245:
	skipc
	goto	u2241
	goto	u2240
u2241:
	goto	l2320
u2240:
	line	28
	
l2316:	
	movf	(___awdiv@divisor),w
	subwf	(___awdiv@dividend),f
	movf	(___awdiv@divisor+1),w
	skipc
	decf	(___awdiv@dividend+1),f
	subwf	(___awdiv@dividend+1),f
	line	29
	
l2318:	
	bsf	(___awdiv@quotient)+(0/8),(0)&7
	goto	l2320
	line	30
	
l1195:	
	line	31
	
l2320:	
	movlw	01h
	
u2255:
	clrc
	rrf	(___awdiv@divisor+1),f
	rrf	(___awdiv@divisor),f
	addlw	-1
	skipz
	goto	u2255
	line	32
	
l2322:	
	movlw	low(01h)
	subwf	(___awdiv@counter),f
	btfss	status,2
	goto	u2261
	goto	u2260
u2261:
	goto	l2314
u2260:
	goto	l2324
	
l1196:	
	goto	l2324
	line	33
	
l1190:	
	line	34
	
l2324:	
	movf	(___awdiv@sign),w
	skipz
	goto	u2270
	goto	l2328
u2270:
	line	35
	
l2326:	
	comf	(___awdiv@quotient),f
	comf	(___awdiv@quotient+1),f
	incf	(___awdiv@quotient),f
	skipnz
	incf	(___awdiv@quotient+1),f
	goto	l2328
	
l1197:	
	line	36
	
l2328:	
	movf	(___awdiv@quotient+1),w
	clrf	(?___awdiv+1)
	addwf	(?___awdiv+1)
	movf	(___awdiv@quotient),w
	clrf	(?___awdiv)
	addwf	(?___awdiv)

	goto	l1198
	
l2330:	
	line	37
	
l1198:	
	return
	opt stack 0
GLOBAL	__end_of___awdiv
	__end_of___awdiv:
;; =============== function ___awdiv ends ============

	signat	___awdiv,8314
	global	_delay
psect	text97,local,class=CODE,delta=2
global __ptext97
__ptext97:

;; *************** function _delay *****************
;; Defined at:
;;		line 8 in file "D:\Embedded\pic\code\software\segment\four-digit-twotwo\four-digit-twotwo.c"
;; Parameters:    Size  Location     Type
;;  a               2    0[COMMON] unsigned int 
;; Auto vars:     Size  Location     Type
;;		None
;; Return value:  Size  Location     Type
;;		None               void
;; Registers used:
;;		wreg
;; Tracked objects:
;;		On entry : 0/0
;;		On exit  : 0/0
;;		Unchanged: 0/0
;; Data sizes:     COMMON   BANK0   BANK1   BANK3   BANK2
;;      Params:         2       0       0       0       0
;;      Locals:         0       0       0       0       0
;;      Temps:          0       0       0       0       0
;;      Totals:         2       0       0       0       0
;;Total ram usage:        2 bytes
;; Hardware stack levels used:    1
;; This function calls:
;;		Nothing
;; This function is called by:
;;		_main
;; This function uses a non-reentrant model
;;
psect	text97
	file	"D:\Embedded\pic\code\software\segment\four-digit-twotwo\four-digit-twotwo.c"
	line	8
	global	__size_of_delay
	__size_of_delay	equ	__end_of_delay-_delay
	
_delay:	
	opt	stack 7
; Regs used in _delay: [wreg]
	line	9
	
l2288:	
;four-digit-twotwo.c: 9: while(a--);
	goto	l2290
	
l1026:	
	goto	l2290
	
l1025:	
	
l2290:	
	movlw	low(01h)
	subwf	(delay@a),f
	movlw	high(01h)
	skipc
	decf	(delay@a+1),f
	subwf	(delay@a+1),f
	movlw	high(0FFFFh)
	xorwf	((delay@a+1)),w
	skipz
	goto	u2175
	movlw	low(0FFFFh)
	xorwf	((delay@a)),w
u2175:

	skipz
	goto	u2171
	goto	u2170
u2171:
	goto	l2290
u2170:
	goto	l1028
	
l1027:	
	line	10
	
l1028:	
	return
	opt stack 0
GLOBAL	__end_of_delay
	__end_of_delay:
;; =============== function _delay ends ============

	signat	_delay,4216
psect	text98,local,class=CODE,delta=2
global __ptext98
__ptext98:
	global	btemp
	btemp set 07Eh

	DABS	1,126,2	;btemp
	global	wtemp0
	wtemp0 set btemp
	end
