opt subtitle "HI-TECH Software Omniscient Code Generator (Lite mode) build 7503"

opt pagewidth 120

	opt lm

	processor	16F887
clrc	macro
	bcf	3,0
	endm
clrz	macro
	bcf	3,2
	endm
setc	macro
	bsf	3,0
	endm
setz	macro
	bsf	3,2
	endm
skipc	macro
	btfss	3,0
	endm
skipz	macro
	btfss	3,2
	endm
skipnc	macro
	btfsc	3,0
	endm
skipnz	macro
	btfsc	3,2
	endm
indf	equ	0
indf0	equ	0
pc	equ	2
pcl	equ	2
status	equ	3
fsr	equ	4
fsr0	equ	4
c	equ	1
z	equ	0
pclath	equ	10
	FNCALL	_main,_lcd_cmd
	FNCALL	_main,_delay
	FNCALL	_lcd_cmd,_delay
	FNROOT	_main
	FNCALL	_ext,i1_lcd_cmd
	FNCALL	i1_lcd_cmd,i1_delay
	FNCALL	intlevel1,_ext
	global	intlevel1
	FNROOT	intlevel1
	global	_i
	global	_INTCON
psect	text165,local,class=CODE,delta=2
global __ptext165
__ptext165:
_INTCON	set	11
	global	_PIR1
_PIR1	set	12
	global	_PORTC
_PORTC	set	7
	global	_PORTD
_PORTD	set	8
	global	_PORTE
_PORTE	set	9
	global	_RCREG
_RCREG	set	26
	global	_RCSTA
_RCSTA	set	24
	global	_RC0
_RC0	set	56
	global	_RCIF
_RCIF	set	101
	global	_RE0
_RE0	set	72
	global	_RE1
_RE1	set	73
	global	_RE2
_RE2	set	74
	global	_PIE1
_PIE1	set	140
	global	_SPBRG
_SPBRG	set	153
	global	_TRISC
_TRISC	set	135
	global	_TRISD
_TRISD	set	136
	global	_TRISE
_TRISE	set	137
	global	_TXSTA
_TXSTA	set	152
	global	_ANSEL
_ANSEL	set	392
	global	_ANSELH
_ANSELH	set	393
	file	"Serial_interrupt.as"
	line	#
psect cinit,class=CODE,delta=2
global start_initialization
start_initialization:

psect	bssBANK0,class=BANK0,space=1
global __pbssBANK0
__pbssBANK0:
_i:
       ds      2

; Clear objects allocated to BANK0
psect cinit,class=CODE,delta=2
	clrf	((__pbssBANK0)+0)&07Fh
	clrf	((__pbssBANK0)+1)&07Fh
psect cinit,class=CODE,delta=2
global end_of_initialization

;End of C runtime variable initialization code

end_of_initialization:
clrf status
ljmp _main	;jump to C main() function
psect	cstackCOMMON,class=COMMON,space=1
global __pcstackCOMMON
__pcstackCOMMON:
	global	?_ext
?_ext:	; 0 bytes @ 0x0
	global	?_main
?_main:	; 0 bytes @ 0x0
	global	?i1_delay
?i1_delay:	; 0 bytes @ 0x0
	global	i1delay@ms
i1delay@ms:	; 2 bytes @ 0x0
	ds	2
	global	??i1_delay
??i1_delay:	; 0 bytes @ 0x2
	global	?i1_lcd_cmd
?i1_lcd_cmd:	; 0 bytes @ 0x2
	global	i1lcd_cmd@b
i1lcd_cmd@b:	; 1 bytes @ 0x2
	ds	1
	global	i1lcd_cmd@c
i1lcd_cmd@c:	; 1 bytes @ 0x3
	ds	1
	global	??i1_lcd_cmd
??i1_lcd_cmd:	; 0 bytes @ 0x4
	global	i1lcd_cmd@a
i1lcd_cmd@a:	; 1 bytes @ 0x4
	ds	1
	global	??_ext
??_ext:	; 0 bytes @ 0x5
	ds	5
	global	ext@data
ext@data:	; 1 bytes @ 0xA
	ds	1
psect	cstackBANK0,class=BANK0,space=1
global __pcstackBANK0
__pcstackBANK0:
	global	?_delay
?_delay:	; 0 bytes @ 0x0
	global	delay@ms
delay@ms:	; 2 bytes @ 0x0
	ds	2
	global	??_delay
??_delay:	; 0 bytes @ 0x2
	global	?_lcd_cmd
?_lcd_cmd:	; 0 bytes @ 0x2
	global	lcd_cmd@b
lcd_cmd@b:	; 1 bytes @ 0x2
	ds	1
	global	lcd_cmd@c
lcd_cmd@c:	; 1 bytes @ 0x3
	ds	1
	global	??_lcd_cmd
??_lcd_cmd:	; 0 bytes @ 0x4
	global	lcd_cmd@a
lcd_cmd@a:	; 1 bytes @ 0x4
	ds	1
	global	??_main
??_main:	; 0 bytes @ 0x5
	ds	1
;;Data sizes: Strings 0, constant 0, data 0, bss 2, persistent 0 stack 0
;;Auto spaces:   Size  Autos    Used
;; COMMON          14     11      11
;; BANK0           80      6       8
;; BANK1           80      0       0
;; BANK3           96      0       0
;; BANK2           96      0       0

;;
;; Pointer list with targets:



;;
;; Critical Paths under _main in COMMON
;;
;;   None.
;;
;; Critical Paths under _ext in COMMON
;;
;;   _ext->i1_lcd_cmd
;;   i1_lcd_cmd->i1_delay
;;
;; Critical Paths under _main in BANK0
;;
;;   _main->_lcd_cmd
;;   _lcd_cmd->_delay
;;
;; Critical Paths under _ext in BANK0
;;
;;   None.
;;
;; Critical Paths under _main in BANK1
;;
;;   None.
;;
;; Critical Paths under _ext in BANK1
;;
;;   None.
;;
;; Critical Paths under _main in BANK3
;;
;;   None.
;;
;; Critical Paths under _ext in BANK3
;;
;;   None.
;;
;; Critical Paths under _main in BANK2
;;
;;   None.
;;
;; Critical Paths under _ext in BANK2
;;
;;   None.

;;
;;Main: autosize = 0, tempsize = 1, incstack = 0, save=0
;;

;;
;;Call Graph Tables:
;;
;; ---------------------------------------------------------------------------------
;; (Depth) Function   	        Calls       Base Space   Used Autos Params    Refs
;; ---------------------------------------------------------------------------------
;; (0) _main                                                 1     1      0     110
;;                                              5 BANK0      1     1      0
;;                            _lcd_cmd
;;                              _delay
;; ---------------------------------------------------------------------------------
;; (1) _lcd_cmd                                              3     1      2      88
;;                                              2 BANK0      3     1      2
;;                              _delay
;; ---------------------------------------------------------------------------------
;; (1) _delay                                                2     0      2      22
;;                                              0 BANK0      2     0      2
;; ---------------------------------------------------------------------------------
;; Estimated maximum stack depth 1
;; ---------------------------------------------------------------------------------
;; (Depth) Function   	        Calls       Base Space   Used Autos Params    Refs
;; ---------------------------------------------------------------------------------
;; (3) _ext                                                  6     6      0     315
;;                                              5 COMMON     6     6      0
;;                          i1_lcd_cmd
;; ---------------------------------------------------------------------------------
;; (4) i1_lcd_cmd                                            3     1      2     292
;;                                              2 COMMON     3     1      2
;;                            i1_delay
;; ---------------------------------------------------------------------------------
;; (5) i1_delay                                              2     0      2      73
;;                                              0 COMMON     2     0      2
;; ---------------------------------------------------------------------------------
;; Estimated maximum stack depth 5
;; ---------------------------------------------------------------------------------

;; Call Graph Graphs:

;; _main (ROOT)
;;   _lcd_cmd
;;     _delay
;;   _delay
;;
;; _ext (ROOT)
;;   i1_lcd_cmd
;;     i1_delay
;;

;; Address spaces:

;;Name               Size   Autos  Total    Cost      Usage
;;BITCOMMON            E      0       0       0        0.0%
;;EEDATA             100      0       0       0        0.0%
;;NULL                 0      0       0       0        0.0%
;;CODE                 0      0       0       0        0.0%
;;COMMON               E      B       B       1       78.6%
;;BITSFR0              0      0       0       1        0.0%
;;SFR0                 0      0       0       1        0.0%
;;BITSFR1              0      0       0       2        0.0%
;;SFR1                 0      0       0       2        0.0%
;;STACK                0      0       8       2        0.0%
;;ABS                  0      0      13       3        0.0%
;;BITBANK0            50      0       0       4        0.0%
;;BITSFR3              0      0       0       4        0.0%
;;SFR3                 0      0       0       4        0.0%
;;BANK0               50      6       8       5       10.0%
;;BITSFR2              0      0       0       5        0.0%
;;SFR2                 0      0       0       5        0.0%
;;BITBANK1            50      0       0       6        0.0%
;;BANK1               50      0       0       7        0.0%
;;BITBANK3            60      0       0       8        0.0%
;;BANK3               60      0       0       9        0.0%
;;BITBANK2            60      0       0      10        0.0%
;;BANK2               60      0       0      11        0.0%
;;DATA                 0      0      1B      12        0.0%

	global	_main
psect	maintext,global,class=CODE,delta=2
global __pmaintext
__pmaintext:

;; *************** function _main *****************
;; Defined at:
;;		line 16 in file "D:\Embedded\pic\code\software\interrupt\Serial_interrupt\Serial_interrupt.c"
;; Parameters:    Size  Location     Type
;;		None
;; Auto vars:     Size  Location     Type
;;		None
;; Return value:  Size  Location     Type
;;		None               void
;; Registers used:
;;		wreg, status,2, status,0, btemp+1, pclath, cstack
;; Tracked objects:
;;		On entry : 17F/0
;;		On exit  : 0/0
;;		Unchanged: 0/0
;; Data sizes:     COMMON   BANK0   BANK1   BANK3   BANK2
;;      Params:         0       0       0       0       0
;;      Locals:         0       0       0       0       0
;;      Temps:          0       1       0       0       0
;;      Totals:         0       1       0       0       0
;;Total ram usage:        1 bytes
;; Hardware stack levels required when called:    5
;; This function calls:
;;		_lcd_cmd
;;		_delay
;; This function is called by:
;;		Startup code after reset
;; This function uses a non-reentrant model
;;
psect	maintext
	file	"D:\Embedded\pic\code\software\interrupt\Serial_interrupt\Serial_interrupt.c"
	line	16
	global	__size_of_main
	__size_of_main	equ	__end_of_main-_main
	
_main:	
	opt	stack 3
; Regs used in _main: [wreg+status,2+status,0+btemp+1+pclath+cstack]
	line	17
	
l2318:	
;Serial_interrupt.c: 17: PORTC=0X00;
	bcf	status, 5	;RP0=0, select bank0
	bcf	status, 6	;RP1=0, select bank0
	clrf	(7)	;volatile
	line	18
	
l2320:	
;Serial_interrupt.c: 18: TRISC=0X80;
	movlw	(080h)
	bsf	status, 5	;RP0=1, select bank1
	bcf	status, 6	;RP1=0, select bank1
	movwf	(135)^080h	;volatile
	line	19
	
l2322:	
;Serial_interrupt.c: 19: PORTE=0X00;
	bcf	status, 5	;RP0=0, select bank0
	bcf	status, 6	;RP1=0, select bank0
	clrf	(9)	;volatile
	line	20
	
l2324:	
;Serial_interrupt.c: 20: TRISE=0X00;
	bsf	status, 5	;RP0=1, select bank1
	bcf	status, 6	;RP1=0, select bank1
	clrf	(137)^080h	;volatile
	line	21
	
l2326:	
;Serial_interrupt.c: 21: PORTD=0X00;
	bcf	status, 5	;RP0=0, select bank0
	bcf	status, 6	;RP1=0, select bank0
	clrf	(8)	;volatile
	line	22
	
l2328:	
;Serial_interrupt.c: 22: TRISD=0X00;
	bsf	status, 5	;RP0=1, select bank1
	bcf	status, 6	;RP1=0, select bank1
	clrf	(136)^080h	;volatile
	line	23
	
l2330:	
;Serial_interrupt.c: 23: ANSEL=0X00;
	bsf	status, 5	;RP0=1, select bank3
	bsf	status, 6	;RP1=1, select bank3
	clrf	(392)^0180h	;volatile
	line	24
	
l2332:	
;Serial_interrupt.c: 24: ANSELH=0X00;
	clrf	(393)^0180h	;volatile
	line	25
	
l2334:	
;Serial_interrupt.c: 25: TXSTA=0X26;
	movlw	(026h)
	bsf	status, 5	;RP0=1, select bank1
	bcf	status, 6	;RP1=0, select bank1
	movwf	(152)^080h	;volatile
	line	26
	
l2336:	
;Serial_interrupt.c: 26: RCSTA=0X90;
	movlw	(090h)
	bcf	status, 5	;RP0=0, select bank0
	bcf	status, 6	;RP1=0, select bank0
	movwf	(24)	;volatile
	line	27
	
l2338:	
;Serial_interrupt.c: 27: SPBRG=25;
	movlw	(019h)
	bsf	status, 5	;RP0=1, select bank1
	bcf	status, 6	;RP1=0, select bank1
	movwf	(153)^080h	;volatile
	line	28
	
l2340:	
;Serial_interrupt.c: 28: lcd_cmd(0,0,0X38);
	bcf	status, 5	;RP0=0, select bank0
	bcf	status, 6	;RP1=0, select bank0
	clrf	(?_lcd_cmd)
	movlw	(038h)
	movwf	(??_main+0)+0
	movf	(??_main+0)+0,w
	movwf	0+(?_lcd_cmd)+01h
	movlw	(0)
	fcall	_lcd_cmd
	line	29
	
l2342:	
;Serial_interrupt.c: 29: lcd_cmd(0,0,0X0F);
	bcf	status, 5	;RP0=0, select bank0
	bcf	status, 6	;RP1=0, select bank0
	clrf	(?_lcd_cmd)
	movlw	(0Fh)
	movwf	(??_main+0)+0
	movf	(??_main+0)+0,w
	movwf	0+(?_lcd_cmd)+01h
	movlw	(0)
	fcall	_lcd_cmd
	line	30
	
l2344:	
;Serial_interrupt.c: 30: lcd_cmd(0,0,0X80);
	bcf	status, 5	;RP0=0, select bank0
	bcf	status, 6	;RP1=0, select bank0
	clrf	(?_lcd_cmd)
	movlw	(080h)
	movwf	(??_main+0)+0
	movf	(??_main+0)+0,w
	movwf	0+(?_lcd_cmd)+01h
	movlw	(0)
	fcall	_lcd_cmd
	line	31
	
l2346:	
;Serial_interrupt.c: 31: INTCON=0XC0;
	movlw	(0C0h)
	movwf	(11)	;volatile
	line	32
	
l2348:	
;Serial_interrupt.c: 32: PIE1=0X20;
	movlw	(020h)
	bsf	status, 5	;RP0=1, select bank1
	bcf	status, 6	;RP1=0, select bank1
	movwf	(140)^080h	;volatile
	line	33
	
l2350:	
;Serial_interrupt.c: 33: PIR1=0X20;
	movlw	(020h)
	bcf	status, 5	;RP0=0, select bank0
	bcf	status, 6	;RP1=0, select bank0
	movwf	(12)	;volatile
	goto	l2352
	line	34
;Serial_interrupt.c: 34: while(1)
	
l1042:	
	line	36
	
l2352:	
;Serial_interrupt.c: 35: {
;Serial_interrupt.c: 36: for(i=0;i<5;i++)
	bcf	status, 5	;RP0=0, select bank0
	bcf	status, 6	;RP1=0, select bank0
	clrf	(_i)
	clrf	(_i+1)
	
l2354:	
	movf	(_i+1),w
	xorlw	80h
	movwf	btemp+1
	movlw	(high(05h))^80h
	subwf	btemp+1,w
	skipz
	goto	u2435
	movlw	low(05h)
	subwf	(_i),w
u2435:

	skipc
	goto	u2431
	goto	u2430
u2431:
	goto	l1043
u2430:
	goto	l2352
	
l2356:	
	goto	l2352
	line	37
	
l1043:	
	line	38
;Serial_interrupt.c: 37: {
;Serial_interrupt.c: 38: RC0=1;
	bcf	status, 5	;RP0=0, select bank0
	bcf	status, 6	;RP1=0, select bank0
	bsf	(56/8),(56)&7
	line	39
	
l2358:	
;Serial_interrupt.c: 39: delay(5000);
	movlw	low(01388h)
	movwf	(?_delay)
	movlw	high(01388h)
	movwf	((?_delay))+1
	fcall	_delay
	line	40
	
l2360:	
;Serial_interrupt.c: 40: RC0=0;
	bcf	status, 5	;RP0=0, select bank0
	bcf	status, 6	;RP1=0, select bank0
	bcf	(56/8),(56)&7
	line	41
;Serial_interrupt.c: 41: delay(5000);
	movlw	low(01388h)
	movwf	(?_delay)
	movlw	high(01388h)
	movwf	((?_delay))+1
	fcall	_delay
	line	36
	
l2362:	
	movlw	low(01h)
	bcf	status, 5	;RP0=0, select bank0
	bcf	status, 6	;RP1=0, select bank0
	addwf	(_i),f
	skipnc
	incf	(_i+1),f
	movlw	high(01h)
	addwf	(_i+1),f
	
l2364:	
	movf	(_i+1),w
	xorlw	80h
	movwf	btemp+1
	movlw	(high(05h))^80h
	subwf	btemp+1,w
	skipz
	goto	u2445
	movlw	low(05h)
	subwf	(_i),w
u2445:

	skipc
	goto	u2441
	goto	u2440
u2441:
	goto	l1043
u2440:
	goto	l2352
	
l1044:	
	goto	l2352
	line	44
	
l1045:	
	line	34
	goto	l2352
	
l1046:	
	line	45
	
l1047:	
	global	start
	ljmp	start
	opt stack 0
GLOBAL	__end_of_main
	__end_of_main:
;; =============== function _main ends ============

	signat	_main,88
	global	_lcd_cmd
psect	text166,local,class=CODE,delta=2
global __ptext166
__ptext166:

;; *************** function _lcd_cmd *****************
;; Defined at:
;;		line 10 in file "D:\Embedded\pic\code\software\interrupt\Serial_interrupt\lcd.h"
;; Parameters:    Size  Location     Type
;;  a               1    wreg     unsigned char 
;;  b               1    2[BANK0 ] unsigned char 
;;  c               1    3[BANK0 ] unsigned char 
;; Auto vars:     Size  Location     Type
;;  a               1    4[BANK0 ] unsigned char 
;; Return value:  Size  Location     Type
;;		None               void
;; Registers used:
;;		wreg, status,2, status,0, pclath, cstack
;; Tracked objects:
;;		On entry : 0/0
;;		On exit  : 0/0
;;		Unchanged: 0/0
;; Data sizes:     COMMON   BANK0   BANK1   BANK3   BANK2
;;      Params:         0       2       0       0       0
;;      Locals:         0       1       0       0       0
;;      Temps:          0       0       0       0       0
;;      Totals:         0       3       0       0       0
;;Total ram usage:        3 bytes
;; Hardware stack levels used:    1
;; Hardware stack levels required when called:    4
;; This function calls:
;;		_delay
;; This function is called by:
;;		_main
;; This function uses a non-reentrant model
;;
psect	text166
	file	"D:\Embedded\pic\code\software\interrupt\Serial_interrupt\lcd.h"
	line	10
	global	__size_of_lcd_cmd
	__size_of_lcd_cmd	equ	__end_of_lcd_cmd-_lcd_cmd
	
_lcd_cmd:	
	opt	stack 3
; Regs used in _lcd_cmd: [wreg+status,2+status,0+pclath+cstack]
;lcd_cmd@a stored from wreg
	bcf	status, 5	;RP0=0, select bank0
	bcf	status, 6	;RP1=0, select bank0
	movwf	(lcd_cmd@a)
	line	11
	
l2306:	
;lcd.h: 11: RE0=a;
	btfsc	(lcd_cmd@a),0
	goto	u2391
	goto	u2390
	
u2391:
	bcf	status, 5	;RP0=0, select bank0
	bcf	status, 6	;RP1=0, select bank0
	bsf	(72/8),(72)&7
	goto	u2404
u2390:
	bcf	status, 5	;RP0=0, select bank0
	bcf	status, 6	;RP1=0, select bank0
	bcf	(72/8),(72)&7
u2404:
	line	12
;lcd.h: 12: RE1=b;
	btfsc	(lcd_cmd@b),0
	goto	u2411
	goto	u2410
	
u2411:
	bcf	status, 5	;RP0=0, select bank0
	bcf	status, 6	;RP1=0, select bank0
	bsf	(73/8),(73)&7
	goto	u2424
u2410:
	bcf	status, 5	;RP0=0, select bank0
	bcf	status, 6	;RP1=0, select bank0
	bcf	(73/8),(73)&7
u2424:
	line	13
	
l2308:	
;lcd.h: 13: PORTD=c;
	movf	(lcd_cmd@c),w
	movwf	(8)	;volatile
	line	14
	
l2310:	
;lcd.h: 14: RE2=1;
	bsf	(74/8),(74)&7
	line	15
	
l2312:	
;lcd.h: 15: delay(1000);
	movlw	low(03E8h)
	movwf	(?_delay)
	movlw	high(03E8h)
	movwf	((?_delay))+1
	fcall	_delay
	line	16
	
l2314:	
;lcd.h: 16: RE2=0;
	bcf	status, 5	;RP0=0, select bank0
	bcf	status, 6	;RP1=0, select bank0
	bcf	(74/8),(74)&7
	line	17
	
l2316:	
;lcd.h: 17: delay(1000);
	movlw	low(03E8h)
	movwf	(?_delay)
	movlw	high(03E8h)
	movwf	((?_delay))+1
	fcall	_delay
	line	18
	
l1033:	
	return
	opt stack 0
GLOBAL	__end_of_lcd_cmd
	__end_of_lcd_cmd:
;; =============== function _lcd_cmd ends ============

	signat	_lcd_cmd,12408
	global	_delay
psect	text167,local,class=CODE,delta=2
global __ptext167
__ptext167:

;; *************** function _delay *****************
;; Defined at:
;;		line 6 in file "D:\Embedded\pic\code\software\interrupt\Serial_interrupt\lcd.h"
;; Parameters:    Size  Location     Type
;;  ms              2    0[BANK0 ] unsigned int 
;; Auto vars:     Size  Location     Type
;;		None
;; Return value:  Size  Location     Type
;;		None               void
;; Registers used:
;;		wreg
;; Tracked objects:
;;		On entry : 0/0
;;		On exit  : 0/0
;;		Unchanged: 0/0
;; Data sizes:     COMMON   BANK0   BANK1   BANK3   BANK2
;;      Params:         0       2       0       0       0
;;      Locals:         0       0       0       0       0
;;      Temps:          0       0       0       0       0
;;      Totals:         0       2       0       0       0
;;Total ram usage:        2 bytes
;; Hardware stack levels used:    1
;; Hardware stack levels required when called:    3
;; This function calls:
;;		Nothing
;; This function is called by:
;;		_lcd_cmd
;;		_main
;; This function uses a non-reentrant model
;;
psect	text167
	file	"D:\Embedded\pic\code\software\interrupt\Serial_interrupt\lcd.h"
	line	6
	global	__size_of_delay
	__size_of_delay	equ	__end_of_delay-_delay
	
_delay:	
	opt	stack 4
; Regs used in _delay: [wreg]
	line	7
	
l2282:	
;lcd.h: 7: while(ms--);
	goto	l2284
	
l1028:	
	goto	l2284
	
l1027:	
	
l2284:	
	movlw	low(01h)
	bcf	status, 5	;RP0=0, select bank0
	bcf	status, 6	;RP1=0, select bank0
	subwf	(delay@ms),f
	movlw	high(01h)
	skipc
	decf	(delay@ms+1),f
	subwf	(delay@ms+1),f
	movlw	high(0FFFFh)
	xorwf	((delay@ms+1)),w
	skipz
	goto	u2325
	movlw	low(0FFFFh)
	xorwf	((delay@ms)),w
u2325:

	skipz
	goto	u2321
	goto	u2320
u2321:
	goto	l2284
u2320:
	goto	l1030
	
l1029:	
	line	8
	
l1030:	
	return
	opt stack 0
GLOBAL	__end_of_delay
	__end_of_delay:
;; =============== function _delay ends ============

	signat	_delay,4216
	global	_ext
psect	text168,local,class=CODE,delta=2
global __ptext168
__ptext168:

;; *************** function _ext *****************
;; Defined at:
;;		line 8 in file "D:\Embedded\pic\code\software\interrupt\Serial_interrupt\Serial_interrupt.c"
;; Parameters:    Size  Location     Type
;;		None
;; Auto vars:     Size  Location     Type
;;  data            1   10[COMMON] unsigned char 
;; Return value:  Size  Location     Type
;;		None               void
;; Registers used:
;;		wreg, status,2, status,0, pclath, cstack
;; Tracked objects:
;;		On entry : 0/0
;;		On exit  : 0/0
;;		Unchanged: 0/0
;; Data sizes:     COMMON   BANK0   BANK1   BANK3   BANK2
;;      Params:         0       0       0       0       0
;;      Locals:         1       0       0       0       0
;;      Temps:          5       0       0       0       0
;;      Totals:         6       0       0       0       0
;;Total ram usage:        6 bytes
;; Hardware stack levels used:    1
;; Hardware stack levels required when called:    2
;; This function calls:
;;		i1_lcd_cmd
;; This function is called by:
;;		Interrupt level 1
;; This function uses a non-reentrant model
;;
psect	text168
	file	"D:\Embedded\pic\code\software\interrupt\Serial_interrupt\Serial_interrupt.c"
	global	__size_of_ext
	__size_of_ext	equ	__end_of_ext-_ext
	
_ext:	
	opt	stack 3
; Regs used in _ext: [wreg+status,2+status,0+pclath+cstack]
psect	intentry,class=CODE,delta=2
global __pintentry
__pintentry:
global interrupt_function
interrupt_function:
	global saved_w
	saved_w	set	btemp+0
	movwf	saved_w
	swapf	status,w
	movwf	(??_ext+1)
	movf	fsr0,w
	movwf	(??_ext+2)
	movf	pclath,w
	movwf	(??_ext+3)
	bcf	status, 5	;RP0=0, select bank0
	bcf	status, 6	;RP1=0, select bank0
	movf	btemp+1,w
	movwf	(??_ext+4)
	ljmp	_ext
psect	text168
	line	10
	
i1l2286:	
;Serial_interrupt.c: 9: char data;
;Serial_interrupt.c: 10: data=RCREG;
	movf	(26),w	;volatile
	movwf	(??_ext+0)+0
	movf	(??_ext+0)+0,w
	movwf	(ext@data)
	line	11
;Serial_interrupt.c: 11: while(RCIF==0);
	goto	i1l1036
	
i1l1037:	
	
i1l1036:	
	btfss	(101/8),(101)&7
	goto	u233_21
	goto	u233_20
u233_21:
	goto	i1l1036
u233_20:
	
i1l1038:	
	line	12
;Serial_interrupt.c: 12: RCIF=0;
	bcf	(101/8),(101)&7
	line	13
	
i1l2288:	
;Serial_interrupt.c: 13: lcd_cmd(1,0,data);
	clrf	(?i1_lcd_cmd)
	movf	(ext@data),w
	movwf	(??_ext+0)+0
	movf	(??_ext+0)+0,w
	movwf	0+(?i1_lcd_cmd)+01h
	movlw	(01h)
	fcall	i1_lcd_cmd
	line	14
	
i1l1039:	
	movf	(??_ext+4),w
	bcf	status, 5	;RP0=0, select bank0
	bcf	status, 6	;RP1=0, select bank0
	movwf	btemp+1
	movf	(??_ext+3),w
	movwf	pclath
	movf	(??_ext+2),w
	movwf	fsr0
	swapf	(??_ext+1)^0FFFFFF80h,w
	movwf	status
	swapf	saved_w,f
	swapf	saved_w,w
	retfie
	opt stack 0
GLOBAL	__end_of_ext
	__end_of_ext:
;; =============== function _ext ends ============

	signat	_ext,88
	global	i1_lcd_cmd
psect	text169,local,class=CODE,delta=2
global __ptext169
__ptext169:

;; *************** function i1_lcd_cmd *****************
;; Defined at:
;;		line 10 in file "D:\Embedded\pic\code\software\interrupt\Serial_interrupt\lcd.h"
;; Parameters:    Size  Location     Type
;;  lcd_cmd         1    wreg     unsigned char 
;;  lcd_cmd         1    2[COMMON] unsigned char 
;;  lcd_cmd         1    3[COMMON] unsigned char 
;; Auto vars:     Size  Location     Type
;;  lcd_cmd         1    4[COMMON] unsigned char 
;; Return value:  Size  Location     Type
;;		None               void
;; Registers used:
;;		wreg, status,2, status,0, pclath, cstack
;; Tracked objects:
;;		On entry : 0/0
;;		On exit  : 0/0
;;		Unchanged: 0/0
;; Data sizes:     COMMON   BANK0   BANK1   BANK3   BANK2
;;      Params:         2       0       0       0       0
;;      Locals:         1       0       0       0       0
;;      Temps:          0       0       0       0       0
;;      Totals:         3       0       0       0       0
;;Total ram usage:        3 bytes
;; Hardware stack levels used:    1
;; Hardware stack levels required when called:    1
;; This function calls:
;;		i1_delay
;; This function is called by:
;;		_ext
;; This function uses a non-reentrant model
;;
psect	text169
	file	"D:\Embedded\pic\code\software\interrupt\Serial_interrupt\lcd.h"
	line	10
	global	__size_ofi1_lcd_cmd
	__size_ofi1_lcd_cmd	equ	__end_ofi1_lcd_cmd-i1_lcd_cmd
	
i1_lcd_cmd:	
	opt	stack 3
; Regs used in i1_lcd_cmd: [wreg+status,2+status,0+pclath+cstack]
;i1lcd_cmd@a stored from wreg
	movwf	(i1lcd_cmd@a)
	line	11
	
i1l2294:	
;lcd.h: 11: RE0=a;
	btfsc	(i1lcd_cmd@a),0
	goto	u235_21
	goto	u235_20
	
u235_21:
	bcf	status, 5	;RP0=0, select bank0
	bcf	status, 6	;RP1=0, select bank0
	bsf	(72/8),(72)&7
	goto	u236_24
u235_20:
	bcf	status, 5	;RP0=0, select bank0
	bcf	status, 6	;RP1=0, select bank0
	bcf	(72/8),(72)&7
u236_24:
	line	12
;lcd.h: 12: RE1=b;
	btfsc	(i1lcd_cmd@b),0
	goto	u237_21
	goto	u237_20
	
u237_21:
	bcf	status, 5	;RP0=0, select bank0
	bcf	status, 6	;RP1=0, select bank0
	bsf	(73/8),(73)&7
	goto	u238_24
u237_20:
	bcf	status, 5	;RP0=0, select bank0
	bcf	status, 6	;RP1=0, select bank0
	bcf	(73/8),(73)&7
u238_24:
	line	13
	
i1l2296:	
;lcd.h: 13: PORTD=c;
	movf	(i1lcd_cmd@c),w
	movwf	(8)	;volatile
	line	14
	
i1l2298:	
;lcd.h: 14: RE2=1;
	bsf	(74/8),(74)&7
	line	15
	
i1l2300:	
;lcd.h: 15: delay(1000);
	movlw	low(03E8h)
	movwf	(?i1_delay)
	movlw	high(03E8h)
	movwf	((?i1_delay))+1
	fcall	i1_delay
	line	16
	
i1l2302:	
;lcd.h: 16: RE2=0;
	bcf	status, 5	;RP0=0, select bank0
	bcf	status, 6	;RP1=0, select bank0
	bcf	(74/8),(74)&7
	line	17
	
i1l2304:	
;lcd.h: 17: delay(1000);
	movlw	low(03E8h)
	movwf	(?i1_delay)
	movlw	high(03E8h)
	movwf	((?i1_delay))+1
	fcall	i1_delay
	line	18
	
i1l1033:	
	return
	opt stack 0
GLOBAL	__end_ofi1_lcd_cmd
	__end_ofi1_lcd_cmd:
;; =============== function i1_lcd_cmd ends ============

	signat	i1_lcd_cmd,88
	global	i1_delay
psect	text170,local,class=CODE,delta=2
global __ptext170
__ptext170:

;; *************** function i1_delay *****************
;; Defined at:
;;		line 6 in file "D:\Embedded\pic\code\software\interrupt\Serial_interrupt\lcd.h"
;; Parameters:    Size  Location     Type
;;  delay           2    0[COMMON] unsigned int 
;; Auto vars:     Size  Location     Type
;;		None
;; Return value:  Size  Location     Type
;;		None               void
;; Registers used:
;;		wreg
;; Tracked objects:
;;		On entry : 0/0
;;		On exit  : 0/0
;;		Unchanged: 0/0
;; Data sizes:     COMMON   BANK0   BANK1   BANK3   BANK2
;;      Params:         2       0       0       0       0
;;      Locals:         0       0       0       0       0
;;      Temps:          0       0       0       0       0
;;      Totals:         2       0       0       0       0
;;Total ram usage:        2 bytes
;; Hardware stack levels used:    1
;; This function calls:
;;		Nothing
;; This function is called by:
;;		i1_lcd_cmd
;; This function uses a non-reentrant model
;;
psect	text170
	file	"D:\Embedded\pic\code\software\interrupt\Serial_interrupt\lcd.h"
	line	6
	global	__size_ofi1_delay
	__size_ofi1_delay	equ	__end_ofi1_delay-i1_delay
	
i1_delay:	
	opt	stack 3
; Regs used in i1_delay: [wreg]
	line	7
	
i1l2290:	
;lcd.h: 7: while(ms--);
	goto	i1l2292
	
i1l1028:	
	goto	i1l2292
	
i1l1027:	
	
i1l2292:	
	movlw	low(01h)
	subwf	(i1delay@ms),f
	movlw	high(01h)
	skipc
	decf	(i1delay@ms+1),f
	subwf	(i1delay@ms+1),f
	movlw	high(0FFFFh)
	xorwf	((i1delay@ms+1)),w
	skipz
	goto	u234_25
	movlw	low(0FFFFh)
	xorwf	((i1delay@ms)),w
u234_25:

	skipz
	goto	u234_21
	goto	u234_20
u234_21:
	goto	i1l2292
u234_20:
	goto	i1l1030
	
i1l1029:	
	line	8
	
i1l1030:	
	return
	opt stack 0
GLOBAL	__end_ofi1_delay
	__end_ofi1_delay:
;; =============== function i1_delay ends ============

	signat	i1_delay,88
psect	text171,local,class=CODE,delta=2
global __ptext171
__ptext171:
	global	btemp
	btemp set 07Eh

	DABS	1,126,2	;btemp
	global	wtemp0
	wtemp0 set btemp
	end
