

HI-TECH Software PIC LITE Macro Assembler V9.81 build 7503 
                                                                                               Thu Jul 14 04:00:30 2022

HI-TECH Software Omniscient Code Generator (Lite mode) build 7503
     1  0000                     opt subtitle "HI-TECH Software Omniscient Code Generator (Lite mode) build 7503"
     2                           
     3                           opt pagewidth 120
     4                           
     5                           	opt lm
     6                           
     7                           	processor	16F886
     8                           clrc	macro
     9                           	bcf	3,0
    10  0000                     	endm
    11                           clrz	macro
    12                           	bcf	3,2
    13  0000                     	endm
    14                           setc	macro
    15                           	bsf	3,0
    16  0000                     	endm
    17                           setz	macro
    18                           	bsf	3,2
    19  0000                     	endm
    20                           skipc	macro
    21                           	btfss	3,0
    22  0000                     	endm
    23                           skipz	macro
    24                           	btfss	3,2
    25  0000                     	endm
    26                           skipnc	macro
    27                           	btfsc	3,0
    28  0000                     	endm
    29                           skipnz	macro
    30                           	btfsc	3,2
    31  0000                     	endm
    32  0000                     indf	equ	0
    33  0000                     indf0	equ	0
    34  0002                     pc	equ	2
    35  0002                     pcl	equ	2
    36  0003                     status	equ	3
    37  0004                     fsr	equ	4
    38  0004                     fsr0	equ	4
    39  0001                     c	equ	1
    40  0000                     z	equ	0
    41  000A                     pclath	equ	10
    42                           	FNCALL	_main,_lcd_cmd
    43                           	FNCALL	_main,_eeprom_read
    44                           	FNCALL	_main,_adc
    45                           	FNCALL	_main,___awdiv
    46                           	FNCALL	_main,___awmod
    47                           	FNCALL	_main,_string
    48                           	FNCALL	_main,_delay
    49                           	FNCALL	_main,_I2C_Start
    50                           	FNCALL	_main,_I2C_Slave
    51                           	FNCALL	_main,_I2C_Restart
    52                           	FNCALL	_main,_I2C_Read
    53                           	FNCALL	_main,_I2C_Stop
    54                           	FNCALL	_main,_conversion
    55                           	FNCALL	_main,_Gate_Siren
    56                           	FNCALL	_main,_Generator_run
    57                           	FNCALL	_main,_gsm
    58                           	FNCALL	_adc,_lcd_cmd
    59                           	FNCALL	_adc,_string
    60                           	FNCALL	_adc,___awtoft
    61                           	FNCALL	_adc,___ftmul
    62                           	FNCALL	_adc,___fttol
    63                           	FNCALL	_adc,___awdiv
    64                           	FNCALL	_adc,___awmod
    65                           	FNCALL	_adc,_gsm
    66                           	FNCALL	_adc,_delay
    67                           	FNCALL	_Generator_run,_lcd_cmd
    68                           	FNCALL	_Generator_run,_string
    69                           	FNCALL	_Generator_run,___awdiv
    70                           	FNCALL	_Generator_run,___awmod
    71                           	FNCALL	_Generator_run,_delay
    72                           	FNCALL	_Generator_run,_eeprom_write
    73                           	FNCALL	_conversion,_lcd_cmd
    74                           	FNCALL	_conversion,_string
    75                           	FNCALL	_gsm,_trans
    76                           	FNCALL	_gsm,_new
    77                           	FNCALL	_gsm,_delay
    78                           	FNCALL	_gsm,_tran
    79                           	FNCALL	_string,_lcd_cmd
    80                           	FNCALL	_new,_tran
    81                           	FNCALL	_lcd_cmd,_pulse
    82                           	FNCALL	___awtoft,___ftpack
    83                           	FNCALL	___ftmul,___ftpack
    84                           	FNCALL	_tran,_delay
    85                           	FNCALL	_trans,_delay
    86                           	FNCALL	_Gate_Siren,_delay
    87                           	FNCALL	_I2C_Restart,_hold
    88                           	FNCALL	_I2C_Slave,_hold
    89                           	FNCALL	_I2C_Stop,_hold
    90                           	FNCALL	_I2C_Start,_hold
    91                           	FNCALL	_pulse,_delay
    92                           	FNROOT	_main
    93                           	global	_stop
    94                           psect	idataBANK0,class=CODE,space=0,delta=2
    95                           global __pidataBANK0
    96  0005                     __pidataBANK0:
    97                           	file	"D:\Embedded\pic\code\Indu886.c"
    98                           	line	23
    99                           
   100                           ;initializer for _stop
   101  0005  346D               	retlw	06Dh
   102                           	global	_flag1
   103                           	global	_flag_supply
   104                           	global	_retain
   105                           	global	_variable
   106                           	global	_i
   107                           	global	_Generator
   108                           	global	_flag2
   109                           	global	_store
   110                           	global	_read
   111                           	global	_ADCON0
   112  001F                     _ADCON0	set	31
   113                           	global	_ADRESH
   114  001E                     _ADRESH	set	30
   115                           	global	_PORTA
   116  0005                     _PORTA	set	5
   117                           	global	_PORTB
   118  0006                     _PORTB	set	6
   119                           	global	_PORTC
   120  0007                     _PORTC	set	7
   121                           	global	_RCSTA
   122  0018                     _RCSTA	set	24
   123                           	global	_SSPBUF
   124  0013                     _SSPBUF	set	19
   125                           	global	_SSPCON
   126  0014                     _SSPCON	set	20
   127                           	global	_TXREG
   128  0019                     _TXREG	set	25
   129                           	global	_CARRY
   130  0018                     _CARRY	set	24
   131                           	global	_GIE
   132  005F                     _GIE	set	95
   133                           	global	_RA0
   134  0028                     _RA0	set	40
   135                           	global	_RA1
   136  0029                     _RA1	set	41
   137                           	global	_RA2
   138  002A                     _RA2	set	42
   139                           	global	_RA3
   140  002B                     _RA3	set	43
   141                           	global	_RA4
   142  002C                     _RA4	set	44
   143                           	global	_RB1
   144  0031                     _RB1	set	49
   145                           	global	_RB2
   146  0032                     _RB2	set	50
   147                           	global	_RB3
   148  0033                     _RB3	set	51
   149                           	global	_RC0
   150  0038                     _RC0	set	56
   151                           	global	_RC1
   152  0039                     _RC1	set	57
   153                           	global	_RC2
   154  003A                     _RC2	set	58
   155                           	global	_RC5
   156  003D                     _RC5	set	61
   157                           	global	_SSPIF
   158  0063                     _SSPIF	set	99
   159                           	global	_SSPOV
   160  00A6                     _SSPOV	set	166
   161                           	global	_TXIF
   162  0064                     _TXIF	set	100
   163                           	global	_ADCON1
   164  009F                     _ADCON1	set	159
   165                           	global	_ADRESL
   166  009E                     _ADRESL	set	158
   167                           	global	_SPBRG
   168  0099                     _SPBRG	set	153
   169                           	global	_TRISA
   170  0085                     _TRISA	set	133
   171                           	global	_TRISB
   172  0086                     _TRISB	set	134
   173                           	global	_TRISC
   174  0087                     _TRISC	set	135
   175                           	global	_TXSTA
   176  0098                     _TXSTA	set	152
   177                           	global	_ACKDT
   178  048D                     _ACKDT	set	1165
   179                           	global	_ACKEN
   180  048C                     _ACKEN	set	1164
   181                           	global	_ACKSTAT
   182  048E                     _ACKSTAT	set	1166
   183                           	global	_BF
   184  04A0                     _BF	set	1184
   185                           	global	_PEN
   186  048A                     _PEN	set	1162
   187                           	global	_RCEN
   188  048B                     _RCEN	set	1163
   189                           	global	_RSEN
   190  0489                     _RSEN	set	1161
   191                           	global	_SEN
   192  0488                     _SEN	set	1160
   193                           	global	_SMP
   194  04A7                     _SMP	set	1191
   195                           	global	_EEADR
   196  010D                     _EEADR	set	269
   197                           	global	_EEDATA
   198  010C                     _EEDATA	set	268
   199                           	global	_ANSEL
   200  0188                     _ANSEL	set	392
   201                           	global	_ANSELH
   202  0189                     _ANSELH	set	393
   203                           	global	_EECON1
   204  018C                     _EECON1	set	396
   205                           	global	_EECON2
   206  018D                     _EECON2	set	397
   207                           	global	_RD
   208  0C60                     _RD	set	3168
   209                           	global	_WR
   210  0C61                     _WR	set	3169
   211                           	global	_WREN
   212  0C62                     _WREN	set	3170
   213                           psect	strings,class=STRING,delta=2
   214                           global __pstrings
   215  0910                     __pstrings:
   216                           ;	global	stringtab,__stringbase
   217  0910                     stringtab:
   218                           ;	String table - string pointers are 2 bytes each
   219  0910  1BFF               	btfsc	(btemp+1),7
   220  0911  291A               	ljmp	stringcode
   221  0912  1383               	bcf	status,7
   222  0913  187F               	btfsc	(btemp+1),0
   223  0914  1783               	bsf	status,7
   224  0915  0800               	movf	indf,w
   225  0916  0A84               	incf fsr
   226  0917  1903               skipnz
   227  0918  0AFF               incf btemp+1
   228  0919  0008               	return
   229  091A                     stringcode:
   230  091A  087F               	movf btemp+1,w
   231  091B  397F               andlw 7Fh
   232  091C  008A               movwf	pclath
   233  091D  0804               	movf	fsr,w
   234  091E  0A84               incf fsr
   235  091F  1903               skipnz
   236  0920  0AFF               incf btemp+1
   237  0921  0082               	movwf pc
   238  0922                     __stringbase:
   239                           psect	stringtext,class=STRCODE,delta=2,reloc=256
   240                           global __pstringtext
   241  0800                     __pstringtext:
   242                           	
   243  0800                     STR_8:	
   244  0800  3454               	retlw	84	;'T'
   245  0801  3468               	retlw	104	;'h'
   246  0802  3469               	retlw	105	;'i'
   247  0803  3473               	retlw	115	;'s'
   248  0804  3420               	retlw	32	;' '
   249  0805  3461               	retlw	97	;'a'
   250  0806  346E               	retlw	110	;'n'
   251  0807  3420               	retlw	32	;' '
   252  0808  3465               	retlw	101	;'e'
   253  0809  346D               	retlw	109	;'m'
   254  080A  3465               	retlw	101	;'e'
   255  080B  3472               	retlw	114	;'r'
   256  080C  3467               	retlw	103	;'g'
   257  080D  3465               	retlw	101	;'e'
   258  080E  346E               	retlw	110	;'n'
   259  080F  3463               	retlw	99	;'c'
   260  0810  3479               	retlw	121	;'y'
   261  0811  3420               	retlw	32	;' '
   262  0812  3464               	retlw	100	;'d'
   263  0813  3475               	retlw	117	;'u'
   264  0814  3465               	retlw	101	;'e'
   265  0815  3420               	retlw	32	;' '
   266  0816  3474               	retlw	116	;'t'
   267  0817  346F               	retlw	111	;'o'
   268  0818  3420               	retlw	32	;' '
   269  0819  3447               	retlw	71	;'G'
   270  081A  3465               	retlw	101	;'e'
   271  081B  346E               	retlw	110	;'n'
   272  081C  3465               	retlw	101	;'e'
   273  081D  3472               	retlw	114	;'r'
   274  081E  3461               	retlw	97	;'a'
   275  081F  3474               	retlw	116	;'t'
   276  0820  346F               	retlw	111	;'o'
   277  0821  3472               	retlw	114	;'r'
   278  0822  3420               	retlw	32	;' '
   279  0823  346F               	retlw	111	;'o'
   280  0824  3476               	retlw	118	;'v'
   281  0825  3465               	retlw	101	;'e'
   282  0826  3472               	retlw	114	;'r'
   283  0827  3468               	retlw	104	;'h'
   284  0828  3465               	retlw	101	;'e'
   285  0829  3461               	retlw	97	;'a'
   286  082A  3474               	retlw	116	;'t'
   287  082B  342E               	retlw	46	;'.'
   288  082C  3420               	retlw	32	;' '
   289  082D  3454               	retlw	84	;'T'
   290  082E  3461               	retlw	97	;'a'
   291  082F  346B               	retlw	107	;'k'
   292  0830  3465               	retlw	101	;'e'
   293  0831  3420               	retlw	32	;' '
   294  0832  3461               	retlw	97	;'a'
   295  0833  346E               	retlw	110	;'n'
   296  0834  3420               	retlw	32	;' '
   297  0835  3461               	retlw	97	;'a'
   298  0836  3463               	retlw	99	;'c'
   299  0837  3474               	retlw	116	;'t'
   300  0838  3469               	retlw	105	;'i'
   301  0839  346F               	retlw	111	;'o'
   302  083A  346E               	retlw	110	;'n'
   303  083B  342E               	retlw	46	;'.'
   304  083C  3400               	retlw	0
   305                           psect	stringtext
   306                           	
   307  083D                     STR_10:	
   308  083D  3447               	retlw	71	;'G'
   309  083E  3465               	retlw	101	;'e'
   310  083F  346E               	retlw	110	;'n'
   311  0840  3465               	retlw	101	;'e'
   312  0841  3472               	retlw	114	;'r'
   313  0842  3461               	retlw	97	;'a'
   314  0843  3474               	retlw	116	;'t'
   315  0844  346F               	retlw	111	;'o'
   316  0845  3472               	retlw	114	;'r'
   317  0846  3420               	retlw	32	;' '
   318  0847  3464               	retlw	100	;'d'
   319  0848  3469               	retlw	105	;'i'
   320  0849  3465               	retlw	101	;'e'
   321  084A  3473               	retlw	115	;'s'
   322  084B  3465               	retlw	101	;'e'
   323  084C  346C               	retlw	108	;'l'
   324  084D  3420               	retlw	32	;' '
   325  084E  3472               	retlw	114	;'r'
   326  084F  3465               	retlw	101	;'e'
   327  0850  3461               	retlw	97	;'a'
   328  0851  3463               	retlw	99	;'c'
   329  0852  3468               	retlw	104	;'h'
   330  0853  3465               	retlw	101	;'e'
   331  0854  3464               	retlw	100	;'d'
   332  0855  3420               	retlw	32	;' '
   333  0856  3476               	retlw	118	;'v'
   334  0857  3465               	retlw	101	;'e'
   335  0858  3472               	retlw	114	;'r'
   336  0859  3479               	retlw	121	;'y'
   337  085A  3420               	retlw	32	;' '
   338  085B  346C               	retlw	108	;'l'
   339  085C  346F               	retlw	111	;'o'
   340  085D  3477               	retlw	119	;'w'
   341  085E  3420               	retlw	32	;' '
   342  085F  346C               	retlw	108	;'l'
   343  0860  3465               	retlw	101	;'e'
   344  0861  3476               	retlw	118	;'v'
   345  0862  3465               	retlw	101	;'e'
   346  0863  346C               	retlw	108	;'l'
   347  0864  3420               	retlw	32	;' '
   348  0865  3430               	retlw	48	;'0'
   349  0866  342E               	retlw	46	;'.'
   350  0867  3435               	retlw	53	;'5'
   351  0868  3420               	retlw	32	;' '
   352  0869  346C               	retlw	108	;'l'
   353  086A  3469               	retlw	105	;'i'
   354  086B  3474               	retlw	116	;'t'
   355  086C  3465               	retlw	101	;'e'
   356  086D  3472               	retlw	114	;'r'
   357  086E  3400               	retlw	0
   358                           psect	stringtext
   359                           	
   360  086F                     STR_9:	
   361  086F  3447               	retlw	71	;'G'
   362  0870  3465               	retlw	101	;'e'
   363  0871  346E               	retlw	110	;'n'
   364  0872  3465               	retlw	101	;'e'
   365  0873  3472               	retlw	114	;'r'
   366  0874  3461               	retlw	97	;'a'
   367  0875  3474               	retlw	116	;'t'
   368  0876  346F               	retlw	111	;'o'
   369  0877  3472               	retlw	114	;'r'
   370  0878  3420               	retlw	32	;' '
   371  0879  3464               	retlw	100	;'d'
   372  087A  3469               	retlw	105	;'i'
   373  087B  3465               	retlw	101	;'e'
   374  087C  3473               	retlw	115	;'s'
   375  087D  3465               	retlw	101	;'e'
   376  087E  346C               	retlw	108	;'l'
   377  087F  3420               	retlw	32	;' '
   378  0880  3472               	retlw	114	;'r'
   379  0881  3465               	retlw	101	;'e'
   380  0882  3461               	retlw	97	;'a'
   381  0883  3463               	retlw	99	;'c'
   382  0884  3468               	retlw	104	;'h'
   383  0885  3465               	retlw	101	;'e'
   384  0886  3464               	retlw	100	;'d'
   385  0887  3420               	retlw	32	;' '
   386  0888  346C               	retlw	108	;'l'
   387  0889  346F               	retlw	111	;'o'
   388  088A  3477               	retlw	119	;'w'
   389  088B  3420               	retlw	32	;' '
   390  088C  346C               	retlw	108	;'l'
   391  088D  3465               	retlw	101	;'e'
   392  088E  3476               	retlw	118	;'v'
   393  088F  3465               	retlw	101	;'e'
   394  0890  346C               	retlw	108	;'l'
   395  0891  3420               	retlw	32	;' '
   396  0892  3431               	retlw	49	;'1'
   397  0893  3420               	retlw	32	;' '
   398  0894  346C               	retlw	108	;'l'
   399  0895  3469               	retlw	105	;'i'
   400  0896  3474               	retlw	116	;'t'
   401  0897  3465               	retlw	101	;'e'
   402  0898  3472               	retlw	114	;'r'
   403  0899  3400               	retlw	0
   404                           psect	stringtext
   405                           	
   406  089A                     STR_7:	
   407  089A  3441               	retlw	65	;'A'
   408  089B  3454               	retlw	84	;'T'
   409  089C  342B               	retlw	43	;'+'
   410  089D  3443               	retlw	67	;'C'
   411  089E  344D               	retlw	77	;'M'
   412  089F  3447               	retlw	71	;'G'
   413  08A0  3453               	retlw	83	;'S'
   414  08A1  343D               	retlw	61	;'='
   415  08A2  3422               	retlw	34	;'"'
   416  08A3  342B               	retlw	43	;'+'
   417  08A4  3439               	retlw	57	;'9'
   418  08A5  3431               	retlw	49	;'1'
   419  08A6  3439               	retlw	57	;'9'
   420  08A7  3435               	retlw	53	;'5'
   421  08A8  3436               	retlw	54	;'6'
   422  08A9  3436               	retlw	54	;'6'
   423  08AA  3435               	retlw	53	;'5'
   424  08AB  3431               	retlw	49	;'1'
   425  08AC  3431               	retlw	49	;'1'
   426  08AD  3434               	retlw	52	;'4'
   427  08AE  3438               	retlw	56	;'8'
   428  08AF  3436               	retlw	54	;'6'
   429  08B0  3422               	retlw	34	;'"'
   430  08B1  3400               	retlw	0
   431                           psect	stringtext
   432                           	
   433  08B2                     STR_4:	
   434  08B2  3420               	retlw	32	;' '
   435  08B3  3446               	retlw	70	;'F'
   436  08B4  3472               	retlw	114	;'r'
   437  08B5  346F               	retlw	111	;'o'
   438  08B6  346D               	retlw	109	;'m'
   439  08B7  3420               	retlw	32	;' '
   440  08B8  3445               	retlw	69	;'E'
   441  08B9  3442               	retlw	66	;'B'
   442  08BA  3420               	retlw	32	;' '
   443  08BB  3473               	retlw	115	;'s'
   444  08BC  3475               	retlw	117	;'u'
   445  08BD  3470               	retlw	112	;'p'
   446  08BE  3470               	retlw	112	;'p'
   447  08BF  346C               	retlw	108	;'l'
   448  08C0  3479               	retlw	121	;'y'
   449  08C1  3400               	retlw	0
   450                           psect	stringtext
   451                           	
   452  08C2                     STR_14:	
   453  08C2  3420               	retlw	32	;' '
   454  08C3  3450               	retlw	80	;'P'
   455  08C4  3472               	retlw	114	;'r'
   456  08C5  3465               	retlw	101	;'e'
   457  08C6  3476               	retlw	118	;'v'
   458  08C7  3469               	retlw	105	;'i'
   459  08C8  346F               	retlw	111	;'o'
   460  08C9  3475               	retlw	117	;'u'
   461  08CA  3473               	retlw	115	;'s'
   462  08CB  345F               	retlw	95	;'_'
   463  08CC  3472               	retlw	114	;'r'
   464  08CD  3475               	retlw	117	;'u'
   465  08CE  346E               	retlw	110	;'n'
   466  08CF  343A               	retlw	58	;':'
   467  08D0  3400               	retlw	0
   468                           psect	stringtext
   469                           	
   470  08D1                     STR_13:	
   471  08D1  3420               	retlw	32	;' '
   472  08D2  3447               	retlw	71	;'G'
   473  08D3  3465               	retlw	101	;'e'
   474  08D4  346E               	retlw	110	;'n'
   475  08D5  3465               	retlw	101	;'e'
   476  08D6  3472               	retlw	114	;'r'
   477  08D7  3461               	retlw	97	;'a'
   478  08D8  3474               	retlw	116	;'t'
   479  08D9  346F               	retlw	111	;'o'
   480  08DA  3472               	retlw	114	;'r'
   481  08DB  3420               	retlw	32	;' '
   482  08DC  344F               	retlw	79	;'O'
   483  08DD  346E               	retlw	110	;'n'
   484  08DE  3400               	retlw	0
   485                           psect	stringtext
   486                           	
   487  08DF                     STR_6:	
   488  08DF  3441               	retlw	65	;'A'
   489  08E0  3454               	retlw	84	;'T'
   490  08E1  342B               	retlw	43	;'+'
   491  08E2  3443               	retlw	67	;'C'
   492  08E3  344D               	retlw	77	;'M'
   493  08E4  3447               	retlw	71	;'G'
   494  08E5  3446               	retlw	70	;'F'
   495  08E6  343D               	retlw	61	;'='
   496  08E7  3431               	retlw	49	;'1'
   497  08E8  3400               	retlw	0
   498                           psect	stringtext
   499                           	
   500  08E9                     STR_1:	
   501  08E9  3474               	retlw	116	;'t'
   502  08EA  3469               	retlw	105	;'i'
   503  08EB  346D               	retlw	109	;'m'
   504  08EC  3465               	retlw	101	;'e'
   505  08ED  3420               	retlw	32	;' '
   506  08EE  3420               	retlw	32	;' '
   507  08EF  343A               	retlw	58	;':'
   508  08F0  3420               	retlw	32	;' '
   509  08F1  3400               	retlw	0
   510                           psect	stringtext
   511                           	
   512  08F2                     STR_2:	
   513  08F2  3447               	retlw	71	;'G'
   514  08F3  3465               	retlw	101	;'e'
   515  08F4  346E               	retlw	110	;'n'
   516  08F5  342E               	retlw	46	;'.'
   517  08F6  3472               	retlw	114	;'r'
   518  08F7  3475               	retlw	117	;'u'
   519  08F8  346E               	retlw	110	;'n'
   520  08F9  343A               	retlw	58	;':'
   521  08FA  3400               	retlw	0
   522                           psect	stringtext
   523                           	
   524  08FB                     STR_11:	
   525  08FB  3454               	retlw	84	;'T'
   526  08FC  3465               	retlw	101	;'e'
   527  08FD  346D               	retlw	109	;'m'
   528  08FE  3470               	retlw	112	;'p'
   529  08FF  343A               	retlw	58	;':'
   530  0900  3420               	retlw	32	;' '
   531  0901  3400               	retlw	0
   532                           psect	stringtext
   533                           	
   534  0902                     STR_15:	
   535  0902  342E               	retlw	46	;'.'
   536  0903  346D               	retlw	109	;'m'
   537  0904  3469               	retlw	105	;'i'
   538  0905  346E               	retlw	110	;'n'
   539  0906  3473               	retlw	115	;'s'
   540  0907  3400               	retlw	0
   541                           psect	stringtext
   542                           	
   543  0908                     STR_3:	
   544  0908  342E               	retlw	46	;'.'
   545  0909  346D               	retlw	109	;'m'
   546  090A  3469               	retlw	105	;'i'
   547  090B  346E               	retlw	110	;'n'
   548  090C  3400               	retlw	0
   549                           psect	stringtext
   550                           	
   551  090D                     STR_5:	
   552  090D  3441               	retlw	65	;'A'
   553  090E  3454               	retlw	84	;'T'
   554  090F  3400               	retlw	0
   555                           psect	stringtext
   556  08FB                     STR_12	equ	STR_11+0
   557                           	file	"Indu886.as"
   558                           	line	#
   559                           psect cinit,class=CODE,delta=2
   560                           global start_initialization
   561  0A7A                     start_initialization:
   562                           
   563                           psect	bssBANK0,class=BANK0,space=1
   564                           global __pbssBANK0
   565  0066                     __pbssBANK0:
   566  0066                     _flag1:
   567  0066                            ds      2
   568                           
   569  0068                     _flag_supply:
   570  0068                            ds      2
   571                           
   572  006A                     _retain:
   573  006A                            ds      2
   574                           
   575  006C                     _variable:
   576  006C                            ds      2
   577                           
   578  006E                     _i:
   579  006E                            ds      1
   580                           
   581                           psect	dataBANK0,class=BANK0,space=1
   582                           global __pdataBANK0
   583  006F                     __pdataBANK0:
   584                           	file	"D:\Embedded\pic\code\Indu886.c"
   585  006F                     _stop:
   586  006F                            ds      1
   587                           
   588                           psect	bssBANK1,class=BANK1,space=1
   589                           global __pbssBANK1
   590  00A0                     __pbssBANK1:
   591  00A0                     _Generator:
   592  00A0                            ds      2
   593                           
   594  00A2                     _flag2:
   595  00A2                            ds      2
   596                           
   597  00A4                     _store:
   598  00A4                            ds      2
   599                           
   600  00A6                     _read:
   601  00A6                            ds      6
   602                           
   603                           ; Clear objects allocated to BANK0
   604                           psect cinit,class=CODE,delta=2
   605  0A7A  01E6               	clrf	((__pbssBANK0)+0)&07Fh
   606  0A7B  01E7               	clrf	((__pbssBANK0)+1)&07Fh
   607  0A7C  01E8               	clrf	((__pbssBANK0)+2)&07Fh
   608  0A7D  01E9               	clrf	((__pbssBANK0)+3)&07Fh
   609  0A7E  01EA               	clrf	((__pbssBANK0)+4)&07Fh
   610  0A7F  01EB               	clrf	((__pbssBANK0)+5)&07Fh
   611  0A80  01EC               	clrf	((__pbssBANK0)+6)&07Fh
   612  0A81  01ED               	clrf	((__pbssBANK0)+7)&07Fh
   613  0A82  01EE               	clrf	((__pbssBANK0)+8)&07Fh
   614                           ; Clear objects allocated to BANK1
   615                           psect cinit,class=CODE,delta=2
   616  0A83  1683               	bsf	status, 5	;RP0=1, select bank1
   617  0A84  1303               	bcf	status, 6	;RP1=0, select bank1
   618  0A85  01A0               	clrf	((__pbssBANK1)+0)&07Fh
   619  0A86  01A1               	clrf	((__pbssBANK1)+1)&07Fh
   620  0A87  01A2               	clrf	((__pbssBANK1)+2)&07Fh
   621  0A88  01A3               	clrf	((__pbssBANK1)+3)&07Fh
   622  0A89  01A4               	clrf	((__pbssBANK1)+4)&07Fh
   623  0A8A  01A5               	clrf	((__pbssBANK1)+5)&07Fh
   624  0A8B  01A6               	clrf	((__pbssBANK1)+6)&07Fh
   625  0A8C  01A7               	clrf	((__pbssBANK1)+7)&07Fh
   626  0A8D  01A8               	clrf	((__pbssBANK1)+8)&07Fh
   627  0A8E  01A9               	clrf	((__pbssBANK1)+9)&07Fh
   628  0A8F  01AA               	clrf	((__pbssBANK1)+10)&07Fh
   629  0A90  01AB               	clrf	((__pbssBANK1)+11)&07Fh
   630                           ; Initialize objects allocated to BANK0
   631                           	global __pidataBANK0
   632                           psect cinit,class=CODE,delta=2
   633  0A91  1283               	bcf	status, 5	;RP0=0, select bank0
   634  0A92  1303               	bcf	status, 6	;RP1=0, select bank0
   635  0A93  120A  118A  2005   	fcall	__pidataBANK0+0		;fetch initializer
              120A  158A         
   636  0A98  00EF               	movwf	__pdataBANK0+0&07fh		
   637                           psect cinit,class=CODE,delta=2
   638                           global end_of_initialization
   639                           
   640                           ;End of C runtime variable initialization code
   641                           
   642  0A99                     end_of_initialization:
   643  0A99  0183               clrf status
   644  0A9A  120A  118A  2D32   ljmp _main	;jump to C main() function
   645                           psect	cstackCOMMON,class=COMMON,space=1
   646                           global __pcstackCOMMON
   647  0070                     __pcstackCOMMON:
   648                           	global	?_eeprom_write
   649  0070                     ?_eeprom_write:	; 0 bytes @ 0x0
   650                           	global	??_eeprom_read
   651  0070                     ??_eeprom_read:	; 0 bytes @ 0x0
   652                           	global	?_delay
   653  0070                     ?_delay:	; 0 bytes @ 0x0
   654                           	global	?_pulse
   655  0070                     ?_pulse:	; 0 bytes @ 0x0
   656                           	global	?_hold
   657  0070                     ?_hold:	; 0 bytes @ 0x0
   658                           	global	??_hold
   659  0070                     ??_hold:	; 0 bytes @ 0x0
   660                           	global	?_I2C_Start
   661  0070                     ?_I2C_Start:	; 0 bytes @ 0x0
   662                           	global	??_I2C_Start
   663  0070                     ??_I2C_Start:	; 0 bytes @ 0x0
   664                           	global	?_I2C_Stop
   665  0070                     ?_I2C_Stop:	; 0 bytes @ 0x0
   666                           	global	??_I2C_Stop
   667  0070                     ??_I2C_Stop:	; 0 bytes @ 0x0
   668                           	global	?_I2C_Slave
   669  0070                     ?_I2C_Slave:	; 0 bytes @ 0x0
   670                           	global	??_I2C_Slave
   671  0070                     ??_I2C_Slave:	; 0 bytes @ 0x0
   672                           	global	?_I2C_Restart
   673  0070                     ?_I2C_Restart:	; 0 bytes @ 0x0
   674                           	global	??_I2C_Restart
   675  0070                     ??_I2C_Restart:	; 0 bytes @ 0x0
   676                           	global	?_conversion
   677  0070                     ?_conversion:	; 0 bytes @ 0x0
   678                           	global	?_Gate_Siren
   679  0070                     ?_Gate_Siren:	; 0 bytes @ 0x0
   680                           	global	?_Generator_run
   681  0070                     ?_Generator_run:	; 0 bytes @ 0x0
   682                           	global	?_tran
   683  0070                     ?_tran:	; 0 bytes @ 0x0
   684                           	global	?_new
   685  0070                     ?_new:	; 0 bytes @ 0x0
   686                           	global	?_adc
   687  0070                     ?_adc:	; 0 bytes @ 0x0
   688                           	global	?_main
   689  0070                     ?_main:	; 0 bytes @ 0x0
   690                           	global	?_eeprom_read
   691  0070                     ?_eeprom_read:	; 1 bytes @ 0x0
   692                           	global	?_I2C_Read
   693  0070                     ?_I2C_Read:	; 1 bytes @ 0x0
   694                           	global	?___awdiv
   695  0070                     ?___awdiv:	; 2 bytes @ 0x0
   696                           	global	?___awmod
   697  0070                     ?___awmod:	; 2 bytes @ 0x0
   698                           	global	?___ftpack
   699  0070                     ?___ftpack:	; 3 bytes @ 0x0
   700                           	global	I2C_Slave@data
   701  0070                     I2C_Slave@data:	; 1 bytes @ 0x0
   702                           	global	eeprom_write@value
   703  0070                     eeprom_write@value:	; 1 bytes @ 0x0
   704                           	global	delay@ms
   705  0070                     delay@ms:	; 2 bytes @ 0x0
   706                           	global	I2C_Read@i
   707  0070                     I2C_Read@i:	; 2 bytes @ 0x0
   708                           	global	___awdiv@divisor
   709  0070                     ___awdiv@divisor:	; 2 bytes @ 0x0
   710                           	global	___awmod@divisor
   711  0070                     ___awmod@divisor:	; 2 bytes @ 0x0
   712                           	global	___ftpack@arg
   713  0070                     ___ftpack@arg:	; 3 bytes @ 0x0
   714  0070                     	ds	1
   715                           	global	??_eeprom_write
   716  0071                     ??_eeprom_write:	; 0 bytes @ 0x1
   717                           	global	eeprom_read@addr
   718  0071                     eeprom_read@addr:	; 1 bytes @ 0x1
   719  0071                     	ds	1
   720                           	global	??_delay
   721  0072                     ??_delay:	; 0 bytes @ 0x2
   722                           	global	??_pulse
   723  0072                     ??_pulse:	; 0 bytes @ 0x2
   724                           	global	?_lcd_cmd
   725  0072                     ?_lcd_cmd:	; 0 bytes @ 0x2
   726                           	global	??_I2C_Read
   727  0072                     ??_I2C_Read:	; 0 bytes @ 0x2
   728                           	global	??_Gate_Siren
   729  0072                     ??_Gate_Siren:	; 0 bytes @ 0x2
   730                           	global	?_trans
   731  0072                     ?_trans:	; 0 bytes @ 0x2
   732                           	global	??_tran
   733  0072                     ??_tran:	; 0 bytes @ 0x2
   734                           	global	Gate_Siren@read1
   735  0072                     Gate_Siren@read1:	; 1 bytes @ 0x2
   736                           	global	tran@data2
   737  0072                     tran@data2:	; 1 bytes @ 0x2
   738                           	global	eeprom_write@addr
   739  0072                     eeprom_write@addr:	; 1 bytes @ 0x2
   740                           	global	lcd_cmd@a
   741  0072                     lcd_cmd@a:	; 2 bytes @ 0x2
   742                           	global	trans@data1
   743  0072                     trans@data1:	; 2 bytes @ 0x2
   744                           	global	___awdiv@dividend
   745  0072                     ___awdiv@dividend:	; 2 bytes @ 0x2
   746                           	global	___awmod@dividend
   747  0072                     ___awmod@dividend:	; 2 bytes @ 0x2
   748  0072                     	ds	1
   749                           	global	??_new
   750  0073                     ??_new:	; 0 bytes @ 0x3
   751                           	global	I2C_Read@read1
   752  0073                     I2C_Read@read1:	; 1 bytes @ 0x3
   753                           	global	___ftpack@exp
   754  0073                     ___ftpack@exp:	; 1 bytes @ 0x3
   755  0073                     	ds	1
   756                           	global	??_trans
   757  0074                     ??_trans:	; 0 bytes @ 0x4
   758                           	global	?_gsm
   759  0074                     ?_gsm:	; 0 bytes @ 0x4
   760                           	global	??___awdiv
   761  0074                     ??___awdiv:	; 0 bytes @ 0x4
   762                           	global	??___awmod
   763  0074                     ??___awmod:	; 0 bytes @ 0x4
   764                           	global	___ftpack@sign
   765  0074                     ___ftpack@sign:	; 1 bytes @ 0x4
   766                           	global	lcd_cmd@b
   767  0074                     lcd_cmd@b:	; 2 bytes @ 0x4
   768                           	global	gsm@cmd
   769  0074                     gsm@cmd:	; 2 bytes @ 0x4
   770  0074                     	ds	1
   771                           	global	??___ftpack
   772  0075                     ??___ftpack:	; 0 bytes @ 0x5
   773                           	global	___awdiv@counter
   774  0075                     ___awdiv@counter:	; 1 bytes @ 0x5
   775                           	global	___awmod@counter
   776  0075                     ___awmod@counter:	; 1 bytes @ 0x5
   777  0075                     	ds	1
   778                           	global	??_gsm
   779  0076                     ??_gsm:	; 0 bytes @ 0x6
   780                           	global	lcd_cmd@c
   781  0076                     lcd_cmd@c:	; 1 bytes @ 0x6
   782                           	global	___awdiv@sign
   783  0076                     ___awdiv@sign:	; 1 bytes @ 0x6
   784                           	global	___awmod@sign
   785  0076                     ___awmod@sign:	; 1 bytes @ 0x6
   786  0076                     	ds	1
   787                           	global	??_lcd_cmd
   788  0077                     ??_lcd_cmd:	; 0 bytes @ 0x7
   789                           	global	___awdiv@quotient
   790  0077                     ___awdiv@quotient:	; 2 bytes @ 0x7
   791  0077                     	ds	1
   792                           	global	?_string
   793  0078                     ?_string:	; 0 bytes @ 0x8
   794                           	global	?___awtoft
   795  0078                     ?___awtoft:	; 3 bytes @ 0x8
   796                           	global	?___fttol
   797  0078                     ?___fttol:	; 4 bytes @ 0x8
   798                           	global	string@p
   799  0078                     string@p:	; 2 bytes @ 0x8
   800                           	global	___awtoft@c
   801  0078                     ___awtoft@c:	; 2 bytes @ 0x8
   802                           	global	___fttol@f1
   803  0078                     ___fttol@f1:	; 3 bytes @ 0x8
   804  0078                     	ds	2
   805                           	global	??_string
   806  007A                     ??_string:	; 0 bytes @ 0xA
   807  007A                     	ds	1
   808                           	global	??_conversion
   809  007B                     ??_conversion:	; 0 bytes @ 0xB
   810                           	global	??_Generator_run
   811  007B                     ??_Generator_run:	; 0 bytes @ 0xB
   812                           	global	??___awtoft
   813  007B                     ??___awtoft:	; 0 bytes @ 0xB
   814  007B                     	ds	2
   815                           	global	conversion@disp
   816  007D                     conversion@disp:	; 1 bytes @ 0xD
   817                           	global	___awtoft@sign
   818  007D                     ___awtoft@sign:	; 1 bytes @ 0xD
   819  007D                     	ds	1
   820                           psect	cstackBANK0,class=BANK0,space=1
   821                           global __pcstackBANK0
   822  0020                     __pcstackBANK0:
   823                           	global	??___fttol
   824  0020                     ??___fttol:	; 0 bytes @ 0x0
   825                           	global	Generator_run@Gen_a
   826  0020                     Generator_run@Gen_a:	; 2 bytes @ 0x0
   827  0020                     	ds	2
   828                           	global	Generator_run@Gen_c
   829  0022                     Generator_run@Gen_c:	; 2 bytes @ 0x2
   830  0022                     	ds	2
   831                           	global	___fttol@sign1
   832  0024                     ___fttol@sign1:	; 1 bytes @ 0x4
   833                           	global	Generator_run@Gen_e
   834  0024                     Generator_run@Gen_e:	; 2 bytes @ 0x4
   835  0024                     	ds	1
   836                           	global	___fttol@lval
   837  0025                     ___fttol@lval:	; 4 bytes @ 0x5
   838  0025                     	ds	1
   839                           	global	Generator_run@Gen_f
   840  0026                     Generator_run@Gen_f:	; 2 bytes @ 0x6
   841  0026                     	ds	2
   842                           	global	Generator_run@Gen_b
   843  0028                     Generator_run@Gen_b:	; 2 bytes @ 0x8
   844  0028                     	ds	1
   845                           	global	___fttol@exp1
   846  0029                     ___fttol@exp1:	; 1 bytes @ 0x9
   847  0029                     	ds	1
   848                           	global	?___ftmul
   849  002A                     ?___ftmul:	; 3 bytes @ 0xA
   850                           	global	Generator_run@Gen_d
   851  002A                     Generator_run@Gen_d:	; 2 bytes @ 0xA
   852                           	global	___ftmul@f1
   853  002A                     ___ftmul@f1:	; 3 bytes @ 0xA
   854  002A                     	ds	3
   855                           	global	___ftmul@f2
   856  002D                     ___ftmul@f2:	; 3 bytes @ 0xD
   857  002D                     	ds	3
   858                           	global	??___ftmul
   859  0030                     ??___ftmul:	; 0 bytes @ 0x10
   860  0030                     	ds	4
   861                           	global	___ftmul@exp
   862  0034                     ___ftmul@exp:	; 1 bytes @ 0x14
   863  0034                     	ds	1
   864                           	global	___ftmul@f3_as_product
   865  0035                     ___ftmul@f3_as_product:	; 3 bytes @ 0x15
   866  0035                     	ds	3
   867                           	global	___ftmul@cntr
   868  0038                     ___ftmul@cntr:	; 1 bytes @ 0x18
   869  0038                     	ds	1
   870                           	global	___ftmul@sign
   871  0039                     ___ftmul@sign:	; 1 bytes @ 0x19
   872  0039                     	ds	1
   873                           	global	??_adc
   874  003A                     ??_adc:	; 0 bytes @ 0x1A
   875  003A                     	ds	2
   876                           	global	adc@temp
   877  003C                     adc@temp:	; 3 bytes @ 0x1C
   878  003C                     	ds	3
   879                           	global	adc@vari1
   880  003F                     adc@vari1:	; 2 bytes @ 0x1F
   881  003F                     	ds	2
   882                           	global	adc@high
   883  0041                     adc@high:	; 2 bytes @ 0x21
   884  0041                     	ds	2
   885                           	global	adc@low
   886  0043                     adc@low:	; 2 bytes @ 0x23
   887  0043                     	ds	2
   888                           	global	adc@temp_a
   889  0045                     adc@temp_a:	; 2 bytes @ 0x25
   890  0045                     	ds	2
   891                           	global	adc@temp_c
   892  0047                     adc@temp_c:	; 2 bytes @ 0x27
   893  0047                     	ds	2
   894                           	global	adc@temp_e
   895  0049                     adc@temp_e:	; 2 bytes @ 0x29
   896  0049                     	ds	2
   897                           	global	adc@temp_f
   898  004B                     adc@temp_f:	; 2 bytes @ 0x2B
   899  004B                     	ds	2
   900                           	global	adc@u
   901  004D                     adc@u:	; 2 bytes @ 0x2D
   902  004D                     	ds	2
   903                           	global	adc@sensorvalue
   904  004F                     adc@sensorvalue:	; 2 bytes @ 0x2F
   905  004F                     	ds	2
   906                           	global	adc@temp_b
   907  0051                     adc@temp_b:	; 2 bytes @ 0x31
   908  0051                     	ds	2
   909                           	global	adc@temp_d
   910  0053                     adc@temp_d:	; 2 bytes @ 0x33
   911  0053                     	ds	2
   912                           	global	adc@Final_value
   913  0055                     adc@Final_value:	; 2 bytes @ 0x35
   914  0055                     	ds	2
   915                           	global	??_main
   916  0057                     ??_main:	; 0 bytes @ 0x37
   917  0057                     	ds	3
   918                           	global	main@Pre_a1
   919  005A                     main@Pre_a1:	; 2 bytes @ 0x3A
   920  005A                     	ds	2
   921                           	global	main@Pre_c1
   922  005C                     main@Pre_c1:	; 2 bytes @ 0x3C
   923  005C                     	ds	2
   924                           	global	main@Pre_e1
   925  005E                     main@Pre_e1:	; 2 bytes @ 0x3E
   926  005E                     	ds	2
   927                           	global	main@Pre_f1
   928  0060                     main@Pre_f1:	; 2 bytes @ 0x40
   929  0060                     	ds	2
   930                           	global	main@Pre_b1
   931  0062                     main@Pre_b1:	; 2 bytes @ 0x42
   932  0062                     	ds	2
   933                           	global	main@Pre_d1
   934  0064                     main@Pre_d1:	; 2 bytes @ 0x44
   935  0064                     	ds	2
   936 ;;Data sizes: Strings 272, constant 0, data 1, bss 21, persistent 0 stack 0
   937 ;;Auto spaces:   Size  Autos    Used
   938 ;; COMMON          14     14      14
   939 ;; BANK0           80     70      80
   940 ;; BANK1           80      0      12
   941 ;; BANK3           96      0       0
   942 ;; BANK2           96      0       0
   943                           
   944 ;;
   945 ;; Pointer list with targets:
   946                           
   947 ;; ?___ftpack	float  size(1) Largest target is 0
   948 ;;
   949 ;; ?___fttol	long  size(1) Largest target is 0
   950 ;;
   951 ;; ?___ftmul	float  size(1) Largest target is 0
   952 ;;
   953 ;; ?___awtoft	float  size(1) Largest target is 0
   954 ;;
   955 ;; ?___awmod	int  size(1) Largest target is 0
   956 ;;
   957 ;; ?___awdiv	int  size(1) Largest target is 0
   958 ;;
   959 ;; trans@data1	PTR unsigned char  size(2) Largest target is 61
   960 ;;		 -> STR_10(CODE[50]), STR_9(CODE[43]), STR_8(CODE[61]), STR_7(CODE[24]), 
   961 ;;		 -> STR_6(CODE[10]), STR_5(CODE[3]), 
   962 ;;
   963 ;; Gate_Siren@read1	PTR unsigned char  size(1) Largest target is 6
   964 ;;		 -> read(BANK1[6]), 
   965 ;;
   966 ;; conversion@disp	PTR unsigned char  size(1) Largest target is 6
   967 ;;		 -> read(BANK1[6]), 
   968 ;;
   969 ;; string@p	PTR unsigned char  size(2) Largest target is 16
   970 ;;		 -> STR_15(CODE[6]), STR_14(CODE[15]), STR_13(CODE[14]), STR_12(CODE[7]), 
   971 ;;		 -> STR_11(CODE[7]), STR_4(CODE[16]), STR_3(CODE[5]), STR_2(CODE[9]), 
   972 ;;		 -> STR_1(CODE[9]), 
   973 ;;
   974                           
   975                           
   976 ;;
   977 ;; Critical Paths under _main in COMMON
   978 ;;
   979 ;;   _main->_conversion
   980 ;;   _adc->___awtoft
   981 ;;   _Generator_run->_string
   982 ;;   _conversion->_string
   983 ;;   _gsm->_trans
   984 ;;   _string->_lcd_cmd
   985 ;;   _new->_tran
   986 ;;   ___awtoft->___ftpack
   987 ;;   ___ftmul->___awtoft
   988 ;;   _tran->_delay
   989 ;;   _trans->_delay
   990 ;;   _Gate_Siren->_delay
   991 ;;   _pulse->_delay
   992 ;;   ___fttol->___ftpack
   993 ;;
   994 ;; Critical Paths under _main in BANK0
   995 ;;
   996 ;;   _main->_adc
   997 ;;   _adc->___ftmul
   998 ;;   ___ftmul->___fttol
   999 ;;
  1000 ;; Critical Paths under _main in BANK1
  1001 ;;
  1002 ;;   None.
  1003 ;;
  1004 ;; Critical Paths under _main in BANK3
  1005 ;;
  1006 ;;   None.
  1007 ;;
  1008 ;; Critical Paths under _main in BANK2
  1009 ;;
  1010 ;;   None.
  1011                           
  1012 ;;
  1013 ;;Main: autosize = 0, tempsize = 3, incstack = 0, save=0
  1014 ;;
  1015                           
  1016 ;;
  1017 ;;Call Graph Tables:
  1018 ;;
  1019 ;; ---------------------------------------------------------------------------------
  1020 ;; (Depth) Function   	        Calls       Base Space   Used Autos Params    Refs
  1021 ;; ---------------------------------------------------------------------------------
  1022 ;; (0) _main                                                15    15      0    5746
  1023 ;;                                             55 BANK0     15    15      0
  1024 ;;                            _lcd_cmd
  1025 ;;                        _eeprom_read
  1026 ;;                                _adc
  1027 ;;                            ___awdiv
  1028 ;;                            ___awmod
  1029 ;;                             _string
  1030 ;;                              _delay
  1031 ;;                          _I2C_Start
  1032 ;;                          _I2C_Slave
  1033 ;;                        _I2C_Restart
  1034 ;;                           _I2C_Read
  1035 ;;                           _I2C_Stop
  1036 ;;                         _conversion
  1037 ;;                         _Gate_Siren
  1038 ;;                      _Generator_run
  1039 ;;                                _gsm
  1040 ;; ---------------------------------------------------------------------------------
  1041 ;; (1) _adc                                                 29    29      0    2623
  1042 ;;                                             26 BANK0     29    29      0
  1043 ;;                            _lcd_cmd
  1044 ;;                             _string
  1045 ;;                           ___awtoft
  1046 ;;                            ___ftmul
  1047 ;;                            ___fttol
  1048 ;;                            ___awdiv
  1049 ;;                            ___awmod
  1050 ;;                                _gsm
  1051 ;;                              _delay
  1052 ;; ---------------------------------------------------------------------------------
  1053 ;; (1) _Generator_run                                       13    13      0    1109
  1054 ;;                                             11 COMMON     1     1      0
  1055 ;;                                              0 BANK0     12    12      0
  1056 ;;                            _lcd_cmd
  1057 ;;                             _string
  1058 ;;                            ___awdiv
  1059 ;;                            ___awmod
  1060 ;;                              _delay
  1061 ;;                       _eeprom_write
  1062 ;; ---------------------------------------------------------------------------------
  1063 ;; (1) _conversion                                           3     3      0     397
  1064 ;;                                             11 COMMON     3     3      0
  1065 ;;                            _lcd_cmd
  1066 ;;                             _string
  1067 ;; ---------------------------------------------------------------------------------
  1068 ;; (1) _gsm                                                  2     0      2     243
  1069 ;;                                              4 COMMON     2     0      2
  1070 ;;                              _trans
  1071 ;;                                _new
  1072 ;;                              _delay
  1073 ;;                               _tran
  1074 ;; ---------------------------------------------------------------------------------
  1075 ;; (2) _string                                               3     1      2     155
  1076 ;;                                              8 COMMON     3     1      2
  1077 ;;                            _lcd_cmd
  1078 ;; ---------------------------------------------------------------------------------
  1079 ;; (2) _new                                                  0     0      0      44
  1080 ;;                               _tran
  1081 ;; ---------------------------------------------------------------------------------
  1082 ;; (3) _lcd_cmd                                              6     1      5     110
  1083 ;;                                              2 COMMON     6     1      5
  1084 ;;                              _pulse
  1085 ;; ---------------------------------------------------------------------------------
  1086 ;; (2) ___awtoft                                             6     3      3     300
  1087 ;;                                              8 COMMON     6     3      3
  1088 ;;                           ___ftpack
  1089 ;; ---------------------------------------------------------------------------------
  1090 ;; (2) ___ftmul                                             16    10      6     535
  1091 ;;                                             10 BANK0     16    10      6
  1092 ;;                           ___ftpack
  1093 ;;                           ___awtoft (ARG)
  1094 ;;                            ___fttol (ARG)
  1095 ;; ---------------------------------------------------------------------------------
  1096 ;; (2) _tran                                                 1     1      0      44
  1097 ;;                                              2 COMMON     1     1      0
  1098 ;;                              _delay
  1099 ;; ---------------------------------------------------------------------------------
  1100 ;; (2) _trans                                                2     0      2      67
  1101 ;;                                              2 COMMON     2     0      2
  1102 ;;                              _delay
  1103 ;; ---------------------------------------------------------------------------------
  1104 ;; (1) _Gate_Siren                                           1     1      0     220
  1105 ;;                                              2 COMMON     1     1      0
  1106 ;;                              _delay
  1107 ;; ---------------------------------------------------------------------------------
  1108 ;; (1) _I2C_Restart                                          0     0      0       0
  1109 ;;                               _hold
  1110 ;; ---------------------------------------------------------------------------------
  1111 ;; (1) _I2C_Slave                                            1     1      0      22
  1112 ;;                                              0 COMMON     1     1      0
  1113 ;;                               _hold
  1114 ;; ---------------------------------------------------------------------------------
  1115 ;; (1) _I2C_Stop                                             0     0      0       0
  1116 ;;                               _hold
  1117 ;; ---------------------------------------------------------------------------------
  1118 ;; (1) _I2C_Start                                            0     0      0       0
  1119 ;;                               _hold
  1120 ;; ---------------------------------------------------------------------------------
  1121 ;; (4) _pulse                                                0     0      0      22
  1122 ;;                              _delay
  1123 ;; ---------------------------------------------------------------------------------
  1124 ;; (2) ___awmod                                              7     3      4     296
  1125 ;;                                              0 COMMON     7     3      4
  1126 ;; ---------------------------------------------------------------------------------
  1127 ;; (2) ___awdiv                                              9     5      4     300
  1128 ;;                                              0 COMMON     9     5      4
  1129 ;; ---------------------------------------------------------------------------------
  1130 ;; (2) ___fttol                                             14    10      4     252
  1131 ;;                                              8 COMMON     4     0      4
  1132 ;;                                              0 BANK0     10    10      0
  1133 ;;                           ___ftpack (ARG)
  1134 ;; ---------------------------------------------------------------------------------
  1135 ;; (3) ___ftpack                                             8     3      5     209
  1136 ;;                                              0 COMMON     8     3      5
  1137 ;; ---------------------------------------------------------------------------------
  1138 ;; (1) _eeprom_read                                          2     2      0      22
  1139 ;;                                              0 COMMON     2     2      0
  1140 ;; ---------------------------------------------------------------------------------
  1141 ;; (2) _eeprom_write                                         3     2      1      44
  1142 ;;                                              0 COMMON     3     2      1
  1143 ;; ---------------------------------------------------------------------------------
  1144 ;; (1) _I2C_Read                                             4     2      2      45
  1145 ;;                                              0 COMMON     4     2      2
  1146 ;; ---------------------------------------------------------------------------------
  1147 ;; (2) _hold                                                 0     0      0       0
  1148 ;; ---------------------------------------------------------------------------------
  1149 ;; (3) _delay                                                2     0      2      22
  1150 ;;                                              0 COMMON     2     0      2
  1151 ;; ---------------------------------------------------------------------------------
  1152 ;; Estimated maximum stack depth 4
  1153 ;; ---------------------------------------------------------------------------------
  1154                           
  1155 ;; Call Graph Graphs:
  1156                           
  1157 ;; _main (ROOT)
  1158 ;;   _lcd_cmd
  1159 ;;     _pulse
  1160 ;;       _delay
  1161 ;;   _eeprom_read
  1162 ;;   _adc
  1163 ;;     _lcd_cmd
  1164 ;;       _pulse
  1165 ;;         _delay
  1166 ;;     _string
  1167 ;;       _lcd_cmd
  1168 ;;         _pulse
  1169 ;;           _delay
  1170 ;;     ___awtoft
  1171 ;;       ___ftpack
  1172 ;;     ___ftmul
  1173 ;;       ___ftpack
  1174 ;;       ___awtoft (ARG)
  1175 ;;         ___ftpack
  1176 ;;       ___fttol (ARG)
  1177 ;;         ___ftpack (ARG)
  1178 ;;     ___fttol
  1179 ;;       ___ftpack (ARG)
  1180 ;;     ___awdiv
  1181 ;;     ___awmod
  1182 ;;     _gsm
  1183 ;;       _trans
  1184 ;;         _delay
  1185 ;;       _new
  1186 ;;         _tran
  1187 ;;           _delay
  1188 ;;       _delay
  1189 ;;       _tran
  1190 ;;         _delay
  1191 ;;     _delay
  1192 ;;   ___awdiv
  1193 ;;   ___awmod
  1194 ;;   _string
  1195 ;;     _lcd_cmd
  1196 ;;       _pulse
  1197 ;;         _delay
  1198 ;;   _delay
  1199 ;;   _I2C_Start
  1200 ;;     _hold
  1201 ;;   _I2C_Slave
  1202 ;;     _hold
  1203 ;;   _I2C_Restart
  1204 ;;     _hold
  1205 ;;   _I2C_Read
  1206 ;;   _I2C_Stop
  1207 ;;     _hold
  1208 ;;   _conversion
  1209 ;;     _lcd_cmd
  1210 ;;       _pulse
  1211 ;;         _delay
  1212 ;;     _string
  1213 ;;       _lcd_cmd
  1214 ;;         _pulse
  1215 ;;           _delay
  1216 ;;   _Gate_Siren
  1217 ;;     _delay
  1218 ;;   _Generator_run
  1219 ;;     _lcd_cmd
  1220 ;;       _pulse
  1221 ;;         _delay
  1222 ;;     _string
  1223 ;;       _lcd_cmd
  1224 ;;         _pulse
  1225 ;;           _delay
  1226 ;;     ___awdiv
  1227 ;;     ___awmod
  1228 ;;     _delay
  1229 ;;     _eeprom_write
  1230 ;;   _gsm
  1231 ;;     _trans
  1232 ;;       _delay
  1233 ;;     _new
  1234 ;;       _tran
  1235 ;;         _delay
  1236 ;;     _delay
  1237 ;;     _tran
  1238 ;;       _delay
  1239 ;;
  1240                           
  1241 ;; Address spaces:
  1242                           
  1243 ;;Name               Size   Autos  Total    Cost      Usage
  1244 ;;BANK3               60      0       0       9        0.0%
  1245 ;;BITBANK3            60      0       0       8        0.0%
  1246 ;;SFR3                 0      0       0       4        0.0%
  1247 ;;BITSFR3              0      0       0       4        0.0%
  1248 ;;BANK2               60      0       0      11        0.0%
  1249 ;;BITBANK2            60      0       0      10        0.0%
  1250 ;;SFR2                 0      0       0       5        0.0%
  1251 ;;BITSFR2              0      0       0       5        0.0%
  1252 ;;SFR1                 0      0       0       2        0.0%
  1253 ;;BITSFR1              0      0       0       2        0.0%
  1254 ;;BANK1               50      0       C       7       15.0%
  1255 ;;BITBANK1            50      0       0       6        0.0%
  1256 ;;CODE                 0      0       0       0        0.0%
  1257 ;;DATA                 0      0      6F      12        0.0%
  1258 ;;ABS                  0      0      6A       3        0.0%
  1259 ;;NULL                 0      0       0       0        0.0%
  1260 ;;STACK                0      0       5       2        0.0%
  1261 ;;BANK0               50     46      50       5      100.0%
  1262 ;;BITBANK0            50      0       0       4        0.0%
  1263 ;;SFR0                 0      0       0       1        0.0%
  1264 ;;BITSFR0              0      0       0       1        0.0%
  1265 ;;COMMON               E      E       E       1      100.0%
  1266 ;;BITCOMMON            E      0       0       0        0.0%
  1267 ;;EEDATA             100      0       0       0        0.0%
  1268                           
  1269                           	global	_main
  1270                           psect	maintext,global,class=CODE,delta=2
  1271                           global __pmaintext
  1272  0532                     __pmaintext:
  1273                           
  1274 ;; *************** function _main *****************
  1275 ;; Defined at:
  1276 ;;		line 266 in file "D:\Embedded\pic\code\Indu886.c"
  1277 ;; Parameters:    Size  Location     Type
  1278 ;;		None
  1279 ;; Auto vars:     Size  Location     Type
  1280 ;;  Pre_d1          2   68[BANK0 ] int 
  1281 ;;  Pre_b1          2   66[BANK0 ] int 
  1282 ;;  Pre_f1          2   64[BANK0 ] int 
  1283 ;;  Pre_e1          2   62[BANK0 ] int 
  1284 ;;  Pre_c1          2   60[BANK0 ] int 
  1285 ;;  Pre_a1          2   58[BANK0 ] int 
  1286 ;; Return value:  Size  Location     Type
  1287 ;;		None               void
  1288 ;; Registers used:
  1289 ;;		wreg, fsr0l, fsr0h, status,2, status,0, btemp+1, pclath, cstack
  1290 ;; Tracked objects:
  1291 ;;		On entry : 17F/0
  1292 ;;		On exit  : 0/0
  1293 ;;		Unchanged: 0/0
  1294 ;; Data sizes:     COMMON   BANK0   BANK1   BANK3   BANK2
  1295 ;;      Params:         0       0       0       0       0
  1296 ;;      Locals:         0      12       0       0       0
  1297 ;;      Temps:          0       3       0       0       0
  1298 ;;      Totals:         0      15       0       0       0
  1299 ;;Total ram usage:       15 bytes
  1300 ;; Hardware stack levels required when called:    5
  1301 ;; This function calls:
  1302 ;;		_lcd_cmd
  1303 ;;		_eeprom_read
  1304 ;;		_adc
  1305 ;;		___awdiv
  1306 ;;		___awmod
  1307 ;;		_string
  1308 ;;		_delay
  1309 ;;		_I2C_Start
  1310 ;;		_I2C_Slave
  1311 ;;		_I2C_Restart
  1312 ;;		_I2C_Read
  1313 ;;		_I2C_Stop
  1314 ;;		_conversion
  1315 ;;		_Gate_Siren
  1316 ;;		_Generator_run
  1317 ;;		_gsm
  1318 ;; This function is called by:
  1319 ;;		Startup code after reset
  1320 ;; This function uses a non-reentrant model
  1321 ;;
  1322                           psect	maintext
  1323                           	file	"D:\Embedded\pic\code\Indu886.c"
  1324                           	line	266
  1325                           	global	__size_of_main
  1326  02CE                     	__size_of_main	equ	__end_of_main-_main
  1327                           	
  1328  0532                     _main:	
  1329                           	opt	stack 3
  1330                           ; Regs used in _main: [wreg-fsr0h+status,2+status,0+btemp+1+pclath+cstack]
  1331                           	line	268
  1332                           	
  1333  0532                     l3907:	
  1334                           ;Indu886.c: 267: int Pre_a1,Pre_b1,Pre_c1,Pre_d1,Pre_e1,Pre_f1;
  1335                           ;Indu886.c: 268: TRISC=0X98;
  1336  0532  3098               	movlw	(098h)
  1337  0533  1683               	bsf	status, 5	;RP0=1, select bank1
  1338  0534  1303               	bcf	status, 6	;RP1=0, select bank1
  1339  0535  0087               	movwf	(135)^080h	;volatile
  1340                           	line	269
  1341                           	
  1342  0536                     l3909:	
  1343                           ;Indu886.c: 269: PORTC=0X00;
  1344  0536  1283               	bcf	status, 5	;RP0=0, select bank0
  1345  0537  1303               	bcf	status, 6	;RP1=0, select bank0
  1346  0538  0187               	clrf	(7)	;volatile
  1347                           	line	270
  1348                           	
  1349  0539                     l3911:	
  1350                           ;Indu886.c: 270: TRISA=0X3F;
  1351  0539  303F               	movlw	(03Fh)
  1352  053A  1683               	bsf	status, 5	;RP0=1, select bank1
  1353  053B  1303               	bcf	status, 6	;RP1=0, select bank1
  1354  053C  0085               	movwf	(133)^080h	;volatile
  1355                           	line	271
  1356                           ;Indu886.c: 271: PORTA=0X00;
  1357  053D  1283               	bcf	status, 5	;RP0=0, select bank0
  1358  053E  1303               	bcf	status, 6	;RP1=0, select bank0
  1359  053F  0185               	clrf	(5)	;volatile
  1360                           	line	272
  1361                           	
  1362  0540                     l3913:	
  1363                           ;Indu886.c: 272: TRISB=0X0C;
  1364  0540  300C               	movlw	(0Ch)
  1365  0541  1683               	bsf	status, 5	;RP0=1, select bank1
  1366  0542  1303               	bcf	status, 6	;RP1=0, select bank1
  1367  0543  0086               	movwf	(134)^080h	;volatile
  1368                           	line	273
  1369                           	
  1370  0544                     l3915:	
  1371                           ;Indu886.c: 273: PORTB=0X00;
  1372  0544  1283               	bcf	status, 5	;RP0=0, select bank0
  1373  0545  1303               	bcf	status, 6	;RP1=0, select bank0
  1374  0546  0186               	clrf	(6)	;volatile
  1375                           	line	274
  1376                           ;Indu886.c: 274: ANSEL=0X10;
  1377  0547  3010               	movlw	(010h)
  1378  0548  1683               	bsf	status, 5	;RP0=1, select bank3
  1379  0549  1703               	bsf	status, 6	;RP1=1, select bank3
  1380  054A  0088               	movwf	(392)^0180h	;volatile
  1381                           	line	275
  1382                           	
  1383  054B                     l3917:	
  1384                           ;Indu886.c: 275: ANSELH=0X00;
  1385  054B  0189               	clrf	(393)^0180h	;volatile
  1386                           	line	276
  1387                           	
  1388  054C                     l3919:	
  1389                           ;Indu886.c: 276: SMP=1;
  1390  054C  1683               	bsf	status, 5	;RP0=1, select bank1
  1391  054D  1303               	bcf	status, 6	;RP1=0, select bank1
  1392  054E  1794               	bsf	(1191/8)^080h,(1191)&7
  1393                           	line	277
  1394                           	
  1395  054F                     l3921:	
  1396                           ;Indu886.c: 277: SSPCON=0X28;
  1397  054F  3028               	movlw	(028h)
  1398  0550  1283               	bcf	status, 5	;RP0=0, select bank0
  1399  0551  1303               	bcf	status, 6	;RP1=0, select bank0
  1400  0552  0094               	movwf	(20)	;volatile
  1401                           	line	278
  1402                           	
  1403  0553                     l3923:	
  1404                           ;Indu886.c: 278: TXSTA=0X26;
  1405  0553  3026               	movlw	(026h)
  1406  0554  1683               	bsf	status, 5	;RP0=1, select bank1
  1407  0555  1303               	bcf	status, 6	;RP1=0, select bank1
  1408  0556  0098               	movwf	(152)^080h	;volatile
  1409                           	line	279
  1410                           	
  1411  0557                     l3925:	
  1412                           ;Indu886.c: 279: RCSTA=0X90;
  1413  0557  3090               	movlw	(090h)
  1414  0558  1283               	bcf	status, 5	;RP0=0, select bank0
  1415  0559  1303               	bcf	status, 6	;RP1=0, select bank0
  1416  055A  0098               	movwf	(24)	;volatile
  1417                           	line	280
  1418                           	
  1419  055B                     l3927:	
  1420                           ;Indu886.c: 280: SPBRG=25;
  1421  055B  3019               	movlw	(019h)
  1422  055C  1683               	bsf	status, 5	;RP0=1, select bank1
  1423  055D  1303               	bcf	status, 6	;RP1=0, select bank1
  1424  055E  0099               	movwf	(153)^080h	;volatile
  1425                           	line	281
  1426                           	
  1427  055F                     l3929:	
  1428                           ;Indu886.c: 281: lcd_cmd(0,0,0X28);
  1429  055F  3000               	movlw	low(0)
  1430  0560  00F2               	movwf	(?_lcd_cmd)
  1431  0561  3000               	movlw	high(0)
  1432  0562  00F3               	movwf	((?_lcd_cmd))+1
  1433  0563  3000               	movlw	low(0)
  1434  0564  00F4               	movwf	0+(?_lcd_cmd)+02h
  1435  0565  3000               	movlw	high(0)
  1436  0566  00F5               	movwf	(0+(?_lcd_cmd)+02h)+1
  1437  0567  3028               	movlw	(028h)
  1438  0568  1283               	bcf	status, 5	;RP0=0, select bank0
  1439  0569  1303               	bcf	status, 6	;RP1=0, select bank0
  1440  056A  00D7               	movwf	(??_main+0)+0
  1441  056B  0857               	movf	(??_main+0)+0,w
  1442  056C  00F6               	movwf	0+(?_lcd_cmd)+04h
  1443  056D  120A  158A  22C5   	fcall	_lcd_cmd
              120A  118A         
  1444                           	line	282
  1445                           	
  1446  0572                     l3931:	
  1447                           ;Indu886.c: 282: lcd_cmd(0,0,0X02);
  1448  0572  3000               	movlw	low(0)
  1449  0573  00F2               	movwf	(?_lcd_cmd)
  1450  0574  3000               	movlw	high(0)
  1451  0575  00F3               	movwf	((?_lcd_cmd))+1
  1452  0576  3000               	movlw	low(0)
  1453  0577  00F4               	movwf	0+(?_lcd_cmd)+02h
  1454  0578  3000               	movlw	high(0)
  1455  0579  00F5               	movwf	(0+(?_lcd_cmd)+02h)+1
  1456  057A  3002               	movlw	(02h)
  1457  057B  1283               	bcf	status, 5	;RP0=0, select bank0
  1458  057C  1303               	bcf	status, 6	;RP1=0, select bank0
  1459  057D  00D7               	movwf	(??_main+0)+0
  1460  057E  0857               	movf	(??_main+0)+0,w
  1461  057F  00F6               	movwf	0+(?_lcd_cmd)+04h
  1462  0580  120A  158A  22C5   	fcall	_lcd_cmd
              120A  118A         
  1463                           	line	283
  1464                           	
  1465  0585                     l3933:	
  1466                           ;Indu886.c: 283: lcd_cmd(0,0,0X0E);
  1467  0585  3000               	movlw	low(0)
  1468  0586  00F2               	movwf	(?_lcd_cmd)
  1469  0587  3000               	movlw	high(0)
  1470  0588  00F3               	movwf	((?_lcd_cmd))+1
  1471  0589  3000               	movlw	low(0)
  1472  058A  00F4               	movwf	0+(?_lcd_cmd)+02h
  1473  058B  3000               	movlw	high(0)
  1474  058C  00F5               	movwf	(0+(?_lcd_cmd)+02h)+1
  1475  058D  300E               	movlw	(0Eh)
  1476  058E  1283               	bcf	status, 5	;RP0=0, select bank0
  1477  058F  1303               	bcf	status, 6	;RP1=0, select bank0
  1478  0590  00D7               	movwf	(??_main+0)+0
  1479  0591  0857               	movf	(??_main+0)+0,w
  1480  0592  00F6               	movwf	0+(?_lcd_cmd)+04h
  1481  0593  120A  158A  22C5   	fcall	_lcd_cmd
              120A  118A         
  1482                           	line	286
  1483                           	
  1484  0598                     l3935:	
  1485                           ;Indu886.c: 286: retain=eeprom_read(0);
  1486  0598  3000               	movlw	(0)
  1487  0599  120A  158A  2238   	fcall	_eeprom_read
              120A  118A         
  1488  059E  1283               	bcf	status, 5	;RP0=0, select bank0
  1489  059F  1303               	bcf	status, 6	;RP1=0, select bank0
  1490  05A0  00D7               	movwf	(??_main+0)+0
  1491  05A1  01D8               	clrf	(??_main+0)+0+1
  1492  05A2  0857               	movf	0+(??_main+0)+0,w
  1493  05A3  00EA               	movwf	(_retain)
  1494  05A4  0858               	movf	1+(??_main+0)+0,w
  1495  05A5  00EB               	movwf	(_retain+1)
  1496  05A6  2DA7               	goto	l3937
  1497                           	line	287
  1498                           ;Indu886.c: 287: while(1)
  1499                           	
  1500  05A7                     l1088:	
  1501                           	line	289
  1502                           	
  1503  05A7                     l3937:	
  1504                           ;Indu886.c: 288: {
  1505                           ;Indu886.c: 289: adc();
  1506  05A7  120A  118A  2271   	fcall	_adc
              120A  118A         
  1507                           	line	290
  1508                           	
  1509  05AC                     l3939:	
  1510                           ;Indu886.c: 290: if(RA1==1&&flag_supply==1)
  1511  05AC  1283               	bcf	status, 5	;RP0=0, select bank0
  1512  05AD  1303               	bcf	status, 6	;RP1=0, select bank0
  1513  05AE  1C85               	btfss	(41/8),(41)&7
  1514  05AF  2DB1               	goto	u4001
  1515  05B0  2DB2               	goto	u4000
  1516  05B1                     u4001:
  1517  05B1  2F44               	goto	l3999
  1518  05B2                     u4000:
  1519                           	
  1520  05B2                     l3941:	
  1521  05B2  3001               	movlw	01h
  1522  05B3  0668               	xorwf	(_flag_supply),w
  1523  05B4  0469               	iorwf	(_flag_supply+1),w
  1524  05B5  1D03               	skipz
  1525  05B6  2DB8               	goto	u4011
  1526  05B7  2DB9               	goto	u4010
  1527  05B8                     u4011:
  1528  05B8  2F44               	goto	l3999
  1529  05B9                     u4010:
  1530                           	line	292
  1531                           	
  1532  05B9                     l3943:	
  1533                           ;Indu886.c: 291: {
  1534                           ;Indu886.c: 292: stop=read[0];
  1535  05B9  1683               	bsf	status, 5	;RP0=1, select bank1
  1536  05BA  1303               	bcf	status, 6	;RP1=0, select bank1
  1537  05BB  0826               	movf	(_read)^080h,w
  1538  05BC  1283               	bcf	status, 5	;RP0=0, select bank0
  1539  05BD  1303               	bcf	status, 6	;RP1=0, select bank0
  1540  05BE  00D7               	movwf	(??_main+0)+0
  1541  05BF  0857               	movf	(??_main+0)+0,w
  1542  05C0  00EF               	movwf	(_stop)
  1543                           	line	293
  1544                           	
  1545  05C1                     l3945:	
  1546                           ;Indu886.c: 293: Pre_a1=retain/1000;
  1547  05C1  30E8               	movlw	low(03E8h)
  1548  05C2  00F0               	movwf	(?___awdiv)
  1549  05C3  3003               	movlw	high(03E8h)
  1550  05C4  00F1               	movwf	((?___awdiv))+1
  1551  05C5  086B               	movf	(_retain+1),w
  1552  05C6  01F3               	clrf	1+(?___awdiv)+02h
  1553  05C7  07F3               	addwf	1+(?___awdiv)+02h
  1554  05C8  086A               	movf	(_retain),w
  1555  05C9  01F2               	clrf	0+(?___awdiv)+02h
  1556  05CA  07F2               	addwf	0+(?___awdiv)+02h
  1557                           
  1558  05CB  120A  158A  23F4   	fcall	___awdiv
              120A  118A         
  1559  05D0  0871               	movf	(1+(?___awdiv)),w
  1560  05D1  1283               	bcf	status, 5	;RP0=0, select bank0
  1561  05D2  1303               	bcf	status, 6	;RP1=0, select bank0
  1562  05D3  01DB               	clrf	(main@Pre_a1+1)
  1563  05D4  07DB               	addwf	(main@Pre_a1+1)
  1564  05D5  0870               	movf	(0+(?___awdiv)),w
  1565  05D6  01DA               	clrf	(main@Pre_a1)
  1566  05D7  07DA               	addwf	(main@Pre_a1)
  1567                           
  1568                           	line	294
  1569                           	
  1570  05D8                     l3947:	
  1571                           ;Indu886.c: 294: Pre_b1=retain%1000;
  1572  05D8  30E8               	movlw	low(03E8h)
  1573  05D9  00F0               	movwf	(?___awmod)
  1574  05DA  3003               	movlw	high(03E8h)
  1575  05DB  00F1               	movwf	((?___awmod))+1
  1576  05DC  086B               	movf	(_retain+1),w
  1577  05DD  01F3               	clrf	1+(?___awmod)+02h
  1578  05DE  07F3               	addwf	1+(?___awmod)+02h
  1579  05DF  086A               	movf	(_retain),w
  1580  05E0  01F2               	clrf	0+(?___awmod)+02h
  1581  05E1  07F2               	addwf	0+(?___awmod)+02h
  1582                           
  1583  05E2  120A  158A  238E   	fcall	___awmod
              120A  118A         
  1584  05E7  0871               	movf	(1+(?___awmod)),w
  1585  05E8  1283               	bcf	status, 5	;RP0=0, select bank0
  1586  05E9  1303               	bcf	status, 6	;RP1=0, select bank0
  1587  05EA  01E3               	clrf	(main@Pre_b1+1)
  1588  05EB  07E3               	addwf	(main@Pre_b1+1)
  1589  05EC  0870               	movf	(0+(?___awmod)),w
  1590  05ED  01E2               	clrf	(main@Pre_b1)
  1591  05EE  07E2               	addwf	(main@Pre_b1)
  1592                           
  1593                           	line	295
  1594                           	
  1595  05EF                     l3949:	
  1596                           ;Indu886.c: 295: Pre_c1=Pre_b1/100;
  1597  05EF  3064               	movlw	low(064h)
  1598  05F0  00F0               	movwf	(?___awdiv)
  1599  05F1  3000               	movlw	high(064h)
  1600  05F2  00F1               	movwf	((?___awdiv))+1
  1601  05F3  0863               	movf	(main@Pre_b1+1),w
  1602  05F4  01F3               	clrf	1+(?___awdiv)+02h
  1603  05F5  07F3               	addwf	1+(?___awdiv)+02h
  1604  05F6  0862               	movf	(main@Pre_b1),w
  1605  05F7  01F2               	clrf	0+(?___awdiv)+02h
  1606  05F8  07F2               	addwf	0+(?___awdiv)+02h
  1607                           
  1608  05F9  120A  158A  23F4   	fcall	___awdiv
              120A  118A         
  1609  05FE  0871               	movf	(1+(?___awdiv)),w
  1610  05FF  1283               	bcf	status, 5	;RP0=0, select bank0
  1611  0600  1303               	bcf	status, 6	;RP1=0, select bank0
  1612  0601  01DD               	clrf	(main@Pre_c1+1)
  1613  0602  07DD               	addwf	(main@Pre_c1+1)
  1614  0603  0870               	movf	(0+(?___awdiv)),w
  1615  0604  01DC               	clrf	(main@Pre_c1)
  1616  0605  07DC               	addwf	(main@Pre_c1)
  1617                           
  1618                           	line	296
  1619                           	
  1620  0606                     l3951:	
  1621                           ;Indu886.c: 296: Pre_d1=Pre_b1%100;
  1622  0606  3064               	movlw	low(064h)
  1623  0607  00F0               	movwf	(?___awmod)
  1624  0608  3000               	movlw	high(064h)
  1625  0609  00F1               	movwf	((?___awmod))+1
  1626  060A  0863               	movf	(main@Pre_b1+1),w
  1627  060B  01F3               	clrf	1+(?___awmod)+02h
  1628  060C  07F3               	addwf	1+(?___awmod)+02h
  1629  060D  0862               	movf	(main@Pre_b1),w
  1630  060E  01F2               	clrf	0+(?___awmod)+02h
  1631  060F  07F2               	addwf	0+(?___awmod)+02h
  1632                           
  1633  0610  120A  158A  238E   	fcall	___awmod
              120A  118A         
  1634  0615  0871               	movf	(1+(?___awmod)),w
  1635  0616  1283               	bcf	status, 5	;RP0=0, select bank0
  1636  0617  1303               	bcf	status, 6	;RP1=0, select bank0
  1637  0618  01E5               	clrf	(main@Pre_d1+1)
  1638  0619  07E5               	addwf	(main@Pre_d1+1)
  1639  061A  0870               	movf	(0+(?___awmod)),w
  1640  061B  01E4               	clrf	(main@Pre_d1)
  1641  061C  07E4               	addwf	(main@Pre_d1)
  1642                           
  1643                           	line	297
  1644                           	
  1645  061D                     l3953:	
  1646                           ;Indu886.c: 297: Pre_e1=Pre_d1/10;
  1647  061D  300A               	movlw	low(0Ah)
  1648  061E  00F0               	movwf	(?___awdiv)
  1649  061F  3000               	movlw	high(0Ah)
  1650  0620  00F1               	movwf	((?___awdiv))+1
  1651  0621  0865               	movf	(main@Pre_d1+1),w
  1652  0622  01F3               	clrf	1+(?___awdiv)+02h
  1653  0623  07F3               	addwf	1+(?___awdiv)+02h
  1654  0624  0864               	movf	(main@Pre_d1),w
  1655  0625  01F2               	clrf	0+(?___awdiv)+02h
  1656  0626  07F2               	addwf	0+(?___awdiv)+02h
  1657                           
  1658  0627  120A  158A  23F4   	fcall	___awdiv
              120A  118A         
  1659  062C  0871               	movf	(1+(?___awdiv)),w
  1660  062D  1283               	bcf	status, 5	;RP0=0, select bank0
  1661  062E  1303               	bcf	status, 6	;RP1=0, select bank0
  1662  062F  01DF               	clrf	(main@Pre_e1+1)
  1663  0630  07DF               	addwf	(main@Pre_e1+1)
  1664  0631  0870               	movf	(0+(?___awdiv)),w
  1665  0632  01DE               	clrf	(main@Pre_e1)
  1666  0633  07DE               	addwf	(main@Pre_e1)
  1667                           
  1668                           	line	298
  1669                           	
  1670  0634                     l3955:	
  1671                           ;Indu886.c: 298: Pre_f1=Pre_d1%10;
  1672  0634  300A               	movlw	low(0Ah)
  1673  0635  00F0               	movwf	(?___awmod)
  1674  0636  3000               	movlw	high(0Ah)
  1675  0637  00F1               	movwf	((?___awmod))+1
  1676  0638  0865               	movf	(main@Pre_d1+1),w
  1677  0639  01F3               	clrf	1+(?___awmod)+02h
  1678  063A  07F3               	addwf	1+(?___awmod)+02h
  1679  063B  0864               	movf	(main@Pre_d1),w
  1680  063C  01F2               	clrf	0+(?___awmod)+02h
  1681  063D  07F2               	addwf	0+(?___awmod)+02h
  1682                           
  1683  063E  120A  158A  238E   	fcall	___awmod
              120A  118A         
  1684  0643  0871               	movf	(1+(?___awmod)),w
  1685  0644  1283               	bcf	status, 5	;RP0=0, select bank0
  1686  0645  1303               	bcf	status, 6	;RP1=0, select bank0
  1687  0646  01E1               	clrf	(main@Pre_f1+1)
  1688  0647  07E1               	addwf	(main@Pre_f1+1)
  1689  0648  0870               	movf	(0+(?___awmod)),w
  1690  0649  01E0               	clrf	(main@Pre_f1)
  1691  064A  07E0               	addwf	(main@Pre_f1)
  1692                           
  1693                           	line	300
  1694                           	
  1695  064B                     l3957:	
  1696                           ;Indu886.c: 300: lcd_cmd(0,0,0X01);
  1697  064B  3000               	movlw	low(0)
  1698  064C  00F2               	movwf	(?_lcd_cmd)
  1699  064D  3000               	movlw	high(0)
  1700  064E  00F3               	movwf	((?_lcd_cmd))+1
  1701  064F  3000               	movlw	low(0)
  1702  0650  00F4               	movwf	0+(?_lcd_cmd)+02h
  1703  0651  3000               	movlw	high(0)
  1704  0652  00F5               	movwf	(0+(?_lcd_cmd)+02h)+1
  1705  0653  01F6               	clrf	0+(?_lcd_cmd)+04h
  1706  0654  1403               	bsf	status,0
  1707  0655  0DF6               	rlf	0+(?_lcd_cmd)+04h,f
  1708  0656  120A  158A  22C5   	fcall	_lcd_cmd
              120A  118A         
  1709                           	line	301
  1710                           	
  1711  065B                     l3959:	
  1712                           ;Indu886.c: 301: lcd_cmd(0,0,0X80);
  1713  065B  3000               	movlw	low(0)
  1714  065C  00F2               	movwf	(?_lcd_cmd)
  1715  065D  3000               	movlw	high(0)
  1716  065E  00F3               	movwf	((?_lcd_cmd))+1
  1717  065F  3000               	movlw	low(0)
  1718  0660  00F4               	movwf	0+(?_lcd_cmd)+02h
  1719  0661  3000               	movlw	high(0)
  1720  0662  00F5               	movwf	(0+(?_lcd_cmd)+02h)+1
  1721  0663  3080               	movlw	(080h)
  1722  0664  1283               	bcf	status, 5	;RP0=0, select bank0
  1723  0665  1303               	bcf	status, 6	;RP1=0, select bank0
  1724  0666  00D7               	movwf	(??_main+0)+0
  1725  0667  0857               	movf	(??_main+0)+0,w
  1726  0668  00F6               	movwf	0+(?_lcd_cmd)+04h
  1727  0669  120A  158A  22C5   	fcall	_lcd_cmd
              120A  118A         
  1728                           	line	302
  1729                           	
  1730  066E                     l3961:	
  1731                           ;Indu886.c: 302: string(" Generator On");
  1732  066E  30D1               	movlw	low(STR_13|8000h)
  1733  066F  00F8               	movwf	(?_string)
  1734  0670  3088               	movlw	high(STR_13|8000h)
  1735  0671  00F9               	movwf	((?_string))+1
  1736  0672  120A  158A  2359   	fcall	_string
              120A  118A         
  1737                           	line	303
  1738                           	
  1739  0677                     l3963:	
  1740                           ;Indu886.c: 303: lcd_cmd(0,0,0X91);
  1741  0677  3000               	movlw	low(0)
  1742  0678  00F2               	movwf	(?_lcd_cmd)
  1743  0679  3000               	movlw	high(0)
  1744  067A  00F3               	movwf	((?_lcd_cmd))+1
  1745  067B  3000               	movlw	low(0)
  1746  067C  00F4               	movwf	0+(?_lcd_cmd)+02h
  1747  067D  3000               	movlw	high(0)
  1748  067E  00F5               	movwf	(0+(?_lcd_cmd)+02h)+1
  1749  067F  3091               	movlw	(091h)
  1750  0680  1283               	bcf	status, 5	;RP0=0, select bank0
  1751  0681  1303               	bcf	status, 6	;RP1=0, select bank0
  1752  0682  00D7               	movwf	(??_main+0)+0
  1753  0683  0857               	movf	(??_main+0)+0,w
  1754  0684  00F6               	movwf	0+(?_lcd_cmd)+04h
  1755  0685  120A  158A  22C5   	fcall	_lcd_cmd
              120A  118A         
  1756                           	line	304
  1757                           	
  1758  068A                     l3965:	
  1759                           ;Indu886.c: 304: string(" Previous_run:");
  1760  068A  30C2               	movlw	low(STR_14|8000h)
  1761  068B  00F8               	movwf	(?_string)
  1762  068C  3088               	movlw	high(STR_14|8000h)
  1763  068D  00F9               	movwf	((?_string))+1
  1764  068E  120A  158A  2359   	fcall	_string
              120A  118A         
  1765                           	line	305
  1766                           	
  1767  0693                     l3967:	
  1768                           ;Indu886.c: 305: lcd_cmd(0,0,0XD0);
  1769  0693  3000               	movlw	low(0)
  1770  0694  00F2               	movwf	(?_lcd_cmd)
  1771  0695  3000               	movlw	high(0)
  1772  0696  00F3               	movwf	((?_lcd_cmd))+1
  1773  0697  3000               	movlw	low(0)
  1774  0698  00F4               	movwf	0+(?_lcd_cmd)+02h
  1775  0699  3000               	movlw	high(0)
  1776  069A  00F5               	movwf	(0+(?_lcd_cmd)+02h)+1
  1777  069B  30D0               	movlw	(0D0h)
  1778  069C  1283               	bcf	status, 5	;RP0=0, select bank0
  1779  069D  1303               	bcf	status, 6	;RP1=0, select bank0
  1780  069E  00D7               	movwf	(??_main+0)+0
  1781  069F  0857               	movf	(??_main+0)+0,w
  1782  06A0  00F6               	movwf	0+(?_lcd_cmd)+04h
  1783  06A1  120A  158A  22C5   	fcall	_lcd_cmd
              120A  118A         
  1784                           	line	306
  1785                           	
  1786  06A6                     l3969:	
  1787                           ;Indu886.c: 306: lcd_cmd(1,0,Pre_a1+0X30);
  1788  06A6  3001               	movlw	low(01h)
  1789  06A7  00F2               	movwf	(?_lcd_cmd)
  1790  06A8  3000               	movlw	high(01h)
  1791  06A9  00F3               	movwf	((?_lcd_cmd))+1
  1792  06AA  3000               	movlw	low(0)
  1793  06AB  00F4               	movwf	0+(?_lcd_cmd)+02h
  1794  06AC  3000               	movlw	high(0)
  1795  06AD  00F5               	movwf	(0+(?_lcd_cmd)+02h)+1
  1796  06AE  1283               	bcf	status, 5	;RP0=0, select bank0
  1797  06AF  1303               	bcf	status, 6	;RP1=0, select bank0
  1798  06B0  085A               	movf	(main@Pre_a1),w
  1799  06B1  3E30               	addlw	030h
  1800  06B2  00D7               	movwf	(??_main+0)+0
  1801  06B3  0857               	movf	(??_main+0)+0,w
  1802  06B4  00F6               	movwf	0+(?_lcd_cmd)+04h
  1803  06B5  120A  158A  22C5   	fcall	_lcd_cmd
              120A  118A         
  1804                           	line	307
  1805                           	
  1806  06BA                     l3971:	
  1807                           ;Indu886.c: 307: lcd_cmd(1,0,Pre_c1+0X30);
  1808  06BA  3001               	movlw	low(01h)
  1809  06BB  00F2               	movwf	(?_lcd_cmd)
  1810  06BC  3000               	movlw	high(01h)
  1811  06BD  00F3               	movwf	((?_lcd_cmd))+1
  1812  06BE  3000               	movlw	low(0)
  1813  06BF  00F4               	movwf	0+(?_lcd_cmd)+02h
  1814  06C0  3000               	movlw	high(0)
  1815  06C1  00F5               	movwf	(0+(?_lcd_cmd)+02h)+1
  1816  06C2  1283               	bcf	status, 5	;RP0=0, select bank0
  1817  06C3  1303               	bcf	status, 6	;RP1=0, select bank0
  1818  06C4  085C               	movf	(main@Pre_c1),w
  1819  06C5  3E30               	addlw	030h
  1820  06C6  00D7               	movwf	(??_main+0)+0
  1821  06C7  0857               	movf	(??_main+0)+0,w
  1822  06C8  00F6               	movwf	0+(?_lcd_cmd)+04h
  1823  06C9  120A  158A  22C5   	fcall	_lcd_cmd
              120A  118A         
  1824                           	line	308
  1825                           	
  1826  06CE                     l3973:	
  1827                           ;Indu886.c: 308: lcd_cmd(1,0,Pre_e1+0X30);
  1828  06CE  3001               	movlw	low(01h)
  1829  06CF  00F2               	movwf	(?_lcd_cmd)
  1830  06D0  3000               	movlw	high(01h)
  1831  06D1  00F3               	movwf	((?_lcd_cmd))+1
  1832  06D2  3000               	movlw	low(0)
  1833  06D3  00F4               	movwf	0+(?_lcd_cmd)+02h
  1834  06D4  3000               	movlw	high(0)
  1835  06D5  00F5               	movwf	(0+(?_lcd_cmd)+02h)+1
  1836  06D6  1283               	bcf	status, 5	;RP0=0, select bank0
  1837  06D7  1303               	bcf	status, 6	;RP1=0, select bank0
  1838  06D8  085E               	movf	(main@Pre_e1),w
  1839  06D9  3E30               	addlw	030h
  1840  06DA  00D7               	movwf	(??_main+0)+0
  1841  06DB  0857               	movf	(??_main+0)+0,w
  1842  06DC  00F6               	movwf	0+(?_lcd_cmd)+04h
  1843  06DD  120A  158A  22C5   	fcall	_lcd_cmd
              120A  118A         
  1844                           	line	309
  1845                           	
  1846  06E2                     l3975:	
  1847                           ;Indu886.c: 309: lcd_cmd(1,0,Pre_f1+0X30);
  1848  06E2  3001               	movlw	low(01h)
  1849  06E3  00F2               	movwf	(?_lcd_cmd)
  1850  06E4  3000               	movlw	high(01h)
  1851  06E5  00F3               	movwf	((?_lcd_cmd))+1
  1852  06E6  3000               	movlw	low(0)
  1853  06E7  00F4               	movwf	0+(?_lcd_cmd)+02h
  1854  06E8  3000               	movlw	high(0)
  1855  06E9  00F5               	movwf	(0+(?_lcd_cmd)+02h)+1
  1856  06EA  1283               	bcf	status, 5	;RP0=0, select bank0
  1857  06EB  1303               	bcf	status, 6	;RP1=0, select bank0
  1858  06EC  0860               	movf	(main@Pre_f1),w
  1859  06ED  3E30               	addlw	030h
  1860  06EE  00D7               	movwf	(??_main+0)+0
  1861  06EF  0857               	movf	(??_main+0)+0,w
  1862  06F0  00F6               	movwf	0+(?_lcd_cmd)+04h
  1863  06F1  120A  158A  22C5   	fcall	_lcd_cmd
              120A  118A         
  1864                           	line	310
  1865                           	
  1866  06F6                     l3977:	
  1867                           ;Indu886.c: 310: string(".mins");
  1868  06F6  3002               	movlw	low(STR_15|8000h)
  1869  06F7  00F8               	movwf	(?_string)
  1870  06F8  3089               	movlw	high(STR_15|8000h)
  1871  06F9  00F9               	movwf	((?_string))+1
  1872  06FA  120A  158A  2359   	fcall	_string
              120A  118A         
  1873                           	line	311
  1874                           	
  1875  06FF                     l3979:	
  1876                           ;Indu886.c: 311: RC5=1;
  1877  06FF  1283               	bcf	status, 5	;RP0=0, select bank0
  1878  0700  1303               	bcf	status, 6	;RP1=0, select bank0
  1879  0701  1687               	bsf	(61/8),(61)&7
  1880                           	line	312
  1881                           	
  1882  0702                     l3981:	
  1883                           ;Indu886.c: 312: RC2=0;
  1884  0702  1107               	bcf	(58/8),(58)&7
  1885                           	line	313
  1886                           	
  1887  0703                     l3983:	
  1888                           ;Indu886.c: 313: delay(60000);delay(60000);delay(60000);delay(60000);delay(60000);delay(
                                 60000);
  1889  0703  3060               	movlw	low(0EA60h)
  1890  0704  00F0               	movwf	(?_delay)
  1891  0705  30EA               	movlw	high(0EA60h)
  1892  0706  00F1               	movwf	((?_delay))+1
  1893  0707  120A  158A  21E0   	fcall	_delay
              120A  118A         
  1894                           	
  1895  070C                     l3985:	
  1896  070C  3060               	movlw	low(0EA60h)
  1897  070D  00F0               	movwf	(?_delay)
  1898  070E  30EA               	movlw	high(0EA60h)
  1899  070F  00F1               	movwf	((?_delay))+1
  1900  0710  120A  158A  21E0   	fcall	_delay
              120A  118A         
  1901                           	
  1902  0715                     l3987:	
  1903  0715  3060               	movlw	low(0EA60h)
  1904  0716  00F0               	movwf	(?_delay)
  1905  0717  30EA               	movlw	high(0EA60h)
  1906  0718  00F1               	movwf	((?_delay))+1
  1907  0719  120A  158A  21E0   	fcall	_delay
              120A  118A         
  1908                           	
  1909  071E                     l3989:	
  1910  071E  3060               	movlw	low(0EA60h)
  1911  071F  00F0               	movwf	(?_delay)
  1912  0720  30EA               	movlw	high(0EA60h)
  1913  0721  00F1               	movwf	((?_delay))+1
  1914  0722  120A  158A  21E0   	fcall	_delay
              120A  118A         
  1915                           	
  1916  0727                     l3991:	
  1917  0727  3060               	movlw	low(0EA60h)
  1918  0728  00F0               	movwf	(?_delay)
  1919  0729  30EA               	movlw	high(0EA60h)
  1920  072A  00F1               	movwf	((?_delay))+1
  1921  072B  120A  158A  21E0   	fcall	_delay
              120A  118A         
  1922                           	
  1923  0730                     l3993:	
  1924  0730  3060               	movlw	low(0EA60h)
  1925  0731  00F0               	movwf	(?_delay)
  1926  0732  30EA               	movlw	high(0EA60h)
  1927  0733  00F1               	movwf	((?_delay))+1
  1928  0734  120A  158A  21E0   	fcall	_delay
              120A  118A         
  1929                           	line	314
  1930                           	
  1931  0739                     l3995:	
  1932                           ;Indu886.c: 314: Generator=1;
  1933  0739  3001               	movlw	low(01h)
  1934  073A  1683               	bsf	status, 5	;RP0=1, select bank1
  1935  073B  1303               	bcf	status, 6	;RP1=0, select bank1
  1936  073C  00A0               	movwf	(_Generator)^080h
  1937  073D  3000               	movlw	high(01h)
  1938  073E  00A1               	movwf	((_Generator)^080h)+1
  1939                           	line	315
  1940                           	
  1941  073F                     l3997:	
  1942                           ;Indu886.c: 315: flag_supply=0;
  1943  073F  1283               	bcf	status, 5	;RP0=0, select bank0
  1944  0740  1303               	bcf	status, 6	;RP1=0, select bank0
  1945  0741  01E8               	clrf	(_flag_supply)
  1946  0742  01E9               	clrf	(_flag_supply+1)
  1947  0743  2F44               	goto	l3999
  1948                           	line	316
  1949                           	
  1950  0744                     l1089:	
  1951                           	line	317
  1952                           	
  1953  0744                     l3999:	
  1954                           ;Indu886.c: 316: }
  1955                           ;Indu886.c: 317: I2C_Start();
  1956  0744  120A  158A  21C1   	fcall	_I2C_Start
              120A  118A         
  1957                           	line	318
  1958                           	
  1959  0749                     l4001:	
  1960                           ;Indu886.c: 318: I2C_Slave(0XD0);
  1961  0749  30D0               	movlw	(0D0h)
  1962  074A  120A  158A  2209   	fcall	_I2C_Slave
              120A  118A         
  1963                           	line	319
  1964                           	
  1965  074F                     l4003:	
  1966                           ;Indu886.c: 319: I2C_Slave(0X00);
  1967  074F  3000               	movlw	(0)
  1968  0750  120A  158A  2209   	fcall	_I2C_Slave
              120A  118A         
  1969                           	line	320
  1970                           	
  1971  0755                     l4005:	
  1972                           ;Indu886.c: 320: I2C_Restart();
  1973  0755  120A  118A  2006   	fcall	_I2C_Restart
              120A  118A         
  1974                           	line	321
  1975                           	
  1976  075A                     l4007:	
  1977                           ;Indu886.c: 321: I2C_Slave(0XD1);
  1978  075A  30D1               	movlw	(0D1h)
  1979  075B  120A  158A  2209   	fcall	_I2C_Slave
              120A  118A         
  1980                           	line	322
  1981                           	
  1982  0760                     l4009:	
  1983                           ;Indu886.c: 322: for(i=0;i<3;i++)
  1984  0760  1283               	bcf	status, 5	;RP0=0, select bank0
  1985  0761  1303               	bcf	status, 6	;RP1=0, select bank0
  1986  0762  01EE               	clrf	(_i)
  1987                           	
  1988  0763                     l4011:	
  1989  0763  3003               	movlw	(03h)
  1990  0764  026E               	subwf	(_i),w
  1991  0765  1C03               	skipc
  1992  0766  2F68               	goto	u4021
  1993  0767  2F69               	goto	u4020
  1994  0768                     u4021:
  1995  0768  2F6B               	goto	l1090
  1996  0769                     u4020:
  1997  0769  2F90               	goto	l4021
  1998                           	
  1999  076A                     l4013:	
  2000  076A  2F90               	goto	l4021
  2001                           	line	323
  2002                           	
  2003  076B                     l1090:	
  2004                           	line	324
  2005                           ;Indu886.c: 323: {
  2006                           ;Indu886.c: 324: RCEN=1;
  2007  076B  1683               	bsf	status, 5	;RP0=1, select bank1
  2008  076C  1303               	bcf	status, 6	;RP1=0, select bank1
  2009  076D  1591               	bsf	(1163/8)^080h,(1163)&7
  2010                           	line	325
  2011                           	
  2012  076E                     l4015:	
  2013                           ;Indu886.c: 325: read[i]=I2C_Read(i);
  2014  076E  1283               	bcf	status, 5	;RP0=0, select bank0
  2015  076F  1303               	bcf	status, 6	;RP1=0, select bank0
  2016  0770  086E               	movf	(_i),w
  2017  0771  00D7               	movwf	(??_main+0)+0
  2018  0772  01D8               	clrf	(??_main+0)+0+1
  2019  0773  0857               	movf	0+(??_main+0)+0,w
  2020  0774  00F0               	movwf	(?_I2C_Read)
  2021  0775  0858               	movf	1+(??_main+0)+0,w
  2022  0776  00F1               	movwf	(?_I2C_Read+1)
  2023  0777  120A  158A  2257   	fcall	_I2C_Read
              120A  118A         
  2024  077C  1283               	bcf	status, 5	;RP0=0, select bank0
  2025  077D  1303               	bcf	status, 6	;RP1=0, select bank0
  2026  077E  00D9               	movwf	(??_main+2)+0
  2027  077F  086E               	movf	(_i),w
  2028  0780  3EA6               	addlw	_read&0ffh
  2029  0781  0084               	movwf	fsr0
  2030  0782  0859               	movf	(??_main+2)+0,w
  2031  0783  1383               	bcf	status, 7	;select IRP bank1
  2032  0784  0080               	movwf	indf
  2033                           	line	322
  2034                           	
  2035  0785                     l4017:	
  2036  0785  3001               	movlw	(01h)
  2037  0786  00D7               	movwf	(??_main+0)+0
  2038  0787  0857               	movf	(??_main+0)+0,w
  2039  0788  07EE               	addwf	(_i),f
  2040                           	
  2041  0789                     l4019:	
  2042  0789  3003               	movlw	(03h)
  2043  078A  026E               	subwf	(_i),w
  2044  078B  1C03               	skipc
  2045  078C  2F8E               	goto	u4031
  2046  078D  2F8F               	goto	u4030
  2047  078E                     u4031:
  2048  078E  2F6B               	goto	l1090
  2049  078F                     u4030:
  2050  078F  2F90               	goto	l4021
  2051                           	
  2052  0790                     l1091:	
  2053                           	line	327
  2054                           	
  2055  0790                     l4021:	
  2056                           ;Indu886.c: 326: }
  2057                           ;Indu886.c: 327: I2C_Stop();
  2058  0790  120A  158A  21CA   	fcall	_I2C_Stop
              120A  118A         
  2059                           	line	328
  2060                           	
  2061  0795                     l4023:	
  2062                           ;Indu886.c: 328: conversion(read);
  2063  0795  30A6               	movlw	(_read)&0ffh
  2064  0796  120A  158A  2634   	fcall	_conversion
              120A  118A         
  2065                           	line	329
  2066                           	
  2067  079B                     l4025:	
  2068                           ;Indu886.c: 329: delay(1000);
  2069  079B  30E8               	movlw	low(03E8h)
  2070  079C  00F0               	movwf	(?_delay)
  2071  079D  3003               	movlw	high(03E8h)
  2072  079E  00F1               	movwf	((?_delay))+1
  2073  079F  120A  158A  21E0   	fcall	_delay
              120A  118A         
  2074                           	line	330
  2075                           	
  2076  07A4                     l4027:	
  2077                           ;Indu886.c: 330: Gate_Siren(read);
  2078  07A4  30A6               	movlw	(_read)&0ffh
  2079  07A5  120A  118A  200F   	fcall	_Gate_Siren
              120A  118A         
  2080                           	line	331
  2081                           	
  2082  07AA                     l4029:	
  2083                           ;Indu886.c: 331: Generator_run();
  2084  07AA  120A  118A  2090   	fcall	_Generator_run
              120A  118A         
  2085                           	line	332
  2086                           	
  2087  07AF                     l4031:	
  2088                           ;Indu886.c: 332: if(RA2==1&&flag1==0&&flag2==0)
  2089  07AF  1283               	bcf	status, 5	;RP0=0, select bank0
  2090  07B0  1303               	bcf	status, 6	;RP1=0, select bank0
  2091  07B1  1D05               	btfss	(42/8),(42)&7
  2092  07B2  2FB4               	goto	u4041
  2093  07B3  2FB5               	goto	u4040
  2094  07B4                     u4041:
  2095  07B4  2FD3               	goto	l4041
  2096  07B5                     u4040:
  2097                           	
  2098  07B5                     l4033:	
  2099  07B5  0867               	movf	((_flag1+1)),w
  2100  07B6  0466               	iorwf	((_flag1)),w
  2101  07B7  1D03               	skipz
  2102  07B8  2FBA               	goto	u4051
  2103  07B9  2FBB               	goto	u4050
  2104  07BA                     u4051:
  2105  07BA  2FD3               	goto	l4041
  2106  07BB                     u4050:
  2107                           	
  2108  07BB                     l4035:	
  2109  07BB  1683               	bsf	status, 5	;RP0=1, select bank1
  2110  07BC  1303               	bcf	status, 6	;RP1=0, select bank1
  2111  07BD  0823               	movf	((_flag2+1)^080h),w
  2112  07BE  0422               	iorwf	((_flag2)^080h),w
  2113  07BF  1D03               	skipz
  2114  07C0  2FC2               	goto	u4061
  2115  07C1  2FC3               	goto	u4060
  2116  07C2                     u4061:
  2117  07C2  2FD3               	goto	l4041
  2118  07C3                     u4060:
  2119                           	line	334
  2120                           	
  2121  07C3                     l4037:	
  2122                           ;Indu886.c: 333: {
  2123                           ;Indu886.c: 334: flag1=1;
  2124  07C3  3001               	movlw	low(01h)
  2125  07C4  1283               	bcf	status, 5	;RP0=0, select bank0
  2126  07C5  1303               	bcf	status, 6	;RP1=0, select bank0
  2127  07C6  00E6               	movwf	(_flag1)
  2128  07C7  3000               	movlw	high(01h)
  2129  07C8  00E7               	movwf	((_flag1))+1
  2130                           	line	335
  2131                           	
  2132  07C9                     l4039:	
  2133                           ;Indu886.c: 335: gsm(2);
  2134  07C9  3002               	movlw	low(02h)
  2135  07CA  00F4               	movwf	(?_gsm)
  2136  07CB  3000               	movlw	high(02h)
  2137  07CC  00F5               	movwf	((?_gsm))+1
  2138  07CD  120A  158A  2589   	fcall	_gsm
              120A  118A         
  2139  07D2  2FD3               	goto	l4041
  2140                           	line	336
  2141                           	
  2142  07D3                     l1092:	
  2143                           	line	337
  2144                           	
  2145  07D3                     l4041:	
  2146                           ;Indu886.c: 336: }
  2147                           ;Indu886.c: 337: if(RA3==1&&flag1==1)
  2148  07D3  1283               	bcf	status, 5	;RP0=0, select bank0
  2149  07D4  1303               	bcf	status, 6	;RP1=0, select bank0
  2150  07D5  1D85               	btfss	(43/8),(43)&7
  2151  07D6  2FD8               	goto	u4071
  2152  07D7  2FD9               	goto	u4070
  2153  07D8                     u4071:
  2154  07D8  2FF0               	goto	l4049
  2155  07D9                     u4070:
  2156                           	
  2157  07D9                     l4043:	
  2158  07D9  3001               	movlw	01h
  2159  07DA  0666               	xorwf	(_flag1),w
  2160  07DB  0467               	iorwf	(_flag1+1),w
  2161  07DC  1D03               	skipz
  2162  07DD  2FDF               	goto	u4081
  2163  07DE  2FE0               	goto	u4080
  2164  07DF                     u4081:
  2165  07DF  2FF0               	goto	l4049
  2166  07E0                     u4080:
  2167                           	line	339
  2168                           	
  2169  07E0                     l4045:	
  2170                           ;Indu886.c: 338: {
  2171                           ;Indu886.c: 339: gsm(3);
  2172  07E0  3003               	movlw	low(03h)
  2173  07E1  00F4               	movwf	(?_gsm)
  2174  07E2  3000               	movlw	high(03h)
  2175  07E3  00F5               	movwf	((?_gsm))+1
  2176  07E4  120A  158A  2589   	fcall	_gsm
              120A  118A         
  2177                           	line	340
  2178                           	
  2179  07E9                     l4047:	
  2180                           ;Indu886.c: 340: flag1=2;
  2181  07E9  3002               	movlw	low(02h)
  2182  07EA  1283               	bcf	status, 5	;RP0=0, select bank0
  2183  07EB  1303               	bcf	status, 6	;RP1=0, select bank0
  2184  07EC  00E6               	movwf	(_flag1)
  2185  07ED  3000               	movlw	high(02h)
  2186  07EE  00E7               	movwf	((_flag1))+1
  2187  07EF  2FF0               	goto	l4049
  2188                           	line	341
  2189                           	
  2190  07F0                     l1093:	
  2191                           	line	342
  2192                           	
  2193  07F0                     l4049:	
  2194                           ;Indu886.c: 341: }
  2195                           ;Indu886.c: 342: if(RA4==1)
  2196  07F0  1E05               	btfss	(44/8),(44)&7
  2197  07F1  2FF3               	goto	u4091
  2198  07F2  2FF4               	goto	u4090
  2199  07F3                     u4091:
  2200  07F3  2DA7               	goto	l3937
  2201  07F4                     u4090:
  2202                           	line	344
  2203                           	
  2204  07F4                     l4051:	
  2205                           ;Indu886.c: 343: {
  2206                           ;Indu886.c: 344: flag1=0;
  2207  07F4  01E6               	clrf	(_flag1)
  2208  07F5  01E7               	clrf	(_flag1+1)
  2209                           	line	345
  2210                           ;Indu886.c: 345: flag2=0;
  2211  07F6  1683               	bsf	status, 5	;RP0=1, select bank1
  2212  07F7  1303               	bcf	status, 6	;RP1=0, select bank1
  2213  07F8  01A2               	clrf	(_flag2)^080h
  2214  07F9  01A3               	clrf	(_flag2+1)^080h
  2215  07FA  2DA7               	goto	l3937
  2216                           	line	346
  2217                           	
  2218  07FB                     l1094:	
  2219  07FB  2DA7               	goto	l3937
  2220                           	line	347
  2221                           	
  2222  07FC                     l1095:	
  2223                           	line	287
  2224  07FC  2DA7               	goto	l3937
  2225                           	
  2226  07FD                     l1096:	
  2227                           	line	348
  2228                           	
  2229  07FD                     l1097:	
  2230                           	global	start
  2231  07FD  120A  118A  2800   	ljmp	start
  2232                           	opt stack 0
  2233                           GLOBAL	__end_of_main
  2234  0800                     	__end_of_main:
  2235 ;; =============== function _main ends ============
  2236                           
  2237                           	signat	_main,88
  2238                           	global	_adc
  2239                           psect	text599,local,class=CODE,delta=2
  2240                           global __ptext599
  2241  0271                     __ptext599:
  2242                           
  2243 ;; *************** function _adc *****************
  2244 ;; Defined at:
  2245 ;;		line 205 in file "D:\Embedded\pic\code\Indu886.c"
  2246 ;; Parameters:    Size  Location     Type
  2247 ;;		None
  2248 ;; Auto vars:     Size  Location     Type
  2249 ;;  Final_value     2   53[BANK0 ] int 
  2250 ;;  temp            3   28[BANK0 ] float 
  2251 ;;  temp_d          2   51[BANK0 ] int 
  2252 ;;  temp_b          2   49[BANK0 ] int 
  2253 ;;  sensorvalue     2   47[BANK0 ] int 
  2254 ;;  u               2   45[BANK0 ] int 
  2255 ;;  temp_f          2   43[BANK0 ] int 
  2256 ;;  temp_e          2   41[BANK0 ] int 
  2257 ;;  temp_c          2   39[BANK0 ] int 
  2258 ;;  temp_a          2   37[BANK0 ] int 
  2259 ;;  low             2   35[BANK0 ] int 
  2260 ;;  high            2   33[BANK0 ] int 
  2261 ;;  vari1           2   31[BANK0 ] int 
  2262 ;; Return value:  Size  Location     Type
  2263 ;;		None               void
  2264 ;; Registers used:
  2265 ;;		wreg, fsr0l, fsr0h, status,2, status,0, btemp+1, pclath, cstack
  2266 ;; Tracked objects:
  2267 ;;		On entry : 0/0
  2268 ;;		On exit  : 0/0
  2269 ;;		Unchanged: 0/0
  2270 ;; Data sizes:     COMMON   BANK0   BANK1   BANK3   BANK2
  2271 ;;      Params:         0       0       0       0       0
  2272 ;;      Locals:         0      27       0       0       0
  2273 ;;      Temps:          0       2       0       0       0
  2274 ;;      Totals:         0      29       0       0       0
  2275 ;;Total ram usage:       29 bytes
  2276 ;; Hardware stack levels used:    1
  2277 ;; Hardware stack levels required when called:    4
  2278 ;; This function calls:
  2279 ;;		_lcd_cmd
  2280 ;;		_string
  2281 ;;		___awtoft
  2282 ;;		___ftmul
  2283 ;;		___fttol
  2284 ;;		___awdiv
  2285 ;;		___awmod
  2286 ;;		_gsm
  2287 ;;		_delay
  2288 ;; This function is called by:
  2289 ;;		_main
  2290 ;; This function uses a non-reentrant model
  2291 ;;
  2292                           psect	text599
  2293                           	file	"D:\Embedded\pic\code\Indu886.c"
  2294                           	line	205
  2295                           	global	__size_of_adc
  2296  02C1                     	__size_of_adc	equ	__end_of_adc-_adc
  2297                           	
  2298  0271                     _adc:	
  2299                           	opt	stack 3
  2300                           ; Regs used in _adc: [wreg-fsr0h+status,2+status,0+btemp+1+pclath+cstack]
  2301                           	line	212
  2302                           	
  2303  0271                     l3801:	
  2304                           ;Indu886.c: 206: auto int vari1;
  2305                           ;Indu886.c: 207: auto float temp;
  2306                           ;Indu886.c: 208: auto int high,low,sensorvalue;
  2307                           ;Indu886.c: 209: auto int temp_a,temp_b,temp_c,temp_d,temp_e,temp_f;
  2308                           ;Indu886.c: 211: int u;
  2309                           ;Indu886.c: 212: if(u==0)
  2310  0271  1283               	bcf	status, 5	;RP0=0, select bank0
  2311  0272  1303               	bcf	status, 6	;RP1=0, select bank0
  2312  0273  084E               	movf	((adc@u+1)),w
  2313  0274  044D               	iorwf	((adc@u)),w
  2314  0275  1D03               	skipz
  2315  0276  2A78               	goto	u3971
  2316  0277  2A79               	goto	u3970
  2317  0278                     u3971:
  2318  0278  2AE0               	goto	l3815
  2319  0279                     u3970:
  2320                           	line	214
  2321                           	
  2322  0279                     l3803:	
  2323                           ;Indu886.c: 213: {
  2324                           ;Indu886.c: 214: lcd_cmd(0,0,0X90);
  2325  0279  3000               	movlw	low(0)
  2326  027A  00F2               	movwf	(?_lcd_cmd)
  2327  027B  3000               	movlw	high(0)
  2328  027C  00F3               	movwf	((?_lcd_cmd))+1
  2329  027D  3000               	movlw	low(0)
  2330  027E  00F4               	movwf	0+(?_lcd_cmd)+02h
  2331  027F  3000               	movlw	high(0)
  2332  0280  00F5               	movwf	(0+(?_lcd_cmd)+02h)+1
  2333  0281  3090               	movlw	(090h)
  2334  0282  00BA               	movwf	(??_adc+0)+0
  2335  0283  083A               	movf	(??_adc+0)+0,w
  2336  0284  00F6               	movwf	0+(?_lcd_cmd)+04h
  2337  0285  120A  158A  22C5   	fcall	_lcd_cmd
              120A  118A         
  2338                           	line	215
  2339                           	
  2340  028A                     l3805:	
  2341                           ;Indu886.c: 215: string("Temp: ");
  2342  028A  30FB               	movlw	low(STR_11|8000h)
  2343  028B  00F8               	movwf	(?_string)
  2344  028C  3088               	movlw	high(STR_11|8000h)
  2345  028D  00F9               	movwf	((?_string))+1
  2346  028E  120A  158A  2359   	fcall	_string
              120A  118A         
  2347                           	line	216
  2348                           	
  2349  0293                     l3807:	
  2350                           ;Indu886.c: 216: lcd_cmd(1,0,'0');
  2351  0293  3001               	movlw	low(01h)
  2352  0294  00F2               	movwf	(?_lcd_cmd)
  2353  0295  3000               	movlw	high(01h)
  2354  0296  00F3               	movwf	((?_lcd_cmd))+1
  2355  0297  3000               	movlw	low(0)
  2356  0298  00F4               	movwf	0+(?_lcd_cmd)+02h
  2357  0299  3000               	movlw	high(0)
  2358  029A  00F5               	movwf	(0+(?_lcd_cmd)+02h)+1
  2359  029B  3030               	movlw	(030h)
  2360  029C  1283               	bcf	status, 5	;RP0=0, select bank0
  2361  029D  1303               	bcf	status, 6	;RP1=0, select bank0
  2362  029E  00BA               	movwf	(??_adc+0)+0
  2363  029F  083A               	movf	(??_adc+0)+0,w
  2364  02A0  00F6               	movwf	0+(?_lcd_cmd)+04h
  2365  02A1  120A  158A  22C5   	fcall	_lcd_cmd
              120A  118A         
  2366                           	line	217
  2367                           	
  2368  02A6                     l3809:	
  2369                           ;Indu886.c: 217: lcd_cmd(1,0,'0');
  2370  02A6  3001               	movlw	low(01h)
  2371  02A7  00F2               	movwf	(?_lcd_cmd)
  2372  02A8  3000               	movlw	high(01h)
  2373  02A9  00F3               	movwf	((?_lcd_cmd))+1
  2374  02AA  3000               	movlw	low(0)
  2375  02AB  00F4               	movwf	0+(?_lcd_cmd)+02h
  2376  02AC  3000               	movlw	high(0)
  2377  02AD  00F5               	movwf	(0+(?_lcd_cmd)+02h)+1
  2378  02AE  3030               	movlw	(030h)
  2379  02AF  1283               	bcf	status, 5	;RP0=0, select bank0
  2380  02B0  1303               	bcf	status, 6	;RP1=0, select bank0
  2381  02B1  00BA               	movwf	(??_adc+0)+0
  2382  02B2  083A               	movf	(??_adc+0)+0,w
  2383  02B3  00F6               	movwf	0+(?_lcd_cmd)+04h
  2384  02B4  120A  158A  22C5   	fcall	_lcd_cmd
              120A  118A         
  2385                           	line	218
  2386                           	
  2387  02B9                     l3811:	
  2388                           ;Indu886.c: 218: lcd_cmd(1,0,'0');
  2389  02B9  3001               	movlw	low(01h)
  2390  02BA  00F2               	movwf	(?_lcd_cmd)
  2391  02BB  3000               	movlw	high(01h)
  2392  02BC  00F3               	movwf	((?_lcd_cmd))+1
  2393  02BD  3000               	movlw	low(0)
  2394  02BE  00F4               	movwf	0+(?_lcd_cmd)+02h
  2395  02BF  3000               	movlw	high(0)
  2396  02C0  00F5               	movwf	(0+(?_lcd_cmd)+02h)+1
  2397  02C1  3030               	movlw	(030h)
  2398  02C2  1283               	bcf	status, 5	;RP0=0, select bank0
  2399  02C3  1303               	bcf	status, 6	;RP1=0, select bank0
  2400  02C4  00BA               	movwf	(??_adc+0)+0
  2401  02C5  083A               	movf	(??_adc+0)+0,w
  2402  02C6  00F6               	movwf	0+(?_lcd_cmd)+04h
  2403  02C7  120A  158A  22C5   	fcall	_lcd_cmd
              120A  118A         
  2404                           	line	219
  2405                           	
  2406  02CC                     l3813:	
  2407                           ;Indu886.c: 219: lcd_cmd(1,0,'0');
  2408  02CC  3001               	movlw	low(01h)
  2409  02CD  00F2               	movwf	(?_lcd_cmd)
  2410  02CE  3000               	movlw	high(01h)
  2411  02CF  00F3               	movwf	((?_lcd_cmd))+1
  2412  02D0  3000               	movlw	low(0)
  2413  02D1  00F4               	movwf	0+(?_lcd_cmd)+02h
  2414  02D2  3000               	movlw	high(0)
  2415  02D3  00F5               	movwf	(0+(?_lcd_cmd)+02h)+1
  2416  02D4  3030               	movlw	(030h)
  2417  02D5  1283               	bcf	status, 5	;RP0=0, select bank0
  2418  02D6  1303               	bcf	status, 6	;RP1=0, select bank0
  2419  02D7  00BA               	movwf	(??_adc+0)+0
  2420  02D8  083A               	movf	(??_adc+0)+0,w
  2421  02D9  00F6               	movwf	0+(?_lcd_cmd)+04h
  2422  02DA  120A  158A  22C5   	fcall	_lcd_cmd
              120A  118A         
  2423  02DF  2AE0               	goto	l3815
  2424                           	line	220
  2425                           	
  2426  02E0                     l1081:	
  2427                           	line	221
  2428                           	
  2429  02E0                     l3815:	
  2430                           ;Indu886.c: 220: }
  2431                           ;Indu886.c: 221: ADCON0=0X93;
  2432  02E0  3093               	movlw	(093h)
  2433  02E1  1283               	bcf	status, 5	;RP0=0, select bank0
  2434  02E2  1303               	bcf	status, 6	;RP1=0, select bank0
  2435  02E3  009F               	movwf	(31)	;volatile
  2436                           	line	222
  2437                           	
  2438  02E4                     l3817:	
  2439                           ;Indu886.c: 222: ADCON1=0X80;
  2440  02E4  3080               	movlw	(080h)
  2441  02E5  1683               	bsf	status, 5	;RP0=1, select bank1
  2442  02E6  1303               	bcf	status, 6	;RP1=0, select bank1
  2443  02E7  009F               	movwf	(159)^080h	;volatile
  2444                           	line	223
  2445                           	
  2446  02E8                     l3819:	
  2447                           ;Indu886.c: 223: high=ADRESH;
  2448  02E8  1283               	bcf	status, 5	;RP0=0, select bank0
  2449  02E9  1303               	bcf	status, 6	;RP1=0, select bank0
  2450  02EA  081E               	movf	(30),w	;volatile
  2451  02EB  00BA               	movwf	(??_adc+0)+0
  2452  02EC  01BB               	clrf	(??_adc+0)+0+1
  2453  02ED  083A               	movf	0+(??_adc+0)+0,w
  2454  02EE  00C1               	movwf	(adc@high)
  2455  02EF  083B               	movf	1+(??_adc+0)+0,w
  2456  02F0  00C2               	movwf	(adc@high+1)
  2457                           	line	224
  2458                           	
  2459  02F1                     l3821:	
  2460                           ;Indu886.c: 224: low=ADRESL;
  2461  02F1  1683               	bsf	status, 5	;RP0=1, select bank1
  2462  02F2  1303               	bcf	status, 6	;RP1=0, select bank1
  2463  02F3  081E               	movf	(158)^080h,w	;volatile
  2464  02F4  1283               	bcf	status, 5	;RP0=0, select bank0
  2465  02F5  1303               	bcf	status, 6	;RP1=0, select bank0
  2466  02F6  00BA               	movwf	(??_adc+0)+0
  2467  02F7  01BB               	clrf	(??_adc+0)+0+1
  2468  02F8  083A               	movf	0+(??_adc+0)+0,w
  2469  02F9  00C3               	movwf	(adc@low)
  2470  02FA  083B               	movf	1+(??_adc+0)+0,w
  2471  02FB  00C4               	movwf	(adc@low+1)
  2472                           	line	225
  2473                           	
  2474  02FC                     l3823:	
  2475                           ;Indu886.c: 225: sensorvalue=low+(high*256);
  2476  02FC  0842               	movf	(adc@high+1),w
  2477  02FD  00BB               	movwf	(??_adc+0)+0+1
  2478  02FE  0841               	movf	(adc@high),w
  2479  02FF  00BA               	movwf	(??_adc+0)+0
  2480  0300  083A               	movf	(??_adc+0)+0,w
  2481  0301  00BB               	movwf	(??_adc+0)+1
  2482  0302  01BA               	clrf	(??_adc+0)+0
  2483  0303  0843               	movf	(adc@low),w
  2484  0304  073A               	addwf	0+(??_adc+0)+0,w
  2485  0305  00CF               	movwf	(adc@sensorvalue)
  2486  0306  0844               	movf	(adc@low+1),w
  2487  0307  1803               	skipnc
  2488  0308  0A44               	incf	(adc@low+1),w
  2489  0309  073B               	addwf	1+(??_adc+0)+0,w
  2490  030A  00D0               	movwf	1+(adc@sensorvalue)
  2491                           	line	226
  2492                           	
  2493  030B                     l3825:	
  2494                           ;Indu886.c: 226: if(sensorvalue>=680)
  2495  030B  0850               	movf	(adc@sensorvalue+1),w
  2496  030C  3A80               	xorlw	80h
  2497  030D  00FF               	movwf	btemp+1
  2498  030E  3082               	movlw	(high(02A8h))^80h
  2499  030F  027F               	subwf	btemp+1,w
  2500  0310  1D03               	skipz
  2501  0311  2B14               	goto	u3985
  2502  0312  30A8               	movlw	low(02A8h)
  2503  0313  024F               	subwf	(adc@sensorvalue),w
  2504  0314                     u3985:
  2505                           
  2506  0314  1C03               	skipc
  2507  0315  2B17               	goto	u3981
  2508  0316  2B18               	goto	u3980
  2509  0317                     u3981:
  2510  0317  2D2C               	goto	l3905
  2511  0318                     u3980:
  2512                           	line	228
  2513                           	
  2514  0318                     l3827:	
  2515                           ;Indu886.c: 227: {
  2516                           ;Indu886.c: 228: u=1;
  2517  0318  3001               	movlw	low(01h)
  2518  0319  1283               	bcf	status, 5	;RP0=0, select bank0
  2519  031A  1303               	bcf	status, 6	;RP1=0, select bank0
  2520  031B  00CD               	movwf	(adc@u)
  2521  031C  3000               	movlw	high(01h)
  2522  031D  00CE               	movwf	((adc@u))+1
  2523                           	line	230
  2524                           	
  2525  031E                     l3829:	
  2526                           ;Indu886.c: 229: int Final_value;
  2527                           ;Indu886.c: 230: vari1=sensorvalue-680;
  2528  031E  084F               	movf	(adc@sensorvalue),w
  2529  031F  3E58               	addlw	low(-680)
  2530  0320  00BF               	movwf	(adc@vari1)
  2531  0321  0850               	movf	(adc@sensorvalue+1),w
  2532  0322  1803               	skipnc
  2533  0323  3E01               	addlw	1
  2534  0324  3EFD               	addlw	high(-680)
  2535  0325  00C0               	movwf	1+(adc@vari1)
  2536                           	line	231
  2537                           	
  2538  0326                     l3831:	
  2539                           ;Indu886.c: 231: temp=(vari1*0.2840);
  2540  0326  3068               	movlw	0x68
  2541  0327  00AA               	movwf	(?___ftmul)
  2542  0328  3091               	movlw	0x91
  2543  0329  00AB               	movwf	(?___ftmul+1)
  2544  032A  303E               	movlw	0x3e
  2545  032B  00AC               	movwf	(?___ftmul+2)
  2546  032C  0840               	movf	(adc@vari1+1),w
  2547  032D  01F9               	clrf	(?___awtoft+1)
  2548  032E  07F9               	addwf	(?___awtoft+1)
  2549  032F  083F               	movf	(adc@vari1),w
  2550  0330  01F8               	clrf	(?___awtoft)
  2551  0331  07F8               	addwf	(?___awtoft)
  2552                           
  2553  0332  120A  158A  229D   	fcall	___awtoft
              120A  118A         
  2554  0337  0878               	movf	(0+(?___awtoft)),w
  2555  0338  1283               	bcf	status, 5	;RP0=0, select bank0
  2556  0339  1303               	bcf	status, 6	;RP1=0, select bank0
  2557  033A  00AD               	movwf	0+(?___ftmul)+03h
  2558  033B  0879               	movf	(1+(?___awtoft)),w
  2559  033C  00AE               	movwf	1+(?___ftmul)+03h
  2560  033D  087A               	movf	(2+(?___awtoft)),w
  2561  033E  00AF               	movwf	2+(?___ftmul)+03h
  2562  033F  120A  158A  2712   	fcall	___ftmul
              120A  118A         
  2563  0344  1283               	bcf	status, 5	;RP0=0, select bank0
  2564  0345  1303               	bcf	status, 6	;RP1=0, select bank0
  2565  0346  082A               	movf	(0+(?___ftmul)),w
  2566  0347  00BC               	movwf	(adc@temp)
  2567  0348  082B               	movf	(1+(?___ftmul)),w
  2568  0349  00BD               	movwf	(adc@temp+1)
  2569  034A  082C               	movf	(2+(?___ftmul)),w
  2570  034B  00BE               	movwf	(adc@temp+2)
  2571                           	line	232
  2572                           	
  2573  034C                     l3833:	
  2574                           ;Indu886.c: 232: Final_value=temp*10;
  2575  034C  083C               	movf	(adc@temp),w
  2576  034D  00AD               	movwf	0+(?___ftmul)+03h
  2577  034E  083D               	movf	(adc@temp+1),w
  2578  034F  00AE               	movwf	1+(?___ftmul)+03h
  2579  0350  083E               	movf	(adc@temp+2),w
  2580  0351  00AF               	movwf	2+(?___ftmul)+03h
  2581  0352  3000               	movlw	0x0
  2582  0353  00AA               	movwf	(?___ftmul)
  2583  0354  3020               	movlw	0x20
  2584  0355  00AB               	movwf	(?___ftmul+1)
  2585  0356  3041               	movlw	0x41
  2586  0357  00AC               	movwf	(?___ftmul+2)
  2587  0358  120A  158A  2712   	fcall	___ftmul
              120A  118A         
  2588  035D  1283               	bcf	status, 5	;RP0=0, select bank0
  2589  035E  1303               	bcf	status, 6	;RP1=0, select bank0
  2590  035F  082A               	movf	(0+(?___ftmul)),w
  2591  0360  00F8               	movwf	(?___fttol)
  2592  0361  082B               	movf	(1+(?___ftmul)),w
  2593  0362  00F9               	movwf	(?___fttol+1)
  2594  0363  082C               	movf	(2+(?___ftmul)),w
  2595  0364  00FA               	movwf	(?___fttol+2)
  2596  0365  120A  158A  24E3   	fcall	___fttol
              120A  118A         
  2597  036A  0879               	movf	1+(((0+(?___fttol)))),w
  2598  036B  1283               	bcf	status, 5	;RP0=0, select bank0
  2599  036C  1303               	bcf	status, 6	;RP1=0, select bank0
  2600  036D  01D6               	clrf	(adc@Final_value+1)
  2601  036E  07D6               	addwf	(adc@Final_value+1)
  2602  036F  0878               	movf	0+(((0+(?___fttol)))),w
  2603  0370  01D5               	clrf	(adc@Final_value)
  2604  0371  07D5               	addwf	(adc@Final_value)
  2605                           
  2606                           	line	234
  2607                           	
  2608  0372                     l3835:	
  2609                           ;Indu886.c: 234: temp_a=Final_value/1000;
  2610  0372  30E8               	movlw	low(03E8h)
  2611  0373  00F0               	movwf	(?___awdiv)
  2612  0374  3003               	movlw	high(03E8h)
  2613  0375  00F1               	movwf	((?___awdiv))+1
  2614  0376  0856               	movf	(adc@Final_value+1),w
  2615  0377  01F3               	clrf	1+(?___awdiv)+02h
  2616  0378  07F3               	addwf	1+(?___awdiv)+02h
  2617  0379  0855               	movf	(adc@Final_value),w
  2618  037A  01F2               	clrf	0+(?___awdiv)+02h
  2619  037B  07F2               	addwf	0+(?___awdiv)+02h
  2620                           
  2621  037C  120A  158A  23F4   	fcall	___awdiv
              120A  118A         
  2622  0381  0871               	movf	(1+(?___awdiv)),w
  2623  0382  1283               	bcf	status, 5	;RP0=0, select bank0
  2624  0383  1303               	bcf	status, 6	;RP1=0, select bank0
  2625  0384  01C6               	clrf	(adc@temp_a+1)
  2626  0385  07C6               	addwf	(adc@temp_a+1)
  2627  0386  0870               	movf	(0+(?___awdiv)),w
  2628  0387  01C5               	clrf	(adc@temp_a)
  2629  0388  07C5               	addwf	(adc@temp_a)
  2630                           
  2631                           	line	235
  2632                           	
  2633  0389                     l3837:	
  2634                           ;Indu886.c: 235: temp_b=Final_value%1000;
  2635  0389  30E8               	movlw	low(03E8h)
  2636  038A  00F0               	movwf	(?___awmod)
  2637  038B  3003               	movlw	high(03E8h)
  2638  038C  00F1               	movwf	((?___awmod))+1
  2639  038D  0856               	movf	(adc@Final_value+1),w
  2640  038E  01F3               	clrf	1+(?___awmod)+02h
  2641  038F  07F3               	addwf	1+(?___awmod)+02h
  2642  0390  0855               	movf	(adc@Final_value),w
  2643  0391  01F2               	clrf	0+(?___awmod)+02h
  2644  0392  07F2               	addwf	0+(?___awmod)+02h
  2645                           
  2646  0393  120A  158A  238E   	fcall	___awmod
              120A  118A         
  2647  0398  0871               	movf	(1+(?___awmod)),w
  2648  0399  1283               	bcf	status, 5	;RP0=0, select bank0
  2649  039A  1303               	bcf	status, 6	;RP1=0, select bank0
  2650  039B  01D2               	clrf	(adc@temp_b+1)
  2651  039C  07D2               	addwf	(adc@temp_b+1)
  2652  039D  0870               	movf	(0+(?___awmod)),w
  2653  039E  01D1               	clrf	(adc@temp_b)
  2654  039F  07D1               	addwf	(adc@temp_b)
  2655                           
  2656                           	line	236
  2657                           	
  2658  03A0                     l3839:	
  2659                           ;Indu886.c: 236: temp_c=temp_b/100;
  2660  03A0  3064               	movlw	low(064h)
  2661  03A1  00F0               	movwf	(?___awdiv)
  2662  03A2  3000               	movlw	high(064h)
  2663  03A3  00F1               	movwf	((?___awdiv))+1
  2664  03A4  0852               	movf	(adc@temp_b+1),w
  2665  03A5  01F3               	clrf	1+(?___awdiv)+02h
  2666  03A6  07F3               	addwf	1+(?___awdiv)+02h
  2667  03A7  0851               	movf	(adc@temp_b),w
  2668  03A8  01F2               	clrf	0+(?___awdiv)+02h
  2669  03A9  07F2               	addwf	0+(?___awdiv)+02h
  2670                           
  2671  03AA  120A  158A  23F4   	fcall	___awdiv
              120A  118A         
  2672  03AF  0871               	movf	(1+(?___awdiv)),w
  2673  03B0  1283               	bcf	status, 5	;RP0=0, select bank0
  2674  03B1  1303               	bcf	status, 6	;RP1=0, select bank0
  2675  03B2  01C8               	clrf	(adc@temp_c+1)
  2676  03B3  07C8               	addwf	(adc@temp_c+1)
  2677  03B4  0870               	movf	(0+(?___awdiv)),w
  2678  03B5  01C7               	clrf	(adc@temp_c)
  2679  03B6  07C7               	addwf	(adc@temp_c)
  2680                           
  2681                           	line	237
  2682                           	
  2683  03B7                     l3841:	
  2684                           ;Indu886.c: 237: temp_d=temp_b%100;
  2685  03B7  3064               	movlw	low(064h)
  2686  03B8  00F0               	movwf	(?___awmod)
  2687  03B9  3000               	movlw	high(064h)
  2688  03BA  00F1               	movwf	((?___awmod))+1
  2689  03BB  0852               	movf	(adc@temp_b+1),w
  2690  03BC  01F3               	clrf	1+(?___awmod)+02h
  2691  03BD  07F3               	addwf	1+(?___awmod)+02h
  2692  03BE  0851               	movf	(adc@temp_b),w
  2693  03BF  01F2               	clrf	0+(?___awmod)+02h
  2694  03C0  07F2               	addwf	0+(?___awmod)+02h
  2695                           
  2696  03C1  120A  158A  238E   	fcall	___awmod
              120A  118A         
  2697  03C6  0871               	movf	(1+(?___awmod)),w
  2698  03C7  1283               	bcf	status, 5	;RP0=0, select bank0
  2699  03C8  1303               	bcf	status, 6	;RP1=0, select bank0
  2700  03C9  01D4               	clrf	(adc@temp_d+1)
  2701  03CA  07D4               	addwf	(adc@temp_d+1)
  2702  03CB  0870               	movf	(0+(?___awmod)),w
  2703  03CC  01D3               	clrf	(adc@temp_d)
  2704  03CD  07D3               	addwf	(adc@temp_d)
  2705                           
  2706                           	line	238
  2707                           	
  2708  03CE                     l3843:	
  2709                           ;Indu886.c: 238: temp_e=temp_d/10;
  2710  03CE  300A               	movlw	low(0Ah)
  2711  03CF  00F0               	movwf	(?___awdiv)
  2712  03D0  3000               	movlw	high(0Ah)
  2713  03D1  00F1               	movwf	((?___awdiv))+1
  2714  03D2  0854               	movf	(adc@temp_d+1),w
  2715  03D3  01F3               	clrf	1+(?___awdiv)+02h
  2716  03D4  07F3               	addwf	1+(?___awdiv)+02h
  2717  03D5  0853               	movf	(adc@temp_d),w
  2718  03D6  01F2               	clrf	0+(?___awdiv)+02h
  2719  03D7  07F2               	addwf	0+(?___awdiv)+02h
  2720                           
  2721  03D8  120A  158A  23F4   	fcall	___awdiv
              120A  118A         
  2722  03DD  0871               	movf	(1+(?___awdiv)),w
  2723  03DE  1283               	bcf	status, 5	;RP0=0, select bank0
  2724  03DF  1303               	bcf	status, 6	;RP1=0, select bank0
  2725  03E0  01CA               	clrf	(adc@temp_e+1)
  2726  03E1  07CA               	addwf	(adc@temp_e+1)
  2727  03E2  0870               	movf	(0+(?___awdiv)),w
  2728  03E3  01C9               	clrf	(adc@temp_e)
  2729  03E4  07C9               	addwf	(adc@temp_e)
  2730                           
  2731                           	line	239
  2732                           	
  2733  03E5                     l3845:	
  2734                           ;Indu886.c: 239: temp_f=temp_d%10;
  2735  03E5  300A               	movlw	low(0Ah)
  2736  03E6  00F0               	movwf	(?___awmod)
  2737  03E7  3000               	movlw	high(0Ah)
  2738  03E8  00F1               	movwf	((?___awmod))+1
  2739  03E9  0854               	movf	(adc@temp_d+1),w
  2740  03EA  01F3               	clrf	1+(?___awmod)+02h
  2741  03EB  07F3               	addwf	1+(?___awmod)+02h
  2742  03EC  0853               	movf	(adc@temp_d),w
  2743  03ED  01F2               	clrf	0+(?___awmod)+02h
  2744  03EE  07F2               	addwf	0+(?___awmod)+02h
  2745                           
  2746  03EF  120A  158A  238E   	fcall	___awmod
              120A  118A         
  2747  03F4  0871               	movf	(1+(?___awmod)),w
  2748  03F5  1283               	bcf	status, 5	;RP0=0, select bank0
  2749  03F6  1303               	bcf	status, 6	;RP1=0, select bank0
  2750  03F7  01CC               	clrf	(adc@temp_f+1)
  2751  03F8  07CC               	addwf	(adc@temp_f+1)
  2752  03F9  0870               	movf	(0+(?___awmod)),w
  2753  03FA  01CB               	clrf	(adc@temp_f)
  2754  03FB  07CB               	addwf	(adc@temp_f)
  2755                           
  2756                           	line	240
  2757                           	
  2758  03FC                     l3847:	
  2759                           ;Indu886.c: 240: lcd_cmd(0,0,0X90);
  2760  03FC  3000               	movlw	low(0)
  2761  03FD  00F2               	movwf	(?_lcd_cmd)
  2762  03FE  3000               	movlw	high(0)
  2763  03FF  00F3               	movwf	((?_lcd_cmd))+1
  2764  0400  3000               	movlw	low(0)
  2765  0401  00F4               	movwf	0+(?_lcd_cmd)+02h
  2766  0402  3000               	movlw	high(0)
  2767  0403  00F5               	movwf	(0+(?_lcd_cmd)+02h)+1
  2768  0404  3090               	movlw	(090h)
  2769  0405  00BA               	movwf	(??_adc+0)+0
  2770  0406  083A               	movf	(??_adc+0)+0,w
  2771  0407  00F6               	movwf	0+(?_lcd_cmd)+04h
  2772  0408  120A  158A  22C5   	fcall	_lcd_cmd
              120A  118A         
  2773                           	line	241
  2774                           	
  2775  040D                     l3849:	
  2776                           ;Indu886.c: 241: string("Temp: ");
  2777  040D  30FB               	movlw	low(STR_12|8000h)
  2778  040E  00F8               	movwf	(?_string)
  2779  040F  3088               	movlw	high(STR_12|8000h)
  2780  0410  00F9               	movwf	((?_string))+1
  2781  0411  120A  158A  2359   	fcall	_string
              120A  118A         
  2782                           	line	242
  2783                           	
  2784  0416                     l3851:	
  2785                           ;Indu886.c: 242: lcd_cmd(1,0,0X30+temp_a);
  2786  0416  3001               	movlw	low(01h)
  2787  0417  00F2               	movwf	(?_lcd_cmd)
  2788  0418  3000               	movlw	high(01h)
  2789  0419  00F3               	movwf	((?_lcd_cmd))+1
  2790  041A  3000               	movlw	low(0)
  2791  041B  00F4               	movwf	0+(?_lcd_cmd)+02h
  2792  041C  3000               	movlw	high(0)
  2793  041D  00F5               	movwf	(0+(?_lcd_cmd)+02h)+1
  2794  041E  1283               	bcf	status, 5	;RP0=0, select bank0
  2795  041F  1303               	bcf	status, 6	;RP1=0, select bank0
  2796  0420  0845               	movf	(adc@temp_a),w
  2797  0421  3E30               	addlw	030h
  2798  0422  00BA               	movwf	(??_adc+0)+0
  2799  0423  083A               	movf	(??_adc+0)+0,w
  2800  0424  00F6               	movwf	0+(?_lcd_cmd)+04h
  2801  0425  120A  158A  22C5   	fcall	_lcd_cmd
              120A  118A         
  2802                           	line	243
  2803                           	
  2804  042A                     l3853:	
  2805                           ;Indu886.c: 243: lcd_cmd(1,0,0X30+temp_c);
  2806  042A  3001               	movlw	low(01h)
  2807  042B  00F2               	movwf	(?_lcd_cmd)
  2808  042C  3000               	movlw	high(01h)
  2809  042D  00F3               	movwf	((?_lcd_cmd))+1
  2810  042E  3000               	movlw	low(0)
  2811  042F  00F4               	movwf	0+(?_lcd_cmd)+02h
  2812  0430  3000               	movlw	high(0)
  2813  0431  00F5               	movwf	(0+(?_lcd_cmd)+02h)+1
  2814  0432  1283               	bcf	status, 5	;RP0=0, select bank0
  2815  0433  1303               	bcf	status, 6	;RP1=0, select bank0
  2816  0434  0847               	movf	(adc@temp_c),w
  2817  0435  3E30               	addlw	030h
  2818  0436  00BA               	movwf	(??_adc+0)+0
  2819  0437  083A               	movf	(??_adc+0)+0,w
  2820  0438  00F6               	movwf	0+(?_lcd_cmd)+04h
  2821  0439  120A  158A  22C5   	fcall	_lcd_cmd
              120A  118A         
  2822                           	line	244
  2823                           	
  2824  043E                     l3855:	
  2825                           ;Indu886.c: 244: lcd_cmd(1,0,0X30+temp_e);
  2826  043E  3001               	movlw	low(01h)
  2827  043F  00F2               	movwf	(?_lcd_cmd)
  2828  0440  3000               	movlw	high(01h)
  2829  0441  00F3               	movwf	((?_lcd_cmd))+1
  2830  0442  3000               	movlw	low(0)
  2831  0443  00F4               	movwf	0+(?_lcd_cmd)+02h
  2832  0444  3000               	movlw	high(0)
  2833  0445  00F5               	movwf	(0+(?_lcd_cmd)+02h)+1
  2834  0446  1283               	bcf	status, 5	;RP0=0, select bank0
  2835  0447  1303               	bcf	status, 6	;RP1=0, select bank0
  2836  0448  0849               	movf	(adc@temp_e),w
  2837  0449  3E30               	addlw	030h
  2838  044A  00BA               	movwf	(??_adc+0)+0
  2839  044B  083A               	movf	(??_adc+0)+0,w
  2840  044C  00F6               	movwf	0+(?_lcd_cmd)+04h
  2841  044D  120A  158A  22C5   	fcall	_lcd_cmd
              120A  118A         
  2842                           	line	245
  2843                           	
  2844  0452                     l3857:	
  2845                           ;Indu886.c: 245: lcd_cmd(1,0,0X30+temp_f);
  2846  0452  3001               	movlw	low(01h)
  2847  0453  00F2               	movwf	(?_lcd_cmd)
  2848  0454  3000               	movlw	high(01h)
  2849  0455  00F3               	movwf	((?_lcd_cmd))+1
  2850  0456  3000               	movlw	low(0)
  2851  0457  00F4               	movwf	0+(?_lcd_cmd)+02h
  2852  0458  3000               	movlw	high(0)
  2853  0459  00F5               	movwf	(0+(?_lcd_cmd)+02h)+1
  2854  045A  1283               	bcf	status, 5	;RP0=0, select bank0
  2855  045B  1303               	bcf	status, 6	;RP1=0, select bank0
  2856  045C  084B               	movf	(adc@temp_f),w
  2857  045D  3E30               	addlw	030h
  2858  045E  00BA               	movwf	(??_adc+0)+0
  2859  045F  083A               	movf	(??_adc+0)+0,w
  2860  0460  00F6               	movwf	0+(?_lcd_cmd)+04h
  2861  0461  120A  158A  22C5   	fcall	_lcd_cmd
              120A  118A         
  2862                           	line	247
  2863                           	
  2864  0466                     l3859:	
  2865                           ;Indu886.c: 247: if(Final_value>=260)
  2866  0466  1283               	bcf	status, 5	;RP0=0, select bank0
  2867  0467  1303               	bcf	status, 6	;RP1=0, select bank0
  2868  0468  0856               	movf	(adc@Final_value+1),w
  2869  0469  3A80               	xorlw	80h
  2870  046A  00FF               	movwf	btemp+1
  2871  046B  3081               	movlw	(high(0104h))^80h
  2872  046C  027F               	subwf	btemp+1,w
  2873  046D  1D03               	skipz
  2874  046E  2C71               	goto	u3995
  2875  046F  3004               	movlw	low(0104h)
  2876  0470  0255               	subwf	(adc@Final_value),w
  2877  0471                     u3995:
  2878                           
  2879  0471  1C03               	skipc
  2880  0472  2C74               	goto	u3991
  2881  0473  2C75               	goto	u3990
  2882  0474                     u3991:
  2883  0474  2D31               	goto	l1085
  2884  0475                     u3990:
  2885                           	line	249
  2886                           	
  2887  0475                     l3861:	
  2888                           ;Indu886.c: 248: {
  2889                           ;Indu886.c: 249: RC1=1;
  2890  0475  1283               	bcf	status, 5	;RP0=0, select bank0
  2891  0476  1303               	bcf	status, 6	;RP1=0, select bank0
  2892  0477  1487               	bsf	(57/8),(57)&7
  2893                           	line	250
  2894                           	
  2895  0478                     l3863:	
  2896                           ;Indu886.c: 250: flag1=1;
  2897  0478  3001               	movlw	low(01h)
  2898  0479  00E6               	movwf	(_flag1)
  2899  047A  3000               	movlw	high(01h)
  2900  047B  00E7               	movwf	((_flag1))+1
  2901                           	line	251
  2902                           	
  2903  047C                     l3865:	
  2904                           ;Indu886.c: 251: gsm(1);
  2905  047C  3001               	movlw	low(01h)
  2906  047D  00F4               	movwf	(?_gsm)
  2907  047E  3000               	movlw	high(01h)
  2908  047F  00F5               	movwf	((?_gsm))+1
  2909  0480  120A  158A  2589   	fcall	_gsm
              120A  118A         
  2910                           	line	252
  2911                           	
  2912  0485                     l3867:	
  2913                           ;Indu886.c: 252: delay(60000);delay(60000);delay(60000);delay(60000);delay(60000);delay(
                                 60000);
  2914  0485  3060               	movlw	low(0EA60h)
  2915  0486  00F0               	movwf	(?_delay)
  2916  0487  30EA               	movlw	high(0EA60h)
  2917  0488  00F1               	movwf	((?_delay))+1
  2918  0489  120A  158A  21E0   	fcall	_delay
              120A  118A         
  2919                           	
  2920  048E                     l3869:	
  2921  048E  3060               	movlw	low(0EA60h)
  2922  048F  00F0               	movwf	(?_delay)
  2923  0490  30EA               	movlw	high(0EA60h)
  2924  0491  00F1               	movwf	((?_delay))+1
  2925  0492  120A  158A  21E0   	fcall	_delay
              120A  118A         
  2926                           	
  2927  0497                     l3871:	
  2928  0497  3060               	movlw	low(0EA60h)
  2929  0498  00F0               	movwf	(?_delay)
  2930  0499  30EA               	movlw	high(0EA60h)
  2931  049A  00F1               	movwf	((?_delay))+1
  2932  049B  120A  158A  21E0   	fcall	_delay
              120A  118A         
  2933                           	
  2934  04A0                     l3873:	
  2935  04A0  3060               	movlw	low(0EA60h)
  2936  04A1  00F0               	movwf	(?_delay)
  2937  04A2  30EA               	movlw	high(0EA60h)
  2938  04A3  00F1               	movwf	((?_delay))+1
  2939  04A4  120A  158A  21E0   	fcall	_delay
              120A  118A         
  2940                           	
  2941  04A9                     l3875:	
  2942  04A9  3060               	movlw	low(0EA60h)
  2943  04AA  00F0               	movwf	(?_delay)
  2944  04AB  30EA               	movlw	high(0EA60h)
  2945  04AC  00F1               	movwf	((?_delay))+1
  2946  04AD  120A  158A  21E0   	fcall	_delay
              120A  118A         
  2947                           	
  2948  04B2                     l3877:	
  2949  04B2  3060               	movlw	low(0EA60h)
  2950  04B3  00F0               	movwf	(?_delay)
  2951  04B4  30EA               	movlw	high(0EA60h)
  2952  04B5  00F1               	movwf	((?_delay))+1
  2953  04B6  120A  158A  21E0   	fcall	_delay
              120A  118A         
  2954                           	line	253
  2955                           	
  2956  04BB                     l3879:	
  2957                           ;Indu886.c: 253: delay(60000);delay(60000);delay(60000);delay(60000);delay(60000);delay(
                                 60000);
  2958  04BB  3060               	movlw	low(0EA60h)
  2959  04BC  00F0               	movwf	(?_delay)
  2960  04BD  30EA               	movlw	high(0EA60h)
  2961  04BE  00F1               	movwf	((?_delay))+1
  2962  04BF  120A  158A  21E0   	fcall	_delay
              120A  118A         
  2963                           	
  2964  04C4                     l3881:	
  2965  04C4  3060               	movlw	low(0EA60h)
  2966  04C5  00F0               	movwf	(?_delay)
  2967  04C6  30EA               	movlw	high(0EA60h)
  2968  04C7  00F1               	movwf	((?_delay))+1
  2969  04C8  120A  158A  21E0   	fcall	_delay
              120A  118A         
  2970                           	
  2971  04CD                     l3883:	
  2972  04CD  3060               	movlw	low(0EA60h)
  2973  04CE  00F0               	movwf	(?_delay)
  2974  04CF  30EA               	movlw	high(0EA60h)
  2975  04D0  00F1               	movwf	((?_delay))+1
  2976  04D1  120A  158A  21E0   	fcall	_delay
              120A  118A         
  2977                           	
  2978  04D6                     l3885:	
  2979  04D6  3060               	movlw	low(0EA60h)
  2980  04D7  00F0               	movwf	(?_delay)
  2981  04D8  30EA               	movlw	high(0EA60h)
  2982  04D9  00F1               	movwf	((?_delay))+1
  2983  04DA  120A  158A  21E0   	fcall	_delay
              120A  118A         
  2984                           	
  2985  04DF                     l3887:	
  2986  04DF  3060               	movlw	low(0EA60h)
  2987  04E0  00F0               	movwf	(?_delay)
  2988  04E1  30EA               	movlw	high(0EA60h)
  2989  04E2  00F1               	movwf	((?_delay))+1
  2990  04E3  120A  158A  21E0   	fcall	_delay
              120A  118A         
  2991                           	
  2992  04E8                     l3889:	
  2993  04E8  3060               	movlw	low(0EA60h)
  2994  04E9  00F0               	movwf	(?_delay)
  2995  04EA  30EA               	movlw	high(0EA60h)
  2996  04EB  00F1               	movwf	((?_delay))+1
  2997  04EC  120A  158A  21E0   	fcall	_delay
              120A  118A         
  2998                           	line	254
  2999                           	
  3000  04F1                     l3891:	
  3001                           ;Indu886.c: 254: delay(60000);delay(60000);delay(60000);delay(60000);delay(60000);delay(
                                 60000);
  3002  04F1  3060               	movlw	low(0EA60h)
  3003  04F2  00F0               	movwf	(?_delay)
  3004  04F3  30EA               	movlw	high(0EA60h)
  3005  04F4  00F1               	movwf	((?_delay))+1
  3006  04F5  120A  158A  21E0   	fcall	_delay
              120A  118A         
  3007                           	
  3008  04FA                     l3893:	
  3009  04FA  3060               	movlw	low(0EA60h)
  3010  04FB  00F0               	movwf	(?_delay)
  3011  04FC  30EA               	movlw	high(0EA60h)
  3012  04FD  00F1               	movwf	((?_delay))+1
  3013  04FE  120A  158A  21E0   	fcall	_delay
              120A  118A         
  3014                           	
  3015  0503                     l3895:	
  3016  0503  3060               	movlw	low(0EA60h)
  3017  0504  00F0               	movwf	(?_delay)
  3018  0505  30EA               	movlw	high(0EA60h)
  3019  0506  00F1               	movwf	((?_delay))+1
  3020  0507  120A  158A  21E0   	fcall	_delay
              120A  118A         
  3021                           	
  3022  050C                     l3897:	
  3023  050C  3060               	movlw	low(0EA60h)
  3024  050D  00F0               	movwf	(?_delay)
  3025  050E  30EA               	movlw	high(0EA60h)
  3026  050F  00F1               	movwf	((?_delay))+1
  3027  0510  120A  158A  21E0   	fcall	_delay
              120A  118A         
  3028                           	
  3029  0515                     l3899:	
  3030  0515  3060               	movlw	low(0EA60h)
  3031  0516  00F0               	movwf	(?_delay)
  3032  0517  30EA               	movlw	high(0EA60h)
  3033  0518  00F1               	movwf	((?_delay))+1
  3034  0519  120A  158A  21E0   	fcall	_delay
              120A  118A         
  3035                           	
  3036  051E                     l3901:	
  3037  051E  3060               	movlw	low(0EA60h)
  3038  051F  00F0               	movwf	(?_delay)
  3039  0520  30EA               	movlw	high(0EA60h)
  3040  0521  00F1               	movwf	((?_delay))+1
  3041  0522  120A  158A  21E0   	fcall	_delay
              120A  118A         
  3042                           	line	255
  3043                           	
  3044  0527                     l3903:	
  3045                           ;Indu886.c: 255: RC1=0;
  3046  0527  1283               	bcf	status, 5	;RP0=0, select bank0
  3047  0528  1303               	bcf	status, 6	;RP1=0, select bank0
  3048  0529  1087               	bcf	(57/8),(57)&7
  3049  052A  2D31               	goto	l1085
  3050                           	line	256
  3051                           	
  3052  052B                     l1083:	
  3053                           	line	257
  3054                           ;Indu886.c: 256: }
  3055                           ;Indu886.c: 257: }
  3056  052B  2D31               	goto	l1085
  3057                           	line	258
  3058                           	
  3059  052C                     l1082:	
  3060                           	line	260
  3061                           	
  3062  052C                     l3905:	
  3063                           ;Indu886.c: 258: else
  3064                           ;Indu886.c: 259: {
  3065                           ;Indu886.c: 260: u=0;
  3066  052C  1283               	bcf	status, 5	;RP0=0, select bank0
  3067  052D  1303               	bcf	status, 6	;RP1=0, select bank0
  3068  052E  01CD               	clrf	(adc@u)
  3069  052F  01CE               	clrf	(adc@u+1)
  3070  0530  2D31               	goto	l1085
  3071                           	line	261
  3072                           	
  3073  0531                     l1084:	
  3074                           	line	262
  3075                           	
  3076  0531                     l1085:	
  3077  0531  0008               	return
  3078                           	opt stack 0
  3079                           GLOBAL	__end_of_adc
  3080  0532                     	__end_of_adc:
  3081 ;; =============== function _adc ends ============
  3082                           
  3083                           	signat	_adc,88
  3084                           	global	_Generator_run
  3085                           psect	text600,local,class=CODE,delta=2
  3086                           global __ptext600
  3087  0090                     __ptext600:
  3088                           
  3089 ;; *************** function _Generator_run *****************
  3090 ;; Defined at:
  3091 ;;		line 112 in file "D:\Embedded\pic\code\Indu886.c"
  3092 ;; Parameters:    Size  Location     Type
  3093 ;;		None
  3094 ;; Auto vars:     Size  Location     Type
  3095 ;;  Gen_d           2   10[BANK0 ] int 
  3096 ;;  Gen_b           2    8[BANK0 ] int 
  3097 ;;  Gen_f           2    6[BANK0 ] int 
  3098 ;;  Gen_e           2    4[BANK0 ] int 
  3099 ;;  Gen_c           2    2[BANK0 ] int 
  3100 ;;  Gen_a           2    0[BANK0 ] int 
  3101 ;; Return value:  Size  Location     Type
  3102 ;;		None               void
  3103 ;; Registers used:
  3104 ;;		wreg, fsr0l, fsr0h, status,2, status,0, btemp+1, pclath, cstack
  3105 ;; Tracked objects:
  3106 ;;		On entry : 0/0
  3107 ;;		On exit  : 0/0
  3108 ;;		Unchanged: 0/0
  3109 ;; Data sizes:     COMMON   BANK0   BANK1   BANK3   BANK2
  3110 ;;      Params:         0       0       0       0       0
  3111 ;;      Locals:         0      12       0       0       0
  3112 ;;      Temps:          1       0       0       0       0
  3113 ;;      Totals:         1      12       0       0       0
  3114 ;;Total ram usage:       13 bytes
  3115 ;; Hardware stack levels used:    1
  3116 ;; Hardware stack levels required when called:    4
  3117 ;; This function calls:
  3118 ;;		_lcd_cmd
  3119 ;;		_string
  3120 ;;		___awdiv
  3121 ;;		___awmod
  3122 ;;		_delay
  3123 ;;		_eeprom_write
  3124 ;; This function is called by:
  3125 ;;		_main
  3126 ;; This function uses a non-reentrant model
  3127 ;;
  3128                           psect	text600
  3129                           	file	"D:\Embedded\pic\code\Indu886.c"
  3130                           	line	112
  3131                           	global	__size_of_Generator_run
  3132  01E1                     	__size_of_Generator_run	equ	__end_of_Generator_run-_Generator_run
  3133                           	
  3134  0090                     _Generator_run:	
  3135                           	opt	stack 3
  3136                           ; Regs used in _Generator_run: [wreg-fsr0h+status,2+status,0+btemp+1+pclath+cstack]
  3137                           	line	114
  3138                           	
  3139  0090                     l3723:	
  3140                           ;Indu886.c: 113: auto int Gen_a,Gen_b,Gen_c,Gen_d,Gen_e,Gen_f;
  3141                           ;Indu886.c: 114: lcd_cmd(0,0,0XC0);
  3142  0090  3000               	movlw	low(0)
  3143  0091  00F2               	movwf	(?_lcd_cmd)
  3144  0092  3000               	movlw	high(0)
  3145  0093  00F3               	movwf	((?_lcd_cmd))+1
  3146  0094  3000               	movlw	low(0)
  3147  0095  00F4               	movwf	0+(?_lcd_cmd)+02h
  3148  0096  3000               	movlw	high(0)
  3149  0097  00F5               	movwf	(0+(?_lcd_cmd)+02h)+1
  3150  0098  30C0               	movlw	(0C0h)
  3151  0099  00FB               	movwf	(??_Generator_run+0)+0
  3152  009A  087B               	movf	(??_Generator_run+0)+0,w
  3153  009B  00F6               	movwf	0+(?_lcd_cmd)+04h
  3154  009C  120A  158A  22C5   	fcall	_lcd_cmd
              120A  118A         
  3155                           	line	115
  3156                           	
  3157  00A1                     l3725:	
  3158                           ;Indu886.c: 115: string("Gen.run:");
  3159  00A1  30F2               	movlw	low(STR_2|8000h)
  3160  00A2  00F8               	movwf	(?_string)
  3161  00A3  3088               	movlw	high(STR_2|8000h)
  3162  00A4  00F9               	movwf	((?_string))+1
  3163  00A5  120A  158A  2359   	fcall	_string
              120A  118A         
  3164                           	line	116
  3165                           	
  3166  00AA                     l3727:	
  3167                           ;Indu886.c: 116: Gen_a=variable/1000;
  3168  00AA  30E8               	movlw	low(03E8h)
  3169  00AB  00F0               	movwf	(?___awdiv)
  3170  00AC  3003               	movlw	high(03E8h)
  3171  00AD  00F1               	movwf	((?___awdiv))+1
  3172  00AE  1283               	bcf	status, 5	;RP0=0, select bank0
  3173  00AF  1303               	bcf	status, 6	;RP1=0, select bank0
  3174  00B0  086D               	movf	(_variable+1),w
  3175  00B1  01F3               	clrf	1+(?___awdiv)+02h
  3176  00B2  07F3               	addwf	1+(?___awdiv)+02h
  3177  00B3  086C               	movf	(_variable),w
  3178  00B4  01F2               	clrf	0+(?___awdiv)+02h
  3179  00B5  07F2               	addwf	0+(?___awdiv)+02h
  3180                           
  3181  00B6  120A  158A  23F4   	fcall	___awdiv
              120A  118A         
  3182  00BB  0871               	movf	(1+(?___awdiv)),w
  3183  00BC  1283               	bcf	status, 5	;RP0=0, select bank0
  3184  00BD  1303               	bcf	status, 6	;RP1=0, select bank0
  3185  00BE  01A1               	clrf	(Generator_run@Gen_a+1)
  3186  00BF  07A1               	addwf	(Generator_run@Gen_a+1)
  3187  00C0  0870               	movf	(0+(?___awdiv)),w
  3188  00C1  01A0               	clrf	(Generator_run@Gen_a)
  3189  00C2  07A0               	addwf	(Generator_run@Gen_a)
  3190                           
  3191                           	line	117
  3192                           	
  3193  00C3                     l3729:	
  3194                           ;Indu886.c: 117: Gen_b=variable%1000;
  3195  00C3  30E8               	movlw	low(03E8h)
  3196  00C4  00F0               	movwf	(?___awmod)
  3197  00C5  3003               	movlw	high(03E8h)
  3198  00C6  00F1               	movwf	((?___awmod))+1
  3199  00C7  086D               	movf	(_variable+1),w
  3200  00C8  01F3               	clrf	1+(?___awmod)+02h
  3201  00C9  07F3               	addwf	1+(?___awmod)+02h
  3202  00CA  086C               	movf	(_variable),w
  3203  00CB  01F2               	clrf	0+(?___awmod)+02h
  3204  00CC  07F2               	addwf	0+(?___awmod)+02h
  3205                           
  3206  00CD  120A  158A  238E   	fcall	___awmod
              120A  118A         
  3207  00D2  0871               	movf	(1+(?___awmod)),w
  3208  00D3  1283               	bcf	status, 5	;RP0=0, select bank0
  3209  00D4  1303               	bcf	status, 6	;RP1=0, select bank0
  3210  00D5  01A9               	clrf	(Generator_run@Gen_b+1)
  3211  00D6  07A9               	addwf	(Generator_run@Gen_b+1)
  3212  00D7  0870               	movf	(0+(?___awmod)),w
  3213  00D8  01A8               	clrf	(Generator_run@Gen_b)
  3214  00D9  07A8               	addwf	(Generator_run@Gen_b)
  3215                           
  3216                           	line	118
  3217                           	
  3218  00DA                     l3731:	
  3219                           ;Indu886.c: 118: Gen_c=Gen_b/100;
  3220  00DA  3064               	movlw	low(064h)
  3221  00DB  00F0               	movwf	(?___awdiv)
  3222  00DC  3000               	movlw	high(064h)
  3223  00DD  00F1               	movwf	((?___awdiv))+1
  3224  00DE  0829               	movf	(Generator_run@Gen_b+1),w
  3225  00DF  01F3               	clrf	1+(?___awdiv)+02h
  3226  00E0  07F3               	addwf	1+(?___awdiv)+02h
  3227  00E1  0828               	movf	(Generator_run@Gen_b),w
  3228  00E2  01F2               	clrf	0+(?___awdiv)+02h
  3229  00E3  07F2               	addwf	0+(?___awdiv)+02h
  3230                           
  3231  00E4  120A  158A  23F4   	fcall	___awdiv
              120A  118A         
  3232  00E9  0871               	movf	(1+(?___awdiv)),w
  3233  00EA  1283               	bcf	status, 5	;RP0=0, select bank0
  3234  00EB  1303               	bcf	status, 6	;RP1=0, select bank0
  3235  00EC  01A3               	clrf	(Generator_run@Gen_c+1)
  3236  00ED  07A3               	addwf	(Generator_run@Gen_c+1)
  3237  00EE  0870               	movf	(0+(?___awdiv)),w
  3238  00EF  01A2               	clrf	(Generator_run@Gen_c)
  3239  00F0  07A2               	addwf	(Generator_run@Gen_c)
  3240                           
  3241                           	line	119
  3242                           	
  3243  00F1                     l3733:	
  3244                           ;Indu886.c: 119: Gen_d=Gen_b%100;
  3245  00F1  3064               	movlw	low(064h)
  3246  00F2  00F0               	movwf	(?___awmod)
  3247  00F3  3000               	movlw	high(064h)
  3248  00F4  00F1               	movwf	((?___awmod))+1
  3249  00F5  0829               	movf	(Generator_run@Gen_b+1),w
  3250  00F6  01F3               	clrf	1+(?___awmod)+02h
  3251  00F7  07F3               	addwf	1+(?___awmod)+02h
  3252  00F8  0828               	movf	(Generator_run@Gen_b),w
  3253  00F9  01F2               	clrf	0+(?___awmod)+02h
  3254  00FA  07F2               	addwf	0+(?___awmod)+02h
  3255                           
  3256  00FB  120A  158A  238E   	fcall	___awmod
              120A  118A         
  3257  0100  0871               	movf	(1+(?___awmod)),w
  3258  0101  1283               	bcf	status, 5	;RP0=0, select bank0
  3259  0102  1303               	bcf	status, 6	;RP1=0, select bank0
  3260  0103  01AB               	clrf	(Generator_run@Gen_d+1)
  3261  0104  07AB               	addwf	(Generator_run@Gen_d+1)
  3262  0105  0870               	movf	(0+(?___awmod)),w
  3263  0106  01AA               	clrf	(Generator_run@Gen_d)
  3264  0107  07AA               	addwf	(Generator_run@Gen_d)
  3265                           
  3266                           	line	120
  3267                           	
  3268  0108                     l3735:	
  3269                           ;Indu886.c: 120: Gen_e=Gen_d/10;
  3270  0108  300A               	movlw	low(0Ah)
  3271  0109  00F0               	movwf	(?___awdiv)
  3272  010A  3000               	movlw	high(0Ah)
  3273  010B  00F1               	movwf	((?___awdiv))+1
  3274  010C  082B               	movf	(Generator_run@Gen_d+1),w
  3275  010D  01F3               	clrf	1+(?___awdiv)+02h
  3276  010E  07F3               	addwf	1+(?___awdiv)+02h
  3277  010F  082A               	movf	(Generator_run@Gen_d),w
  3278  0110  01F2               	clrf	0+(?___awdiv)+02h
  3279  0111  07F2               	addwf	0+(?___awdiv)+02h
  3280                           
  3281  0112  120A  158A  23F4   	fcall	___awdiv
              120A  118A         
  3282  0117  0871               	movf	(1+(?___awdiv)),w
  3283  0118  1283               	bcf	status, 5	;RP0=0, select bank0
  3284  0119  1303               	bcf	status, 6	;RP1=0, select bank0
  3285  011A  01A5               	clrf	(Generator_run@Gen_e+1)
  3286  011B  07A5               	addwf	(Generator_run@Gen_e+1)
  3287  011C  0870               	movf	(0+(?___awdiv)),w
  3288  011D  01A4               	clrf	(Generator_run@Gen_e)
  3289  011E  07A4               	addwf	(Generator_run@Gen_e)
  3290                           
  3291                           	line	121
  3292                           	
  3293  011F                     l3737:	
  3294                           ;Indu886.c: 121: Gen_f=Gen_d%10;
  3295  011F  300A               	movlw	low(0Ah)
  3296  0120  00F0               	movwf	(?___awmod)
  3297  0121  3000               	movlw	high(0Ah)
  3298  0122  00F1               	movwf	((?___awmod))+1
  3299  0123  082B               	movf	(Generator_run@Gen_d+1),w
  3300  0124  01F3               	clrf	1+(?___awmod)+02h
  3301  0125  07F3               	addwf	1+(?___awmod)+02h
  3302  0126  082A               	movf	(Generator_run@Gen_d),w
  3303  0127  01F2               	clrf	0+(?___awmod)+02h
  3304  0128  07F2               	addwf	0+(?___awmod)+02h
  3305                           
  3306  0129  120A  158A  238E   	fcall	___awmod
              120A  118A         
  3307  012E  0871               	movf	(1+(?___awmod)),w
  3308  012F  1283               	bcf	status, 5	;RP0=0, select bank0
  3309  0130  1303               	bcf	status, 6	;RP1=0, select bank0
  3310  0131  01A7               	clrf	(Generator_run@Gen_f+1)
  3311  0132  07A7               	addwf	(Generator_run@Gen_f+1)
  3312  0133  0870               	movf	(0+(?___awmod)),w
  3313  0134  01A6               	clrf	(Generator_run@Gen_f)
  3314  0135  07A6               	addwf	(Generator_run@Gen_f)
  3315                           
  3316                           	line	122
  3317                           	
  3318  0136                     l3739:	
  3319                           ;Indu886.c: 122: lcd_cmd(1,0,Gen_a+0X30);
  3320  0136  3001               	movlw	low(01h)
  3321  0137  00F2               	movwf	(?_lcd_cmd)
  3322  0138  3000               	movlw	high(01h)
  3323  0139  00F3               	movwf	((?_lcd_cmd))+1
  3324  013A  3000               	movlw	low(0)
  3325  013B  00F4               	movwf	0+(?_lcd_cmd)+02h
  3326  013C  3000               	movlw	high(0)
  3327  013D  00F5               	movwf	(0+(?_lcd_cmd)+02h)+1
  3328  013E  0820               	movf	(Generator_run@Gen_a),w
  3329  013F  3E30               	addlw	030h
  3330  0140  00FB               	movwf	(??_Generator_run+0)+0
  3331  0141  087B               	movf	(??_Generator_run+0)+0,w
  3332  0142  00F6               	movwf	0+(?_lcd_cmd)+04h
  3333  0143  120A  158A  22C5   	fcall	_lcd_cmd
              120A  118A         
  3334                           	line	123
  3335                           	
  3336  0148                     l3741:	
  3337                           ;Indu886.c: 123: lcd_cmd(1,0,Gen_c+0X30);
  3338  0148  3001               	movlw	low(01h)
  3339  0149  00F2               	movwf	(?_lcd_cmd)
  3340  014A  3000               	movlw	high(01h)
  3341  014B  00F3               	movwf	((?_lcd_cmd))+1
  3342  014C  3000               	movlw	low(0)
  3343  014D  00F4               	movwf	0+(?_lcd_cmd)+02h
  3344  014E  3000               	movlw	high(0)
  3345  014F  00F5               	movwf	(0+(?_lcd_cmd)+02h)+1
  3346  0150  1283               	bcf	status, 5	;RP0=0, select bank0
  3347  0151  1303               	bcf	status, 6	;RP1=0, select bank0
  3348  0152  0822               	movf	(Generator_run@Gen_c),w
  3349  0153  3E30               	addlw	030h
  3350  0154  00FB               	movwf	(??_Generator_run+0)+0
  3351  0155  087B               	movf	(??_Generator_run+0)+0,w
  3352  0156  00F6               	movwf	0+(?_lcd_cmd)+04h
  3353  0157  120A  158A  22C5   	fcall	_lcd_cmd
              120A  118A         
  3354                           	line	124
  3355                           	
  3356  015C                     l3743:	
  3357                           ;Indu886.c: 124: lcd_cmd(1,0,Gen_e+0X30);
  3358  015C  3001               	movlw	low(01h)
  3359  015D  00F2               	movwf	(?_lcd_cmd)
  3360  015E  3000               	movlw	high(01h)
  3361  015F  00F3               	movwf	((?_lcd_cmd))+1
  3362  0160  3000               	movlw	low(0)
  3363  0161  00F4               	movwf	0+(?_lcd_cmd)+02h
  3364  0162  3000               	movlw	high(0)
  3365  0163  00F5               	movwf	(0+(?_lcd_cmd)+02h)+1
  3366  0164  1283               	bcf	status, 5	;RP0=0, select bank0
  3367  0165  1303               	bcf	status, 6	;RP1=0, select bank0
  3368  0166  0824               	movf	(Generator_run@Gen_e),w
  3369  0167  3E30               	addlw	030h
  3370  0168  00FB               	movwf	(??_Generator_run+0)+0
  3371  0169  087B               	movf	(??_Generator_run+0)+0,w
  3372  016A  00F6               	movwf	0+(?_lcd_cmd)+04h
  3373  016B  120A  158A  22C5   	fcall	_lcd_cmd
              120A  118A         
  3374                           	line	125
  3375                           	
  3376  0170                     l3745:	
  3377                           ;Indu886.c: 125: lcd_cmd(1,0,Gen_f+0X30);
  3378  0170  3001               	movlw	low(01h)
  3379  0171  00F2               	movwf	(?_lcd_cmd)
  3380  0172  3000               	movlw	high(01h)
  3381  0173  00F3               	movwf	((?_lcd_cmd))+1
  3382  0174  3000               	movlw	low(0)
  3383  0175  00F4               	movwf	0+(?_lcd_cmd)+02h
  3384  0176  3000               	movlw	high(0)
  3385  0177  00F5               	movwf	(0+(?_lcd_cmd)+02h)+1
  3386  0178  1283               	bcf	status, 5	;RP0=0, select bank0
  3387  0179  1303               	bcf	status, 6	;RP1=0, select bank0
  3388  017A  0826               	movf	(Generator_run@Gen_f),w
  3389  017B  3E30               	addlw	030h
  3390  017C  00FB               	movwf	(??_Generator_run+0)+0
  3391  017D  087B               	movf	(??_Generator_run+0)+0,w
  3392  017E  00F6               	movwf	0+(?_lcd_cmd)+04h
  3393  017F  120A  158A  22C5   	fcall	_lcd_cmd
              120A  118A         
  3394                           	line	126
  3395                           	
  3396  0184                     l3747:	
  3397                           ;Indu886.c: 126: string(".min");
  3398  0184  3008               	movlw	low(STR_3|8000h)
  3399  0185  00F8               	movwf	(?_string)
  3400  0186  3089               	movlw	high(STR_3|8000h)
  3401  0187  00F9               	movwf	((?_string))+1
  3402  0188  120A  158A  2359   	fcall	_string
              120A  118A         
  3403                           	line	127
  3404                           	
  3405  018D                     l3749:	
  3406                           ;Indu886.c: 127: if(RA0==1&&flag_supply==0)
  3407  018D  1283               	bcf	status, 5	;RP0=0, select bank0
  3408  018E  1303               	bcf	status, 6	;RP1=0, select bank0
  3409  018F  1C05               	btfss	(40/8),(40)&7
  3410  0190  2992               	goto	u3931
  3411  0191  2993               	goto	u3930
  3412  0192                     u3931:
  3413  0192  2A08               	goto	l3779
  3414  0193                     u3930:
  3415                           	
  3416  0193                     l3751:	
  3417  0193  0869               	movf	((_flag_supply+1)),w
  3418  0194  0468               	iorwf	((_flag_supply)),w
  3419  0195  1D03               	skipz
  3420  0196  2998               	goto	u3941
  3421  0197  2999               	goto	u3940
  3422  0198                     u3941:
  3423  0198  2A08               	goto	l3779
  3424  0199                     u3940:
  3425                           	line	129
  3426                           	
  3427  0199                     l3753:	
  3428                           ;Indu886.c: 128: {
  3429                           ;Indu886.c: 129: Generator=0;
  3430  0199  1683               	bsf	status, 5	;RP0=1, select bank1
  3431  019A  1303               	bcf	status, 6	;RP1=0, select bank1
  3432  019B  01A0               	clrf	(_Generator)^080h
  3433  019C  01A1               	clrf	(_Generator+1)^080h
  3434                           	line	130
  3435                           	
  3436  019D                     l3755:	
  3437                           ;Indu886.c: 130: RC5=0;
  3438  019D  1283               	bcf	status, 5	;RP0=0, select bank0
  3439  019E  1303               	bcf	status, 6	;RP1=0, select bank0
  3440  019F  1287               	bcf	(61/8),(61)&7
  3441                           	line	131
  3442                           	
  3443  01A0                     l3757:	
  3444                           ;Indu886.c: 131: RC2=1;
  3445  01A0  1507               	bsf	(58/8),(58)&7
  3446                           	line	132
  3447                           	
  3448  01A1                     l3759:	
  3449                           ;Indu886.c: 132: lcd_cmd(0,0,0X01);
  3450  01A1  3000               	movlw	low(0)
  3451  01A2  00F2               	movwf	(?_lcd_cmd)
  3452  01A3  3000               	movlw	high(0)
  3453  01A4  00F3               	movwf	((?_lcd_cmd))+1
  3454  01A5  3000               	movlw	low(0)
  3455  01A6  00F4               	movwf	0+(?_lcd_cmd)+02h
  3456  01A7  3000               	movlw	high(0)
  3457  01A8  00F5               	movwf	(0+(?_lcd_cmd)+02h)+1
  3458  01A9  01F6               	clrf	0+(?_lcd_cmd)+04h
  3459  01AA  1403               	bsf	status,0
  3460  01AB  0DF6               	rlf	0+(?_lcd_cmd)+04h,f
  3461  01AC  120A  158A  22C5   	fcall	_lcd_cmd
              120A  118A         
  3462                           	line	133
  3463                           	
  3464  01B1                     l3761:	
  3465                           ;Indu886.c: 133: lcd_cmd(0,0,0X80);
  3466  01B1  3000               	movlw	low(0)
  3467  01B2  00F2               	movwf	(?_lcd_cmd)
  3468  01B3  3000               	movlw	high(0)
  3469  01B4  00F3               	movwf	((?_lcd_cmd))+1
  3470  01B5  3000               	movlw	low(0)
  3471  01B6  00F4               	movwf	0+(?_lcd_cmd)+02h
  3472  01B7  3000               	movlw	high(0)
  3473  01B8  00F5               	movwf	(0+(?_lcd_cmd)+02h)+1
  3474  01B9  3080               	movlw	(080h)
  3475  01BA  00FB               	movwf	(??_Generator_run+0)+0
  3476  01BB  087B               	movf	(??_Generator_run+0)+0,w
  3477  01BC  00F6               	movwf	0+(?_lcd_cmd)+04h
  3478  01BD  120A  158A  22C5   	fcall	_lcd_cmd
              120A  118A         
  3479                           	line	134
  3480                           	
  3481  01C2                     l3763:	
  3482                           ;Indu886.c: 134: string(" From EB supply");
  3483  01C2  30B2               	movlw	low(STR_4|8000h)
  3484  01C3  00F8               	movwf	(?_string)
  3485  01C4  3088               	movlw	high(STR_4|8000h)
  3486  01C5  00F9               	movwf	((?_string))+1
  3487  01C6  120A  158A  2359   	fcall	_string
              120A  118A         
  3488                           	line	135
  3489                           	
  3490  01CB                     l3765:	
  3491                           ;Indu886.c: 135: delay(60000);delay(60000);delay(60000);delay(60000);delay(60000);delay(
                                 60000);
  3492  01CB  3060               	movlw	low(0EA60h)
  3493  01CC  00F0               	movwf	(?_delay)
  3494  01CD  30EA               	movlw	high(0EA60h)
  3495  01CE  00F1               	movwf	((?_delay))+1
  3496  01CF  120A  158A  21E0   	fcall	_delay
              120A  118A         
  3497                           	
  3498  01D4                     l3767:	
  3499  01D4  3060               	movlw	low(0EA60h)
  3500  01D5  00F0               	movwf	(?_delay)
  3501  01D6  30EA               	movlw	high(0EA60h)
  3502  01D7  00F1               	movwf	((?_delay))+1
  3503  01D8  120A  158A  21E0   	fcall	_delay
              120A  118A         
  3504                           	
  3505  01DD                     l3769:	
  3506  01DD  3060               	movlw	low(0EA60h)
  3507  01DE  00F0               	movwf	(?_delay)
  3508  01DF  30EA               	movlw	high(0EA60h)
  3509  01E0  00F1               	movwf	((?_delay))+1
  3510  01E1  120A  158A  21E0   	fcall	_delay
              120A  118A         
  3511                           	
  3512  01E6                     l3771:	
  3513  01E6  3060               	movlw	low(0EA60h)
  3514  01E7  00F0               	movwf	(?_delay)
  3515  01E8  30EA               	movlw	high(0EA60h)
  3516  01E9  00F1               	movwf	((?_delay))+1
  3517  01EA  120A  158A  21E0   	fcall	_delay
              120A  118A         
  3518                           	
  3519  01EF                     l3773:	
  3520  01EF  3060               	movlw	low(0EA60h)
  3521  01F0  00F0               	movwf	(?_delay)
  3522  01F1  30EA               	movlw	high(0EA60h)
  3523  01F2  00F1               	movwf	((?_delay))+1
  3524  01F3  120A  158A  21E0   	fcall	_delay
              120A  118A         
  3525                           	
  3526  01F8                     l3775:	
  3527  01F8  3060               	movlw	low(0EA60h)
  3528  01F9  00F0               	movwf	(?_delay)
  3529  01FA  30EA               	movlw	high(0EA60h)
  3530  01FB  00F1               	movwf	((?_delay))+1
  3531  01FC  120A  158A  21E0   	fcall	_delay
              120A  118A         
  3532                           	line	136
  3533                           	
  3534  0201                     l3777:	
  3535                           ;Indu886.c: 136: flag_supply=1;
  3536  0201  3001               	movlw	low(01h)
  3537  0202  1283               	bcf	status, 5	;RP0=0, select bank0
  3538  0203  1303               	bcf	status, 6	;RP1=0, select bank0
  3539  0204  00E8               	movwf	(_flag_supply)
  3540  0205  3000               	movlw	high(01h)
  3541  0206  00E9               	movwf	((_flag_supply))+1
  3542  0207  2A08               	goto	l3779
  3543                           	line	137
  3544                           	
  3545  0208                     l1051:	
  3546                           	line	138
  3547                           	
  3548  0208                     l3779:	
  3549                           ;Indu886.c: 137: }
  3550                           ;Indu886.c: 138: if(Generator==1&&read[0]==stop)
  3551  0208  3001               	movlw	01h
  3552  0209  1683               	bsf	status, 5	;RP0=1, select bank1
  3553  020A  1303               	bcf	status, 6	;RP1=0, select bank1
  3554  020B  0620               	xorwf	(_Generator)^080h,w
  3555  020C  0421               	iorwf	(_Generator+1)^080h,w
  3556  020D  1D03               	skipz
  3557  020E  2A10               	goto	u3951
  3558  020F  2A11               	goto	u3950
  3559  0210                     u3951:
  3560  0210  2A56               	goto	l3797
  3561  0211                     u3950:
  3562                           	
  3563  0211                     l3781:	
  3564  0211  0826               	movf	(_read)^080h,w
  3565  0212  1283               	bcf	status, 5	;RP0=0, select bank0
  3566  0213  1303               	bcf	status, 6	;RP1=0, select bank0
  3567  0214  066F               	xorwf	(_stop),w
  3568  0215  1D03               	skipz
  3569  0216  2A18               	goto	u3961
  3570  0217  2A19               	goto	u3960
  3571  0218                     u3961:
  3572  0218  2A56               	goto	l3797
  3573  0219                     u3960:
  3574                           	line	141
  3575                           	
  3576  0219                     l3783:	
  3577                           ;Indu886.c: 139: {
  3578                           ;Indu886.c: 141: variable++;
  3579  0219  3001               	movlw	low(01h)
  3580  021A  07EC               	addwf	(_variable),f
  3581  021B  1803               	skipnc
  3582  021C  0AED               	incf	(_variable+1),f
  3583  021D  3000               	movlw	high(01h)
  3584  021E  07ED               	addwf	(_variable+1),f
  3585                           	line	142
  3586                           	
  3587  021F                     l3785:	
  3588                           ;Indu886.c: 142: delay(60000);delay(60000);delay(60000);delay(60000);delay(60000);delay(
                                 60000);
  3589  021F  3060               	movlw	low(0EA60h)
  3590  0220  00F0               	movwf	(?_delay)
  3591  0221  30EA               	movlw	high(0EA60h)
  3592  0222  00F1               	movwf	((?_delay))+1
  3593  0223  120A  158A  21E0   	fcall	_delay
              120A  118A         
  3594                           	
  3595  0228                     l3787:	
  3596  0228  3060               	movlw	low(0EA60h)
  3597  0229  00F0               	movwf	(?_delay)
  3598  022A  30EA               	movlw	high(0EA60h)
  3599  022B  00F1               	movwf	((?_delay))+1
  3600  022C  120A  158A  21E0   	fcall	_delay
              120A  118A         
  3601                           	
  3602  0231                     l3789:	
  3603  0231  3060               	movlw	low(0EA60h)
  3604  0232  00F0               	movwf	(?_delay)
  3605  0233  30EA               	movlw	high(0EA60h)
  3606  0234  00F1               	movwf	((?_delay))+1
  3607  0235  120A  158A  21E0   	fcall	_delay
              120A  118A         
  3608                           	
  3609  023A                     l3791:	
  3610  023A  3060               	movlw	low(0EA60h)
  3611  023B  00F0               	movwf	(?_delay)
  3612  023C  30EA               	movlw	high(0EA60h)
  3613  023D  00F1               	movwf	((?_delay))+1
  3614  023E  120A  158A  21E0   	fcall	_delay
              120A  118A         
  3615                           	
  3616  0243                     l3793:	
  3617  0243  3060               	movlw	low(0EA60h)
  3618  0244  00F0               	movwf	(?_delay)
  3619  0245  30EA               	movlw	high(0EA60h)
  3620  0246  00F1               	movwf	((?_delay))+1
  3621  0247  120A  158A  21E0   	fcall	_delay
              120A  118A         
  3622                           	
  3623  024C                     l3795:	
  3624  024C  3060               	movlw	low(0EA60h)
  3625  024D  00F0               	movwf	(?_delay)
  3626  024E  30EA               	movlw	high(0EA60h)
  3627  024F  00F1               	movwf	((?_delay))+1
  3628  0250  120A  158A  21E0   	fcall	_delay
              120A  118A         
  3629  0255  2A56               	goto	l3797
  3630                           	line	143
  3631                           	
  3632  0256                     l1052:	
  3633                           	line	144
  3634                           	
  3635  0256                     l3797:	
  3636                           ;Indu886.c: 143: }
  3637                           ;Indu886.c: 144: store=retain+variable;
  3638  0256  1283               	bcf	status, 5	;RP0=0, select bank0
  3639  0257  1303               	bcf	status, 6	;RP1=0, select bank0
  3640  0258  086C               	movf	(_variable),w
  3641  0259  076A               	addwf	(_retain),w
  3642  025A  1683               	bsf	status, 5	;RP0=1, select bank1
  3643  025B  1303               	bcf	status, 6	;RP1=0, select bank1
  3644  025C  00A4               	movwf	(_store)^080h
  3645  025D  1283               	bcf	status, 5	;RP0=0, select bank0
  3646  025E  1303               	bcf	status, 6	;RP1=0, select bank0
  3647  025F  086D               	movf	(_variable+1),w
  3648  0260  1803               	skipnc
  3649  0261  0A6D               	incf	(_variable+1),w
  3650  0262  076B               	addwf	(_retain+1),w
  3651  0263  1683               	bsf	status, 5	;RP0=1, select bank1
  3652  0264  1303               	bcf	status, 6	;RP1=0, select bank1
  3653  0265  00A5               	movwf	1+(_store)^080h
  3654                           	line	145
  3655                           	
  3656  0266                     l3799:	
  3657                           ;Indu886.c: 145: eeprom_write(0,store);
  3658  0266  0824               	movf	(_store)^080h,w
  3659  0267  00FB               	movwf	(??_Generator_run+0)+0
  3660  0268  087B               	movf	(??_Generator_run+0)+0,w
  3661  0269  00F0               	movwf	(?_eeprom_write)
  3662  026A  3000               	movlw	(0)
  3663  026B  120A  158A  22F3   	fcall	_eeprom_write
              120A  118A         
  3664                           	line	147
  3665                           	
  3666  0270                     l1053:	
  3667  0270  0008               	return
  3668                           	opt stack 0
  3669                           GLOBAL	__end_of_Generator_run
  3670  0271                     	__end_of_Generator_run:
  3671 ;; =============== function _Generator_run ends ============
  3672                           
  3673                           	signat	_Generator_run,88
  3674                           	global	_conversion
  3675                           psect	text601,local,class=CODE,delta=2
  3676                           global __ptext601
  3677  0E34                     __ptext601:
  3678                           
  3679 ;; *************** function _conversion *****************
  3680 ;; Defined at:
  3681 ;;		line 84 in file "D:\Embedded\pic\code\Indu886.c"
  3682 ;; Parameters:    Size  Location     Type
  3683 ;;  disp            1    wreg     PTR unsigned char 
  3684 ;;		 -> read(6), 
  3685 ;; Auto vars:     Size  Location     Type
  3686 ;;  disp            1   13[COMMON] PTR unsigned char 
  3687 ;;		 -> read(6), 
  3688 ;; Return value:  Size  Location     Type
  3689 ;;		None               void
  3690 ;; Registers used:
  3691 ;;		wreg, fsr0l, fsr0h, status,2, status,0, btemp+1, pclath, cstack
  3692 ;; Tracked objects:
  3693 ;;		On entry : 0/0
  3694 ;;		On exit  : 0/0
  3695 ;;		Unchanged: 0/0
  3696 ;; Data sizes:     COMMON   BANK0   BANK1   BANK3   BANK2
  3697 ;;      Params:         0       0       0       0       0
  3698 ;;      Locals:         1       0       0       0       0
  3699 ;;      Temps:          2       0       0       0       0
  3700 ;;      Totals:         3       0       0       0       0
  3701 ;;Total ram usage:        3 bytes
  3702 ;; Hardware stack levels used:    1
  3703 ;; Hardware stack levels required when called:    4
  3704 ;; This function calls:
  3705 ;;		_lcd_cmd
  3706 ;;		_string
  3707 ;; This function is called by:
  3708 ;;		_main
  3709 ;; This function uses a non-reentrant model
  3710 ;;
  3711                           psect	text601
  3712                           	file	"D:\Embedded\pic\code\Indu886.c"
  3713                           	line	84
  3714                           	global	__size_of_conversion
  3715  00DE                     	__size_of_conversion	equ	__end_of_conversion-_conversion
  3716                           	
  3717  0E34                     _conversion:	
  3718                           	opt	stack 3
  3719                           ; Regs used in _conversion: [wreg-fsr0h+status,2+status,0+btemp+1+pclath+cstack]
  3720                           ;conversion@disp stored from wreg
  3721  0E34  00FD               	movwf	(conversion@disp)
  3722                           	line	85
  3723                           	
  3724  0E35                     l3703:	
  3725                           ;Indu886.c: 85: lcd_cmd(0,0,0X80);
  3726  0E35  3000               	movlw	low(0)
  3727  0E36  00F2               	movwf	(?_lcd_cmd)
  3728  0E37  3000               	movlw	high(0)
  3729  0E38  00F3               	movwf	((?_lcd_cmd))+1
  3730  0E39  3000               	movlw	low(0)
  3731  0E3A  00F4               	movwf	0+(?_lcd_cmd)+02h
  3732  0E3B  3000               	movlw	high(0)
  3733  0E3C  00F5               	movwf	(0+(?_lcd_cmd)+02h)+1
  3734  0E3D  3080               	movlw	(080h)
  3735  0E3E  00FB               	movwf	(??_conversion+0)+0
  3736  0E3F  087B               	movf	(??_conversion+0)+0,w
  3737  0E40  00F6               	movwf	0+(?_lcd_cmd)+04h
  3738  0E41  120A  158A  22C5   	fcall	_lcd_cmd
              120A  158A         
  3739                           	line	86
  3740                           	
  3741  0E46                     l3705:	
  3742                           ;Indu886.c: 86: string("time  : ");
  3743  0E46  30E9               	movlw	low(STR_1|8000h)
  3744  0E47  00F8               	movwf	(?_string)
  3745  0E48  3088               	movlw	high(STR_1|8000h)
  3746  0E49  00F9               	movwf	((?_string))+1
  3747  0E4A  120A  158A  2359   	fcall	_string
              120A  158A         
  3748                           	line	87
  3749                           	
  3750  0E4F                     l3707:	
  3751                           ;Indu886.c: 87: lcd_cmd(1,0,((disp[2]&0X30)>>4)+0X30);
  3752  0E4F  3001               	movlw	low(01h)
  3753  0E50  00F2               	movwf	(?_lcd_cmd)
  3754  0E51  3000               	movlw	high(01h)
  3755  0E52  00F3               	movwf	((?_lcd_cmd))+1
  3756  0E53  3000               	movlw	low(0)
  3757  0E54  00F4               	movwf	0+(?_lcd_cmd)+02h
  3758  0E55  3000               	movlw	high(0)
  3759  0E56  00F5               	movwf	(0+(?_lcd_cmd)+02h)+1
  3760  0E57  087D               	movf	(conversion@disp),w
  3761  0E58  3E02               	addlw	02h
  3762  0E59  0084               	movwf	fsr0
  3763  0E5A  1383               	bcf	status, 7	;select IRP bank0
  3764  0E5B  0800               	movf	indf,w
  3765  0E5C  00FB               	movwf	(??_conversion+0)+0
  3766  0E5D  3004               	movlw	04h
  3767  0E5E                     u3905:
  3768  0E5E  1003               	clrc
  3769  0E5F  0CFB               	rrf	(??_conversion+0)+0,f
  3770  0E60  3EFF               	addlw	-1
  3771  0E61  1D03               	skipz
  3772  0E62  2E5E               	goto	u3905
  3773  0E63  087B               	movf	0+(??_conversion+0)+0,w
  3774  0E64  3903               	andlw	03h
  3775  0E65  3E30               	addlw	030h
  3776  0E66  00FC               	movwf	(??_conversion+1)+0
  3777  0E67  087C               	movf	(??_conversion+1)+0,w
  3778  0E68  00F6               	movwf	0+(?_lcd_cmd)+04h
  3779  0E69  120A  158A  22C5   	fcall	_lcd_cmd
              120A  158A         
  3780                           	line	88
  3781                           	
  3782  0E6E                     l3709:	
  3783                           ;Indu886.c: 88: lcd_cmd(1,0,(disp[2]&0X0F)+0X30);
  3784  0E6E  3001               	movlw	low(01h)
  3785  0E6F  00F2               	movwf	(?_lcd_cmd)
  3786  0E70  3000               	movlw	high(01h)
  3787  0E71  00F3               	movwf	((?_lcd_cmd))+1
  3788  0E72  3000               	movlw	low(0)
  3789  0E73  00F4               	movwf	0+(?_lcd_cmd)+02h
  3790  0E74  3000               	movlw	high(0)
  3791  0E75  00F5               	movwf	(0+(?_lcd_cmd)+02h)+1
  3792  0E76  087D               	movf	(conversion@disp),w
  3793  0E77  3E02               	addlw	02h
  3794  0E78  0084               	movwf	fsr0
  3795  0E79  1383               	bcf	status, 7	;select IRP bank0
  3796  0E7A  0800               	movf	indf,w
  3797  0E7B  390F               	andlw	0Fh
  3798  0E7C  3E30               	addlw	030h
  3799  0E7D  00FB               	movwf	(??_conversion+0)+0
  3800  0E7E  087B               	movf	(??_conversion+0)+0,w
  3801  0E7F  00F6               	movwf	0+(?_lcd_cmd)+04h
  3802  0E80  120A  158A  22C5   	fcall	_lcd_cmd
              120A  158A         
  3803                           	line	89
  3804                           	
  3805  0E85                     l3711:	
  3806                           ;Indu886.c: 89: lcd_cmd(1,0,':');
  3807  0E85  3001               	movlw	low(01h)
  3808  0E86  00F2               	movwf	(?_lcd_cmd)
  3809  0E87  3000               	movlw	high(01h)
  3810  0E88  00F3               	movwf	((?_lcd_cmd))+1
  3811  0E89  3000               	movlw	low(0)
  3812  0E8A  00F4               	movwf	0+(?_lcd_cmd)+02h
  3813  0E8B  3000               	movlw	high(0)
  3814  0E8C  00F5               	movwf	(0+(?_lcd_cmd)+02h)+1
  3815  0E8D  303A               	movlw	(03Ah)
  3816  0E8E  00FB               	movwf	(??_conversion+0)+0
  3817  0E8F  087B               	movf	(??_conversion+0)+0,w
  3818  0E90  00F6               	movwf	0+(?_lcd_cmd)+04h
  3819  0E91  120A  158A  22C5   	fcall	_lcd_cmd
              120A  158A         
  3820                           	line	91
  3821                           	
  3822  0E96                     l3713:	
  3823                           ;Indu886.c: 91: lcd_cmd(1,0,((disp[1]&0X70)>>4)+0X30);
  3824  0E96  3001               	movlw	low(01h)
  3825  0E97  00F2               	movwf	(?_lcd_cmd)
  3826  0E98  3000               	movlw	high(01h)
  3827  0E99  00F3               	movwf	((?_lcd_cmd))+1
  3828  0E9A  3000               	movlw	low(0)
  3829  0E9B  00F4               	movwf	0+(?_lcd_cmd)+02h
  3830  0E9C  3000               	movlw	high(0)
  3831  0E9D  00F5               	movwf	(0+(?_lcd_cmd)+02h)+1
  3832  0E9E  087D               	movf	(conversion@disp),w
  3833  0E9F  3E01               	addlw	01h
  3834  0EA0  0084               	movwf	fsr0
  3835  0EA1  1383               	bcf	status, 7	;select IRP bank0
  3836  0EA2  0800               	movf	indf,w
  3837  0EA3  00FB               	movwf	(??_conversion+0)+0
  3838  0EA4  3004               	movlw	04h
  3839  0EA5                     u3915:
  3840  0EA5  1003               	clrc
  3841  0EA6  0CFB               	rrf	(??_conversion+0)+0,f
  3842  0EA7  3EFF               	addlw	-1
  3843  0EA8  1D03               	skipz
  3844  0EA9  2EA5               	goto	u3915
  3845  0EAA  087B               	movf	0+(??_conversion+0)+0,w
  3846  0EAB  3907               	andlw	07h
  3847  0EAC  3E30               	addlw	030h
  3848  0EAD  00FC               	movwf	(??_conversion+1)+0
  3849  0EAE  087C               	movf	(??_conversion+1)+0,w
  3850  0EAF  00F6               	movwf	0+(?_lcd_cmd)+04h
  3851  0EB0  120A  158A  22C5   	fcall	_lcd_cmd
              120A  158A         
  3852                           	line	92
  3853                           	
  3854  0EB5                     l3715:	
  3855                           ;Indu886.c: 92: lcd_cmd(1,0,(disp[1]&0X0F)+0X30);
  3856  0EB5  3001               	movlw	low(01h)
  3857  0EB6  00F2               	movwf	(?_lcd_cmd)
  3858  0EB7  3000               	movlw	high(01h)
  3859  0EB8  00F3               	movwf	((?_lcd_cmd))+1
  3860  0EB9  3000               	movlw	low(0)
  3861  0EBA  00F4               	movwf	0+(?_lcd_cmd)+02h
  3862  0EBB  3000               	movlw	high(0)
  3863  0EBC  00F5               	movwf	(0+(?_lcd_cmd)+02h)+1
  3864  0EBD  087D               	movf	(conversion@disp),w
  3865  0EBE  3E01               	addlw	01h
  3866  0EBF  0084               	movwf	fsr0
  3867  0EC0  1383               	bcf	status, 7	;select IRP bank0
  3868  0EC1  0800               	movf	indf,w
  3869  0EC2  390F               	andlw	0Fh
  3870  0EC3  3E30               	addlw	030h
  3871  0EC4  00FB               	movwf	(??_conversion+0)+0
  3872  0EC5  087B               	movf	(??_conversion+0)+0,w
  3873  0EC6  00F6               	movwf	0+(?_lcd_cmd)+04h
  3874  0EC7  120A  158A  22C5   	fcall	_lcd_cmd
              120A  158A         
  3875                           	line	93
  3876                           	
  3877  0ECC                     l3717:	
  3878                           ;Indu886.c: 93: lcd_cmd(1,0,':');
  3879  0ECC  3001               	movlw	low(01h)
  3880  0ECD  00F2               	movwf	(?_lcd_cmd)
  3881  0ECE  3000               	movlw	high(01h)
  3882  0ECF  00F3               	movwf	((?_lcd_cmd))+1
  3883  0ED0  3000               	movlw	low(0)
  3884  0ED1  00F4               	movwf	0+(?_lcd_cmd)+02h
  3885  0ED2  3000               	movlw	high(0)
  3886  0ED3  00F5               	movwf	(0+(?_lcd_cmd)+02h)+1
  3887  0ED4  303A               	movlw	(03Ah)
  3888  0ED5  00FB               	movwf	(??_conversion+0)+0
  3889  0ED6  087B               	movf	(??_conversion+0)+0,w
  3890  0ED7  00F6               	movwf	0+(?_lcd_cmd)+04h
  3891  0ED8  120A  158A  22C5   	fcall	_lcd_cmd
              120A  158A         
  3892                           	line	95
  3893                           	
  3894  0EDD                     l3719:	
  3895                           ;Indu886.c: 95: lcd_cmd(1,0,((disp[0]&0X70)>>4)+0X30);
  3896  0EDD  3001               	movlw	low(01h)
  3897  0EDE  00F2               	movwf	(?_lcd_cmd)
  3898  0EDF  3000               	movlw	high(01h)
  3899  0EE0  00F3               	movwf	((?_lcd_cmd))+1
  3900  0EE1  3000               	movlw	low(0)
  3901  0EE2  00F4               	movwf	0+(?_lcd_cmd)+02h
  3902  0EE3  3000               	movlw	high(0)
  3903  0EE4  00F5               	movwf	(0+(?_lcd_cmd)+02h)+1
  3904  0EE5  087D               	movf	(conversion@disp),w
  3905  0EE6  0084               	movwf	fsr0
  3906  0EE7  1383               	bcf	status, 7	;select IRP bank0
  3907  0EE8  0800               	movf	indf,w
  3908  0EE9  00FB               	movwf	(??_conversion+0)+0
  3909  0EEA  3004               	movlw	04h
  3910  0EEB                     u3925:
  3911  0EEB  1003               	clrc
  3912  0EEC  0CFB               	rrf	(??_conversion+0)+0,f
  3913  0EED  3EFF               	addlw	-1
  3914  0EEE  1D03               	skipz
  3915  0EEF  2EEB               	goto	u3925
  3916  0EF0  087B               	movf	0+(??_conversion+0)+0,w
  3917  0EF1  3907               	andlw	07h
  3918  0EF2  3E30               	addlw	030h
  3919  0EF3  00FC               	movwf	(??_conversion+1)+0
  3920  0EF4  087C               	movf	(??_conversion+1)+0,w
  3921  0EF5  00F6               	movwf	0+(?_lcd_cmd)+04h
  3922  0EF6  120A  158A  22C5   	fcall	_lcd_cmd
              120A  158A         
  3923                           	line	96
  3924                           	
  3925  0EFB                     l3721:	
  3926                           ;Indu886.c: 96: lcd_cmd(1,0,(disp[0]&0X0F)+0X30);
  3927  0EFB  3001               	movlw	low(01h)
  3928  0EFC  00F2               	movwf	(?_lcd_cmd)
  3929  0EFD  3000               	movlw	high(01h)
  3930  0EFE  00F3               	movwf	((?_lcd_cmd))+1
  3931  0EFF  3000               	movlw	low(0)
  3932  0F00  00F4               	movwf	0+(?_lcd_cmd)+02h
  3933  0F01  3000               	movlw	high(0)
  3934  0F02  00F5               	movwf	(0+(?_lcd_cmd)+02h)+1
  3935  0F03  087D               	movf	(conversion@disp),w
  3936  0F04  0084               	movwf	fsr0
  3937  0F05  1383               	bcf	status, 7	;select IRP bank0
  3938  0F06  0800               	movf	indf,w
  3939  0F07  390F               	andlw	0Fh
  3940  0F08  3E30               	addlw	030h
  3941  0F09  00FB               	movwf	(??_conversion+0)+0
  3942  0F0A  087B               	movf	(??_conversion+0)+0,w
  3943  0F0B  00F6               	movwf	0+(?_lcd_cmd)+04h
  3944  0F0C  120A  158A  22C5   	fcall	_lcd_cmd
              120A  158A         
  3945                           	line	98
  3946                           	
  3947  0F11                     l1038:	
  3948  0F11  0008               	return
  3949                           	opt stack 0
  3950                           GLOBAL	__end_of_conversion
  3951  0F12                     	__end_of_conversion:
  3952 ;; =============== function _conversion ends ============
  3953                           
  3954                           	signat	_conversion,4216
  3955                           	global	_gsm
  3956                           psect	text602,local,class=CODE,delta=2
  3957                           global __ptext602
  3958  0D89                     __ptext602:
  3959                           
  3960 ;; *************** function _gsm *****************
  3961 ;; Defined at:
  3962 ;;		line 172 in file "D:\Embedded\pic\code\Indu886.c"
  3963 ;; Parameters:    Size  Location     Type
  3964 ;;  cmd             2    4[COMMON] int 
  3965 ;; Auto vars:     Size  Location     Type
  3966 ;;		None
  3967 ;; Return value:  Size  Location     Type
  3968 ;;		None               void
  3969 ;; Registers used:
  3970 ;;		wreg, fsr0l, fsr0h, status,2, status,0, btemp+1, pclath, cstack
  3971 ;; Tracked objects:
  3972 ;;		On entry : 0/0
  3973 ;;		On exit  : 0/0
  3974 ;;		Unchanged: 0/0
  3975 ;; Data sizes:     COMMON   BANK0   BANK1   BANK3   BANK2
  3976 ;;      Params:         2       0       0       0       0
  3977 ;;      Locals:         0       0       0       0       0
  3978 ;;      Temps:          0       0       0       0       0
  3979 ;;      Totals:         2       0       0       0       0
  3980 ;;Total ram usage:        2 bytes
  3981 ;; Hardware stack levels used:    1
  3982 ;; Hardware stack levels required when called:    3
  3983 ;; This function calls:
  3984 ;;		_trans
  3985 ;;		_new
  3986 ;;		_delay
  3987 ;;		_tran
  3988 ;; This function is called by:
  3989 ;;		_adc
  3990 ;;		_main
  3991 ;; This function uses a non-reentrant model
  3992 ;;
  3993                           psect	text602
  3994                           	file	"D:\Embedded\pic\code\Indu886.c"
  3995                           	line	172
  3996                           	global	__size_of_gsm
  3997  00AB                     	__size_of_gsm	equ	__end_of_gsm-_gsm
  3998                           	
  3999  0D89                     _gsm:	
  4000                           	opt	stack 4
  4001                           ; Regs used in _gsm: [wreg-fsr0h+status,2+status,0+btemp+1+pclath+cstack]
  4002                           	line	173
  4003                           	
  4004  0D89                     l3663:	
  4005                           ;Indu886.c: 173: if(flag1==1)
  4006  0D89  3001               	movlw	01h
  4007  0D8A  1283               	bcf	status, 5	;RP0=0, select bank0
  4008  0D8B  1303               	bcf	status, 6	;RP1=0, select bank0
  4009  0D8C  0666               	xorwf	(_flag1),w
  4010  0D8D  0467               	iorwf	(_flag1+1),w
  4011  0D8E  1D03               	skipz
  4012  0D8F  2D91               	goto	u3861
  4013  0D90  2D92               	goto	u3860
  4014  0D91                     u3861:
  4015  0D91  2E33               	goto	l1078
  4016  0D92                     u3860:
  4017                           	line	175
  4018                           	
  4019  0D92                     l3665:	
  4020                           ;Indu886.c: 174: {
  4021                           ;Indu886.c: 175: trans("AT");
  4022  0D92  300D               	movlw	low(STR_5|8000h)
  4023  0D93  00F2               	movwf	(?_trans)
  4024  0D94  3089               	movlw	high(STR_5|8000h)
  4025  0D95  00F3               	movwf	((?_trans))+1
  4026  0D96  120A  158A  2324   	fcall	_trans
              120A  158A         
  4027                           	line	176
  4028                           	
  4029  0D9B                     l3667:	
  4030                           ;Indu886.c: 176: new();
  4031  0D9B  120A  158A  21D3   	fcall	_new
              120A  158A         
  4032                           	line	177
  4033                           	
  4034  0DA0                     l3669:	
  4035                           ;Indu886.c: 177: delay(10000);
  4036  0DA0  3010               	movlw	low(02710h)
  4037  0DA1  00F0               	movwf	(?_delay)
  4038  0DA2  3027               	movlw	high(02710h)
  4039  0DA3  00F1               	movwf	((?_delay))+1
  4040  0DA4  120A  158A  21E0   	fcall	_delay
              120A  158A         
  4041                           	line	178
  4042                           ;Indu886.c: 178: trans("AT+CMGF=1");
  4043  0DA9  30DF               	movlw	low(STR_6|8000h)
  4044  0DAA  00F2               	movwf	(?_trans)
  4045  0DAB  3088               	movlw	high(STR_6|8000h)
  4046  0DAC  00F3               	movwf	((?_trans))+1
  4047  0DAD  120A  158A  2324   	fcall	_trans
              120A  158A         
  4048                           	line	179
  4049                           	
  4050  0DB2                     l3671:	
  4051                           ;Indu886.c: 179: new();
  4052  0DB2  120A  158A  21D3   	fcall	_new
              120A  158A         
  4053                           	line	180
  4054                           	
  4055  0DB7                     l3673:	
  4056                           ;Indu886.c: 180: delay(10000);
  4057  0DB7  3010               	movlw	low(02710h)
  4058  0DB8  00F0               	movwf	(?_delay)
  4059  0DB9  3027               	movlw	high(02710h)
  4060  0DBA  00F1               	movwf	((?_delay))+1
  4061  0DBB  120A  158A  21E0   	fcall	_delay
              120A  158A         
  4062                           	line	181
  4063                           ;Indu886.c: 181: trans("AT+CMGS=\"+919566511486\"");
  4064  0DC0  309A               	movlw	low(STR_7|8000h)
  4065  0DC1  00F2               	movwf	(?_trans)
  4066  0DC2  3088               	movlw	high(STR_7|8000h)
  4067  0DC3  00F3               	movwf	((?_trans))+1
  4068  0DC4  120A  158A  2324   	fcall	_trans
              120A  158A         
  4069                           	line	182
  4070                           	
  4071  0DC9                     l3675:	
  4072                           ;Indu886.c: 182: new();
  4073  0DC9  120A  158A  21D3   	fcall	_new
              120A  158A         
  4074                           	line	183
  4075                           	
  4076  0DCE                     l3677:	
  4077                           ;Indu886.c: 183: delay(10000);
  4078  0DCE  3010               	movlw	low(02710h)
  4079  0DCF  00F0               	movwf	(?_delay)
  4080  0DD0  3027               	movlw	high(02710h)
  4081  0DD1  00F1               	movwf	((?_delay))+1
  4082  0DD2  120A  158A  21E0   	fcall	_delay
              120A  158A         
  4083                           	line	184
  4084                           	
  4085  0DD7                     l3679:	
  4086                           ;Indu886.c: 184: if(cmd==1)
  4087  0DD7  3001               	movlw	01h
  4088  0DD8  0674               	xorwf	(gsm@cmd),w
  4089  0DD9  0475               	iorwf	(gsm@cmd+1),w
  4090  0DDA  1D03               	skipz
  4091  0DDB  2DDD               	goto	u3871
  4092  0DDC  2DDE               	goto	u3870
  4093  0DDD                     u3871:
  4094  0DDD  2DE8               	goto	l3683
  4095  0DDE                     u3870:
  4096                           	line	186
  4097                           	
  4098  0DDE                     l3681:	
  4099                           ;Indu886.c: 185: {
  4100                           ;Indu886.c: 186: trans("This an emergency due to Generator overheat. Take an action.");
  4101  0DDE  3000               	movlw	low(STR_8|8000h)
  4102  0DDF  00F2               	movwf	(?_trans)
  4103  0DE0  3088               	movlw	high(STR_8|8000h)
  4104  0DE1  00F3               	movwf	((?_trans))+1
  4105  0DE2  120A  158A  2324   	fcall	_trans
              120A  158A         
  4106  0DE7  2DE8               	goto	l3683
  4107                           	line	187
  4108                           	
  4109  0DE8                     l1075:	
  4110                           	line	188
  4111                           	
  4112  0DE8                     l3683:	
  4113                           ;Indu886.c: 187: }
  4114                           ;Indu886.c: 188: if(cmd==2)
  4115  0DE8  3002               	movlw	02h
  4116  0DE9  0674               	xorwf	(gsm@cmd),w
  4117  0DEA  0475               	iorwf	(gsm@cmd+1),w
  4118  0DEB  1D03               	skipz
  4119  0DEC  2DEE               	goto	u3881
  4120  0DED  2DEF               	goto	u3880
  4121  0DEE                     u3881:
  4122  0DEE  2DF9               	goto	l3687
  4123  0DEF                     u3880:
  4124                           	line	190
  4125                           	
  4126  0DEF                     l3685:	
  4127                           ;Indu886.c: 189: {
  4128                           ;Indu886.c: 190: trans("Generator diesel reached low level 1 liter");
  4129  0DEF  306F               	movlw	low(STR_9|8000h)
  4130  0DF0  00F2               	movwf	(?_trans)
  4131  0DF1  3088               	movlw	high(STR_9|8000h)
  4132  0DF2  00F3               	movwf	((?_trans))+1
  4133  0DF3  120A  158A  2324   	fcall	_trans
              120A  158A         
  4134  0DF8  2DF9               	goto	l3687
  4135                           	line	191
  4136                           	
  4137  0DF9                     l1076:	
  4138                           	line	192
  4139                           	
  4140  0DF9                     l3687:	
  4141                           ;Indu886.c: 191: }
  4142                           ;Indu886.c: 192: if(cmd==3)
  4143  0DF9  3003               	movlw	03h
  4144  0DFA  0674               	xorwf	(gsm@cmd),w
  4145  0DFB  0475               	iorwf	(gsm@cmd+1),w
  4146  0DFC  1D03               	skipz
  4147  0DFD  2DFF               	goto	u3891
  4148  0DFE  2E00               	goto	u3890
  4149  0DFF                     u3891:
  4150  0DFF  2E0A               	goto	l3691
  4151  0E00                     u3890:
  4152                           	line	194
  4153                           	
  4154  0E00                     l3689:	
  4155                           ;Indu886.c: 193: {
  4156                           ;Indu886.c: 194: trans("Generator diesel reached very low level 0.5 liter");
  4157  0E00  303D               	movlw	low(STR_10|8000h)
  4158  0E01  00F2               	movwf	(?_trans)
  4159  0E02  3088               	movlw	high(STR_10|8000h)
  4160  0E03  00F3               	movwf	((?_trans))+1
  4161  0E04  120A  158A  2324   	fcall	_trans
              120A  158A         
  4162  0E09  2E0A               	goto	l3691
  4163                           	line	195
  4164                           	
  4165  0E0A                     l1077:	
  4166                           	line	196
  4167                           	
  4168  0E0A                     l3691:	
  4169                           ;Indu886.c: 195: }
  4170                           ;Indu886.c: 196: new();
  4171  0E0A  120A  158A  21D3   	fcall	_new
              120A  158A         
  4172                           	line	197
  4173                           	
  4174  0E0F                     l3693:	
  4175                           ;Indu886.c: 197: delay(10000);
  4176  0E0F  3010               	movlw	low(02710h)
  4177  0E10  00F0               	movwf	(?_delay)
  4178  0E11  3027               	movlw	high(02710h)
  4179  0E12  00F1               	movwf	((?_delay))+1
  4180  0E13  120A  158A  21E0   	fcall	_delay
              120A  158A         
  4181                           	line	198
  4182                           	
  4183  0E18                     l3695:	
  4184                           ;Indu886.c: 198: tran(0X1A);
  4185  0E18  301A               	movlw	(01Ah)
  4186  0E19  120A  158A  21F4   	fcall	_tran
              120A  158A         
  4187                           	line	199
  4188                           	
  4189  0E1E                     l3697:	
  4190                           ;Indu886.c: 199: new();
  4191  0E1E  120A  158A  21D3   	fcall	_new
              120A  158A         
  4192                           	line	200
  4193                           	
  4194  0E23                     l3699:	
  4195                           ;Indu886.c: 200: delay(10000);
  4196  0E23  3010               	movlw	low(02710h)
  4197  0E24  00F0               	movwf	(?_delay)
  4198  0E25  3027               	movlw	high(02710h)
  4199  0E26  00F1               	movwf	((?_delay))+1
  4200  0E27  120A  158A  21E0   	fcall	_delay
              120A  158A         
  4201                           	line	201
  4202                           	
  4203  0E2C                     l3701:	
  4204                           ;Indu886.c: 201: flag2=1;
  4205  0E2C  3001               	movlw	low(01h)
  4206  0E2D  1683               	bsf	status, 5	;RP0=1, select bank1
  4207  0E2E  1303               	bcf	status, 6	;RP1=0, select bank1
  4208  0E2F  00A2               	movwf	(_flag2)^080h
  4209  0E30  3000               	movlw	high(01h)
  4210  0E31  00A3               	movwf	((_flag2)^080h)+1
  4211  0E32  2E33               	goto	l1078
  4212                           	line	202
  4213                           	
  4214  0E33                     l1074:	
  4215                           	line	203
  4216                           	
  4217  0E33                     l1078:	
  4218  0E33  0008               	return
  4219                           	opt stack 0
  4220                           GLOBAL	__end_of_gsm
  4221  0E34                     	__end_of_gsm:
  4222 ;; =============== function _gsm ends ============
  4223                           
  4224                           	signat	_gsm,4216
  4225                           	global	_string
  4226                           psect	text603,local,class=CODE,delta=2
  4227                           global __ptext603
  4228  0B59                     __ptext603:
  4229                           
  4230 ;; *************** function _string *****************
  4231 ;; Defined at:
  4232 ;;		line 76 in file "D:\Embedded\pic\code\Indu886.c"
  4233 ;; Parameters:    Size  Location     Type
  4234 ;;  p               2    8[COMMON] PTR unsigned char 
  4235 ;;		 -> STR_15(6), STR_14(15), STR_13(14), STR_12(7), 
  4236 ;;		 -> STR_11(7), STR_4(16), STR_3(5), STR_2(9), 
  4237 ;;		 -> STR_1(9), 
  4238 ;; Auto vars:     Size  Location     Type
  4239 ;;		None
  4240 ;; Return value:  Size  Location     Type
  4241 ;;		None               void
  4242 ;; Registers used:
  4243 ;;		wreg, fsr0l, fsr0h, status,2, status,0, btemp+1, pclath, cstack
  4244 ;; Tracked objects:
  4245 ;;		On entry : 0/0
  4246 ;;		On exit  : 0/0
  4247 ;;		Unchanged: 0/0
  4248 ;; Data sizes:     COMMON   BANK0   BANK1   BANK3   BANK2
  4249 ;;      Params:         2       0       0       0       0
  4250 ;;      Locals:         0       0       0       0       0
  4251 ;;      Temps:          1       0       0       0       0
  4252 ;;      Totals:         3       0       0       0       0
  4253 ;;Total ram usage:        3 bytes
  4254 ;; Hardware stack levels used:    1
  4255 ;; Hardware stack levels required when called:    3
  4256 ;; This function calls:
  4257 ;;		_lcd_cmd
  4258 ;; This function is called by:
  4259 ;;		_conversion
  4260 ;;		_Generator_run
  4261 ;;		_adc
  4262 ;;		_main
  4263 ;; This function uses a non-reentrant model
  4264 ;;
  4265                           psect	text603
  4266                           	file	"D:\Embedded\pic\code\Indu886.c"
  4267                           	line	76
  4268                           	global	__size_of_string
  4269  0035                     	__size_of_string	equ	__end_of_string-_string
  4270                           	
  4271  0B59                     _string:	
  4272                           	opt	stack 3
  4273                           ; Regs used in _string: [wreg-fsr0h+status,2+status,0+btemp+1+pclath+cstack]
  4274                           	line	77
  4275                           	
  4276  0B59                     l3655:	
  4277                           ;Indu886.c: 77: while(*p)
  4278  0B59  2B7C               	goto	l3661
  4279                           	
  4280  0B5A                     l1033:	
  4281                           	line	79
  4282                           	
  4283  0B5A                     l3657:	
  4284                           ;Indu886.c: 78: {
  4285                           ;Indu886.c: 79: lcd_cmd(1,0,*p++);
  4286  0B5A  3001               	movlw	low(01h)
  4287  0B5B  00F2               	movwf	(?_lcd_cmd)
  4288  0B5C  3000               	movlw	high(01h)
  4289  0B5D  00F3               	movwf	((?_lcd_cmd))+1
  4290  0B5E  3000               	movlw	low(0)
  4291  0B5F  00F4               	movwf	0+(?_lcd_cmd)+02h
  4292  0B60  3000               	movlw	high(0)
  4293  0B61  00F5               	movwf	(0+(?_lcd_cmd)+02h)+1
  4294  0B62  0879               	movf	(string@p+1),w
  4295  0B63  1283               	bcf	status, 5	;RP0=0, select bank0
  4296  0B64  1303               	bcf	status, 6	;RP1=0, select bank0
  4297  0B65  00FF               	movwf	btemp+1
  4298  0B66  0878               	movf	(string@p),w
  4299  0B67  0084               	movwf	fsr0
  4300  0B68  120A  158A  2110   	fcall	stringtab
              120A  158A         
  4301  0B6D  00FA               	movwf	(??_string+0)+0
  4302  0B6E  087A               	movf	(??_string+0)+0,w
  4303  0B6F  00F6               	movwf	0+(?_lcd_cmd)+04h
  4304  0B70  120A  158A  22C5   	fcall	_lcd_cmd
              120A  158A         
  4305                           	
  4306  0B75                     l3659:	
  4307  0B75  3001               	movlw	low(01h)
  4308  0B76  07F8               	addwf	(string@p),f
  4309  0B77  1803               	skipnc
  4310  0B78  0AF9               	incf	(string@p+1),f
  4311  0B79  3000               	movlw	high(01h)
  4312  0B7A  07F9               	addwf	(string@p+1),f
  4313  0B7B  2B7C               	goto	l3661
  4314                           	line	80
  4315                           	
  4316  0B7C                     l1032:	
  4317                           	line	77
  4318                           	
  4319  0B7C                     l3661:	
  4320  0B7C  0879               	movf	(string@p+1),w
  4321  0B7D  1283               	bcf	status, 5	;RP0=0, select bank0
  4322  0B7E  1303               	bcf	status, 6	;RP1=0, select bank0
  4323  0B7F  00FF               	movwf	btemp+1
  4324  0B80  0878               	movf	(string@p),w
  4325  0B81  0084               	movwf	fsr0
  4326  0B82  120A  158A  2110   	fcall	stringtab
              120A  158A         
  4327  0B87  3800               	iorlw	0
  4328  0B88  1D03               	skipz
  4329  0B89  2B8B               	goto	u3851
  4330  0B8A  2B8C               	goto	u3850
  4331  0B8B                     u3851:
  4332  0B8B  2B5A               	goto	l3657
  4333  0B8C                     u3850:
  4334  0B8C  2B8D               	goto	l1035
  4335                           	
  4336  0B8D                     l1034:	
  4337                           	line	81
  4338                           	
  4339  0B8D                     l1035:	
  4340  0B8D  0008               	return
  4341                           	opt stack 0
  4342                           GLOBAL	__end_of_string
  4343  0B8E                     	__end_of_string:
  4344 ;; =============== function _string ends ============
  4345                           
  4346                           	signat	_string,4216
  4347                           	global	_new
  4348                           psect	text604,local,class=CODE,delta=2
  4349                           global __ptext604
  4350  09D3                     __ptext604:
  4351                           
  4352 ;; *************** function _new *****************
  4353 ;; Defined at:
  4354 ;;		line 167 in file "D:\Embedded\pic\code\Indu886.c"
  4355 ;; Parameters:    Size  Location     Type
  4356 ;;		None
  4357 ;; Auto vars:     Size  Location     Type
  4358 ;;		None
  4359 ;; Return value:  Size  Location     Type
  4360 ;;		None               void
  4361 ;; Registers used:
  4362 ;;		wreg, status,2, status,0, pclath, cstack
  4363 ;; Tracked objects:
  4364 ;;		On entry : 0/0
  4365 ;;		On exit  : 0/0
  4366 ;;		Unchanged: 0/0
  4367 ;; Data sizes:     COMMON   BANK0   BANK1   BANK3   BANK2
  4368 ;;      Params:         0       0       0       0       0
  4369 ;;      Locals:         0       0       0       0       0
  4370 ;;      Temps:          0       0       0       0       0
  4371 ;;      Totals:         0       0       0       0       0
  4372 ;;Total ram usage:        0 bytes
  4373 ;; Hardware stack levels used:    1
  4374 ;; Hardware stack levels required when called:    2
  4375 ;; This function calls:
  4376 ;;		_tran
  4377 ;; This function is called by:
  4378 ;;		_gsm
  4379 ;; This function uses a non-reentrant model
  4380 ;;
  4381                           psect	text604
  4382                           	file	"D:\Embedded\pic\code\Indu886.c"
  4383                           	line	167
  4384                           	global	__size_of_new
  4385  000D                     	__size_of_new	equ	__end_of_new-_new
  4386                           	
  4387  09D3                     _new:	
  4388                           	opt	stack 4
  4389                           ; Regs used in _new: [wreg+status,2+status,0+pclath+cstack]
  4390                           	line	168
  4391                           	
  4392  09D3                     l3653:	
  4393                           ;Indu886.c: 168: tran(0X0D);
  4394  09D3  300D               	movlw	(0Dh)
  4395  09D4  120A  158A  21F4   	fcall	_tran
              120A  158A         
  4396                           	line	169
  4397                           ;Indu886.c: 169: tran(0X0A);
  4398  09D9  300A               	movlw	(0Ah)
  4399  09DA  120A  158A  21F4   	fcall	_tran
              120A  158A         
  4400                           	line	170
  4401                           	
  4402  09DF                     l1071:	
  4403  09DF  0008               	return
  4404                           	opt stack 0
  4405                           GLOBAL	__end_of_new
  4406  09E0                     	__end_of_new:
  4407 ;; =============== function _new ends ============
  4408                           
  4409                           	signat	_new,88
  4410                           	global	_lcd_cmd
  4411                           psect	text605,local,class=CODE,delta=2
  4412                           global __ptext605
  4413  0AC5                     __ptext605:
  4414                           
  4415 ;; *************** function _lcd_cmd *****************
  4416 ;; Defined at:
  4417 ;;		line 17 in file "D:\Embedded\pic\code\lcd.h"
  4418 ;; Parameters:    Size  Location     Type
  4419 ;;  a               2    2[COMMON] int 
  4420 ;;  b               2    4[COMMON] int 
  4421 ;;  c               1    6[COMMON] unsigned char 
  4422 ;; Auto vars:     Size  Location     Type
  4423 ;;		None
  4424 ;; Return value:  Size  Location     Type
  4425 ;;		None               void
  4426 ;; Registers used:
  4427 ;;		wreg, status,2, status,0, pclath, cstack
  4428 ;; Tracked objects:
  4429 ;;		On entry : 0/0
  4430 ;;		On exit  : 0/0
  4431 ;;		Unchanged: 0/0
  4432 ;; Data sizes:     COMMON   BANK0   BANK1   BANK3   BANK2
  4433 ;;      Params:         5       0       0       0       0
  4434 ;;      Locals:         0       0       0       0       0
  4435 ;;      Temps:          1       0       0       0       0
  4436 ;;      Totals:         6       0       0       0       0
  4437 ;;Total ram usage:        6 bytes
  4438 ;; Hardware stack levels used:    1
  4439 ;; Hardware stack levels required when called:    2
  4440 ;; This function calls:
  4441 ;;		_pulse
  4442 ;; This function is called by:
  4443 ;;		_string
  4444 ;;		_conversion
  4445 ;;		_Generator_run
  4446 ;;		_adc
  4447 ;;		_main
  4448 ;; This function uses a non-reentrant model
  4449 ;;
  4450                           psect	text605
  4451                           	file	"D:\Embedded\pic\code\lcd.h"
  4452                           	line	17
  4453                           	global	__size_of_lcd_cmd
  4454  002E                     	__size_of_lcd_cmd	equ	__end_of_lcd_cmd-_lcd_cmd
  4455                           	
  4456  0AC5                     _lcd_cmd:	
  4457                           	opt	stack 3
  4458                           ; Regs used in _lcd_cmd: [wreg+status,2+status,0+pclath+cstack]
  4459                           	line	18
  4460                           	
  4461  0AC5                     l3643:	
  4462                           ;lcd.h: 18: RB1=a;
  4463  0AC5  1872               	btfsc	(lcd_cmd@a),0
  4464  0AC6  2AC8               	goto	u3801
  4465  0AC7  2ACC               	goto	u3800
  4466                           	
  4467  0AC8                     u3801:
  4468  0AC8  1283               	bcf	status, 5	;RP0=0, select bank0
  4469  0AC9  1303               	bcf	status, 6	;RP1=0, select bank0
  4470  0ACA  1486               	bsf	(49/8),(49)&7
  4471  0ACB  2ACF               	goto	u3814
  4472  0ACC                     u3800:
  4473  0ACC  1283               	bcf	status, 5	;RP0=0, select bank0
  4474  0ACD  1303               	bcf	status, 6	;RP1=0, select bank0
  4475  0ACE  1086               	bcf	(49/8),(49)&7
  4476  0ACF                     u3814:
  4477                           	line	19
  4478                           ;lcd.h: 19: RB2=b;
  4479  0ACF  1874               	btfsc	(lcd_cmd@b),0
  4480  0AD0  2AD2               	goto	u3821
  4481  0AD1  2AD6               	goto	u3820
  4482                           	
  4483  0AD2                     u3821:
  4484  0AD2  1283               	bcf	status, 5	;RP0=0, select bank0
  4485  0AD3  1303               	bcf	status, 6	;RP1=0, select bank0
  4486  0AD4  1506               	bsf	(50/8),(50)&7
  4487  0AD5  2AD9               	goto	u3834
  4488  0AD6                     u3820:
  4489  0AD6  1283               	bcf	status, 5	;RP0=0, select bank0
  4490  0AD7  1303               	bcf	status, 6	;RP1=0, select bank0
  4491  0AD8  1106               	bcf	(50/8),(50)&7
  4492  0AD9                     u3834:
  4493                           	line	20
  4494                           	
  4495  0AD9                     l3645:	
  4496                           ;lcd.h: 20: PORTB=c;
  4497  0AD9  0876               	movf	(lcd_cmd@c),w
  4498  0ADA  0086               	movwf	(6)	;volatile
  4499                           	line	21
  4500                           	
  4501  0ADB                     l3647:	
  4502                           ;lcd.h: 21: pulse();
  4503  0ADB  120A  158A  221F   	fcall	_pulse
              120A  158A         
  4504                           	line	22
  4505                           	
  4506  0AE0                     l3649:	
  4507                           ;lcd.h: 22: PORTB=c<<4;
  4508  0AE0  0876               	movf	(lcd_cmd@c),w
  4509  0AE1  00F7               	movwf	(??_lcd_cmd+0)+0
  4510  0AE2  3003               	movlw	(04h)-1
  4511  0AE3                     u3845:
  4512  0AE3  1003               	clrc
  4513  0AE4  0DF7               	rlf	(??_lcd_cmd+0)+0,f
  4514  0AE5  3EFF               	addlw	-1
  4515  0AE6  1D03               	skipz
  4516  0AE7  2AE3               	goto	u3845
  4517  0AE8  1003               	clrc
  4518  0AE9  0D77               	rlf	(??_lcd_cmd+0)+0,w
  4519  0AEA  1283               	bcf	status, 5	;RP0=0, select bank0
  4520  0AEB  1303               	bcf	status, 6	;RP1=0, select bank0
  4521  0AEC  0086               	movwf	(6)	;volatile
  4522                           	line	23
  4523                           	
  4524  0AED                     l3651:	
  4525                           ;lcd.h: 23: pulse();
  4526  0AED  120A  158A  221F   	fcall	_pulse
              120A  158A         
  4527                           	line	24
  4528                           	
  4529  0AF2                     l1000:	
  4530  0AF2  0008               	return
  4531                           	opt stack 0
  4532                           GLOBAL	__end_of_lcd_cmd
  4533  0AF3                     	__end_of_lcd_cmd:
  4534 ;; =============== function _lcd_cmd ends ============
  4535                           
  4536                           	signat	_lcd_cmd,12408
  4537                           	global	___awtoft
  4538                           psect	text606,local,class=CODE,delta=2
  4539                           global __ptext606
  4540  0A9D                     __ptext606:
  4541                           
  4542 ;; *************** function ___awtoft *****************
  4543 ;; Defined at:
  4544 ;;		line 33 in file "C:\Program Files\HI-TECH Software\PICC\9.81\sources\awtoft.c"
  4545 ;; Parameters:    Size  Location     Type
  4546 ;;  c               2    8[COMMON] int 
  4547 ;; Auto vars:     Size  Location     Type
  4548 ;;  sign            1   13[COMMON] unsigned char 
  4549 ;; Return value:  Size  Location     Type
  4550 ;;                  3    8[COMMON] float 
  4551 ;; Registers used:
  4552 ;;		wreg, status,2, status,0, pclath, cstack
  4553 ;; Tracked objects:
  4554 ;;		On entry : 0/0
  4555 ;;		On exit  : 0/0
  4556 ;;		Unchanged: 0/0
  4557 ;; Data sizes:     COMMON   BANK0   BANK1   BANK3   BANK2
  4558 ;;      Params:         3       0       0       0       0
  4559 ;;      Locals:         1       0       0       0       0
  4560 ;;      Temps:          2       0       0       0       0
  4561 ;;      Totals:         6       0       0       0       0
  4562 ;;Total ram usage:        6 bytes
  4563 ;; Hardware stack levels used:    1
  4564 ;; Hardware stack levels required when called:    1
  4565 ;; This function calls:
  4566 ;;		___ftpack
  4567 ;; This function is called by:
  4568 ;;		_adc
  4569 ;; This function uses a non-reentrant model
  4570 ;;
  4571                           psect	text606
  4572                           	file	"C:\Program Files\HI-TECH Software\PICC\9.81\sources\awtoft.c"
  4573                           	line	33
  4574                           	global	__size_of___awtoft
  4575  0028                     	__size_of___awtoft	equ	__end_of___awtoft-___awtoft
  4576                           	
  4577  0A9D                     ___awtoft:	
  4578                           	opt	stack 5
  4579                           ; Regs used in ___awtoft: [wreg+status,2+status,0+pclath+cstack]
  4580                           	line	36
  4581                           	
  4582  0A9D                     l3635:	
  4583  0A9D  01FD               	clrf	(___awtoft@sign)
  4584                           	line	37
  4585  0A9E  1FF9               	btfss	(___awtoft@c+1),7
  4586  0A9F  2AA1               	goto	u3791
  4587  0AA0  2AA2               	goto	u3790
  4588  0AA1                     u3791:
  4589  0AA1  2AAB               	goto	l3639
  4590  0AA2                     u3790:
  4591                           	line	38
  4592                           	
  4593  0AA2                     l3637:	
  4594  0AA2  09F8               	comf	(___awtoft@c),f
  4595  0AA3  09F9               	comf	(___awtoft@c+1),f
  4596  0AA4  0AF8               	incf	(___awtoft@c),f
  4597  0AA5  1903               	skipnz
  4598  0AA6  0AF9               	incf	(___awtoft@c+1),f
  4599                           	line	39
  4600  0AA7  01FD               	clrf	(___awtoft@sign)
  4601  0AA8  1403               	bsf	status,0
  4602  0AA9  0DFD               	rlf	(___awtoft@sign),f
  4603  0AAA  2AAB               	goto	l3639
  4604                           	line	40
  4605                           	
  4606  0AAB                     l1283:	
  4607                           	line	41
  4608                           	
  4609  0AAB                     l3639:	
  4610  0AAB  0878               	movf	(___awtoft@c),w
  4611  0AAC  00F0               	movwf	(?___ftpack)
  4612  0AAD  0879               	movf	(___awtoft@c+1),w
  4613  0AAE  00F1               	movwf	(?___ftpack+1)
  4614  0AAF  01F2               	clrf	(?___ftpack+2)
  4615  0AB0  308E               	movlw	(08Eh)
  4616  0AB1  00FB               	movwf	(??___awtoft+0)+0
  4617  0AB2  087B               	movf	(??___awtoft+0)+0,w
  4618  0AB3  00F3               	movwf	0+(?___ftpack)+03h
  4619  0AB4  087D               	movf	(___awtoft@sign),w
  4620  0AB5  00FC               	movwf	(??___awtoft+1)+0
  4621  0AB6  087C               	movf	(??___awtoft+1)+0,w
  4622  0AB7  00F4               	movwf	0+(?___ftpack)+04h
  4623  0AB8  120A  158A  2468   	fcall	___ftpack
              120A  158A         
  4624  0ABD  0870               	movf	(0+(?___ftpack)),w
  4625  0ABE  00F8               	movwf	(?___awtoft)
  4626  0ABF  0871               	movf	(1+(?___ftpack)),w
  4627  0AC0  00F9               	movwf	(?___awtoft+1)
  4628  0AC1  0872               	movf	(2+(?___ftpack)),w
  4629  0AC2  00FA               	movwf	(?___awtoft+2)
  4630  0AC3  2AC4               	goto	l1284
  4631                           	
  4632  0AC4                     l3641:	
  4633                           	line	42
  4634                           	
  4635  0AC4                     l1284:	
  4636  0AC4  0008               	return
  4637                           	opt stack 0
  4638                           GLOBAL	__end_of___awtoft
  4639  0AC5                     	__end_of___awtoft:
  4640 ;; =============== function ___awtoft ends ============
  4641                           
  4642                           	signat	___awtoft,4219
  4643                           	global	___ftmul
  4644                           psect	text607,local,class=CODE,delta=2
  4645                           global __ptext607
  4646  0F12                     __ptext607:
  4647                           
  4648 ;; *************** function ___ftmul *****************
  4649 ;; Defined at:
  4650 ;;		line 52 in file "C:\Program Files\HI-TECH Software\PICC\9.81\sources\ftmul.c"
  4651 ;; Parameters:    Size  Location     Type
  4652 ;;  f1              3   10[BANK0 ] float 
  4653 ;;  f2              3   13[BANK0 ] float 
  4654 ;; Auto vars:     Size  Location     Type
  4655 ;;  f3_as_produc    3   21[BANK0 ] unsigned um
  4656 ;;  sign            1   25[BANK0 ] unsigned char 
  4657 ;;  cntr            1   24[BANK0 ] unsigned char 
  4658 ;;  exp             1   20[BANK0 ] unsigned char 
  4659 ;; Return value:  Size  Location     Type
  4660 ;;                  3   10[BANK0 ] float 
  4661 ;; Registers used:
  4662 ;;		wreg, status,2, status,0, pclath, cstack
  4663 ;; Tracked objects:
  4664 ;;		On entry : 0/0
  4665 ;;		On exit  : 0/0
  4666 ;;		Unchanged: 0/0
  4667 ;; Data sizes:     COMMON   BANK0   BANK1   BANK3   BANK2
  4668 ;;      Params:         0       6       0       0       0
  4669 ;;      Locals:         0       6       0       0       0
  4670 ;;      Temps:          0       4       0       0       0
  4671 ;;      Totals:         0      16       0       0       0
  4672 ;;Total ram usage:       16 bytes
  4673 ;; Hardware stack levels used:    1
  4674 ;; Hardware stack levels required when called:    1
  4675 ;; This function calls:
  4676 ;;		___ftpack
  4677 ;; This function is called by:
  4678 ;;		_adc
  4679 ;; This function uses a non-reentrant model
  4680 ;;
  4681                           psect	text607
  4682                           	file	"C:\Program Files\HI-TECH Software\PICC\9.81\sources\ftmul.c"
  4683                           	line	52
  4684                           	global	__size_of___ftmul
  4685  00EE                     	__size_of___ftmul	equ	__end_of___ftmul-___ftmul
  4686                           	
  4687  0F12                     ___ftmul:	
  4688                           	opt	stack 5
  4689                           ; Regs used in ___ftmul: [wreg+status,2+status,0+pclath+cstack]
  4690                           	line	56
  4691                           	
  4692  0F12                     l3585:	
  4693  0F12  1283               	bcf	status, 5	;RP0=0, select bank0
  4694  0F13  1303               	bcf	status, 6	;RP1=0, select bank0
  4695  0F14  082A               	movf	(___ftmul@f1),w
  4696  0F15  00B0               	movwf	((??___ftmul+0)+0)
  4697  0F16  082B               	movf	(___ftmul@f1+1),w
  4698  0F17  00B1               	movwf	((??___ftmul+0)+0+1)
  4699  0F18  082C               	movf	(___ftmul@f1+2),w
  4700  0F19  00B2               	movwf	((??___ftmul+0)+0+2)
  4701  0F1A  1003               	clrc
  4702  0F1B  0D31               	rlf	(??___ftmul+0)+1,w
  4703  0F1C  0D32               	rlf	(??___ftmul+0)+2,w
  4704  0F1D  00B3               	movwf	(??___ftmul+3)+0
  4705  0F1E  0833               	movf	(??___ftmul+3)+0,w
  4706  0F1F  00B4               	movwf	(___ftmul@exp)
  4707  0F20  08B4               	movf	((___ftmul@exp)),f
  4708  0F21  1D03               	skipz
  4709  0F22  2F24               	goto	u3651
  4710  0F23  2F25               	goto	u3650
  4711  0F24                     u3651:
  4712  0F24  2F2D               	goto	l3591
  4713  0F25                     u3650:
  4714                           	line	57
  4715                           	
  4716  0F25                     l3587:	
  4717  0F25  3000               	movlw	0x0
  4718  0F26  00AA               	movwf	(?___ftmul)
  4719  0F27  3000               	movlw	0x0
  4720  0F28  00AB               	movwf	(?___ftmul+1)
  4721  0F29  3000               	movlw	0x0
  4722  0F2A  00AC               	movwf	(?___ftmul+2)
  4723  0F2B  2FFF               	goto	l1246
  4724                           	
  4725  0F2C                     l3589:	
  4726  0F2C  2FFF               	goto	l1246
  4727                           	
  4728  0F2D                     l1245:	
  4729                           	line	58
  4730                           	
  4731  0F2D                     l3591:	
  4732  0F2D  082D               	movf	(___ftmul@f2),w
  4733  0F2E  00B0               	movwf	((??___ftmul+0)+0)
  4734  0F2F  082E               	movf	(___ftmul@f2+1),w
  4735  0F30  00B1               	movwf	((??___ftmul+0)+0+1)
  4736  0F31  082F               	movf	(___ftmul@f2+2),w
  4737  0F32  00B2               	movwf	((??___ftmul+0)+0+2)
  4738  0F33  1003               	clrc
  4739  0F34  0D31               	rlf	(??___ftmul+0)+1,w
  4740  0F35  0D32               	rlf	(??___ftmul+0)+2,w
  4741  0F36  00B3               	movwf	(??___ftmul+3)+0
  4742  0F37  0833               	movf	(??___ftmul+3)+0,w
  4743  0F38  00B9               	movwf	(___ftmul@sign)
  4744  0F39  08B9               	movf	((___ftmul@sign)),f
  4745  0F3A  1D03               	skipz
  4746  0F3B  2F3D               	goto	u3661
  4747  0F3C  2F3E               	goto	u3660
  4748  0F3D                     u3661:
  4749  0F3D  2F46               	goto	l3597
  4750  0F3E                     u3660:
  4751                           	line	59
  4752                           	
  4753  0F3E                     l3593:	
  4754  0F3E  3000               	movlw	0x0
  4755  0F3F  00AA               	movwf	(?___ftmul)
  4756  0F40  3000               	movlw	0x0
  4757  0F41  00AB               	movwf	(?___ftmul+1)
  4758  0F42  3000               	movlw	0x0
  4759  0F43  00AC               	movwf	(?___ftmul+2)
  4760  0F44  2FFF               	goto	l1246
  4761                           	
  4762  0F45                     l3595:	
  4763  0F45  2FFF               	goto	l1246
  4764                           	
  4765  0F46                     l1247:	
  4766                           	line	60
  4767                           	
  4768  0F46                     l3597:	
  4769  0F46  0839               	movf	(___ftmul@sign),w
  4770  0F47  3E7B               	addlw	07Bh
  4771  0F48  00B0               	movwf	(??___ftmul+0)+0
  4772  0F49  0830               	movf	(??___ftmul+0)+0,w
  4773  0F4A  07B4               	addwf	(___ftmul@exp),f
  4774                           	line	61
  4775  0F4B  082A               	movf	(___ftmul@f1),w
  4776  0F4C  00B0               	movwf	((??___ftmul+0)+0)
  4777  0F4D  082B               	movf	(___ftmul@f1+1),w
  4778  0F4E  00B1               	movwf	((??___ftmul+0)+0+1)
  4779  0F4F  082C               	movf	(___ftmul@f1+2),w
  4780  0F50  00B2               	movwf	((??___ftmul+0)+0+2)
  4781  0F51  3010               	movlw	010h
  4782  0F52                     u3675:
  4783  0F52  1003               	clrc
  4784  0F53  0CB2               	rrf	(??___ftmul+0)+2,f
  4785  0F54  0CB1               	rrf	(??___ftmul+0)+1,f
  4786  0F55  0CB0               	rrf	(??___ftmul+0)+0,f
  4787  0F56                     u3670:
  4788  0F56  3EFF               	addlw	-1
  4789  0F57  1D03               	skipz
  4790  0F58  2F52               	goto	u3675
  4791  0F59  0830               	movf	0+(??___ftmul+0)+0,w
  4792  0F5A  00B3               	movwf	(??___ftmul+3)+0
  4793  0F5B  0833               	movf	(??___ftmul+3)+0,w
  4794  0F5C  00B9               	movwf	(___ftmul@sign)
  4795                           	line	62
  4796  0F5D  082D               	movf	(___ftmul@f2),w
  4797  0F5E  00B0               	movwf	((??___ftmul+0)+0)
  4798  0F5F  082E               	movf	(___ftmul@f2+1),w
  4799  0F60  00B1               	movwf	((??___ftmul+0)+0+1)
  4800  0F61  082F               	movf	(___ftmul@f2+2),w
  4801  0F62  00B2               	movwf	((??___ftmul+0)+0+2)
  4802  0F63  3010               	movlw	010h
  4803  0F64                     u3685:
  4804  0F64  1003               	clrc
  4805  0F65  0CB2               	rrf	(??___ftmul+0)+2,f
  4806  0F66  0CB1               	rrf	(??___ftmul+0)+1,f
  4807  0F67  0CB0               	rrf	(??___ftmul+0)+0,f
  4808  0F68                     u3680:
  4809  0F68  3EFF               	addlw	-1
  4810  0F69  1D03               	skipz
  4811  0F6A  2F64               	goto	u3685
  4812  0F6B  0830               	movf	0+(??___ftmul+0)+0,w
  4813  0F6C  00B3               	movwf	(??___ftmul+3)+0
  4814  0F6D  0833               	movf	(??___ftmul+3)+0,w
  4815  0F6E  06B9               	xorwf	(___ftmul@sign),f
  4816                           	line	63
  4817  0F6F  3080               	movlw	(080h)
  4818  0F70  00B0               	movwf	(??___ftmul+0)+0
  4819  0F71  0830               	movf	(??___ftmul+0)+0,w
  4820  0F72  05B9               	andwf	(___ftmul@sign),f
  4821                           	line	64
  4822                           	
  4823  0F73                     l3599:	
  4824  0F73  17AB               	bsf	(___ftmul@f1)+(15/8),(15)&7
  4825                           	line	66
  4826                           	
  4827  0F74                     l3601:	
  4828  0F74  17AE               	bsf	(___ftmul@f2)+(15/8),(15)&7
  4829                           	line	67
  4830                           	
  4831  0F75                     l3603:	
  4832  0F75  30FF               	movlw	0FFh
  4833  0F76  05AD               	andwf	(___ftmul@f2),f
  4834  0F77  30FF               	movlw	0FFh
  4835  0F78  05AE               	andwf	(___ftmul@f2+1),f
  4836  0F79  3000               	movlw	0
  4837  0F7A  05AF               	andwf	(___ftmul@f2+2),f
  4838                           	line	68
  4839                           	
  4840  0F7B                     l3605:	
  4841  0F7B  3000               	movlw	0
  4842  0F7C  00B5               	movwf	(___ftmul@f3_as_product)
  4843  0F7D  3000               	movlw	0
  4844  0F7E  00B6               	movwf	(___ftmul@f3_as_product+1)
  4845  0F7F  3000               	movlw	0
  4846  0F80  00B7               	movwf	(___ftmul@f3_as_product+2)
  4847                           	line	69
  4848                           	
  4849  0F81                     l3607:	
  4850  0F81  3007               	movlw	(07h)
  4851  0F82  00B0               	movwf	(??___ftmul+0)+0
  4852  0F83  0830               	movf	(??___ftmul+0)+0,w
  4853  0F84  00B8               	movwf	(___ftmul@cntr)
  4854  0F85  2F86               	goto	l3609
  4855                           	line	70
  4856                           	
  4857  0F86                     l1248:	
  4858                           	line	71
  4859                           	
  4860  0F86                     l3609:	
  4861  0F86  1C2A               	btfss	(___ftmul@f1),(0)&7
  4862  0F87  2F89               	goto	u3691
  4863  0F88  2F8A               	goto	u3690
  4864  0F89                     u3691:
  4865  0F89  2F9B               	goto	l3613
  4866  0F8A                     u3690:
  4867                           	line	72
  4868                           	
  4869  0F8A                     l3611:	
  4870  0F8A  082D               	movf	(___ftmul@f2),w
  4871  0F8B  07B5               	addwf	(___ftmul@f3_as_product),f
  4872  0F8C  082E               	movf	(___ftmul@f2+1),w
  4873  0F8D  1103               	clrz
  4874  0F8E  1803               	skipnc
  4875  0F8F  0A2E               	incf	(___ftmul@f2+1),w
  4876  0F90  1903               	skipnz
  4877  0F91  2F93               	goto	u3701
  4878  0F92  07B6               	addwf	(___ftmul@f3_as_product+1),f
  4879  0F93                     u3701:
  4880  0F93  082F               	movf	(___ftmul@f2+2),w
  4881  0F94  1103               	clrz
  4882  0F95  1803               	skipnc
  4883  0F96  0A2F               	incf	(___ftmul@f2+2),w
  4884  0F97  1903               	skipnz
  4885  0F98  2F9A               	goto	u3702
  4886  0F99  07B7               	addwf	(___ftmul@f3_as_product+2),f
  4887  0F9A                     u3702:
  4888                           
  4889  0F9A  2F9B               	goto	l3613
  4890                           	
  4891  0F9B                     l1249:	
  4892                           	line	73
  4893                           	
  4894  0F9B                     l3613:	
  4895  0F9B  3001               	movlw	01h
  4896  0F9C                     u3715:
  4897  0F9C  1003               	clrc
  4898  0F9D  0CAC               	rrf	(___ftmul@f1+2),f
  4899  0F9E  0CAB               	rrf	(___ftmul@f1+1),f
  4900  0F9F  0CAA               	rrf	(___ftmul@f1),f
  4901  0FA0  3EFF               	addlw	-1
  4902  0FA1  1D03               	skipz
  4903  0FA2  2F9C               	goto	u3715
  4904                           
  4905                           	line	74
  4906                           	
  4907  0FA3                     l3615:	
  4908  0FA3  3001               	movlw	01h
  4909  0FA4                     u3725:
  4910  0FA4  1003               	clrc
  4911  0FA5  0DAD               	rlf	(___ftmul@f2),f
  4912  0FA6  0DAE               	rlf	(___ftmul@f2+1),f
  4913  0FA7  0DAF               	rlf	(___ftmul@f2+2),f
  4914  0FA8  3EFF               	addlw	-1
  4915  0FA9  1D03               	skipz
  4916  0FAA  2FA4               	goto	u3725
  4917                           	line	75
  4918                           	
  4919  0FAB                     l3617:	
  4920  0FAB  3001               	movlw	low(01h)
  4921  0FAC  02B8               	subwf	(___ftmul@cntr),f
  4922  0FAD  1D03               	btfss	status,2
  4923  0FAE  2FB0               	goto	u3731
  4924  0FAF  2FB1               	goto	u3730
  4925  0FB0                     u3731:
  4926  0FB0  2F86               	goto	l3609
  4927  0FB1                     u3730:
  4928  0FB1  2FB2               	goto	l3619
  4929                           	
  4930  0FB2                     l1250:	
  4931                           	line	76
  4932                           	
  4933  0FB2                     l3619:	
  4934  0FB2  3009               	movlw	(09h)
  4935  0FB3  00B0               	movwf	(??___ftmul+0)+0
  4936  0FB4  0830               	movf	(??___ftmul+0)+0,w
  4937  0FB5  00B8               	movwf	(___ftmul@cntr)
  4938  0FB6  2FB7               	goto	l3621
  4939                           	line	77
  4940                           	
  4941  0FB7                     l1251:	
  4942                           	line	78
  4943                           	
  4944  0FB7                     l3621:	
  4945  0FB7  1C2A               	btfss	(___ftmul@f1),(0)&7
  4946  0FB8  2FBA               	goto	u3741
  4947  0FB9  2FBB               	goto	u3740
  4948  0FBA                     u3741:
  4949  0FBA  2FCC               	goto	l3625
  4950  0FBB                     u3740:
  4951                           	line	79
  4952                           	
  4953  0FBB                     l3623:	
  4954  0FBB  082D               	movf	(___ftmul@f2),w
  4955  0FBC  07B5               	addwf	(___ftmul@f3_as_product),f
  4956  0FBD  082E               	movf	(___ftmul@f2+1),w
  4957  0FBE  1103               	clrz
  4958  0FBF  1803               	skipnc
  4959  0FC0  0A2E               	incf	(___ftmul@f2+1),w
  4960  0FC1  1903               	skipnz
  4961  0FC2  2FC4               	goto	u3751
  4962  0FC3  07B6               	addwf	(___ftmul@f3_as_product+1),f
  4963  0FC4                     u3751:
  4964  0FC4  082F               	movf	(___ftmul@f2+2),w
  4965  0FC5  1103               	clrz
  4966  0FC6  1803               	skipnc
  4967  0FC7  0A2F               	incf	(___ftmul@f2+2),w
  4968  0FC8  1903               	skipnz
  4969  0FC9  2FCB               	goto	u3752
  4970  0FCA  07B7               	addwf	(___ftmul@f3_as_product+2),f
  4971  0FCB                     u3752:
  4972                           
  4973  0FCB  2FCC               	goto	l3625
  4974                           	
  4975  0FCC                     l1252:	
  4976                           	line	80
  4977                           	
  4978  0FCC                     l3625:	
  4979  0FCC  3001               	movlw	01h
  4980  0FCD                     u3765:
  4981  0FCD  1003               	clrc
  4982  0FCE  0CAC               	rrf	(___ftmul@f1+2),f
  4983  0FCF  0CAB               	rrf	(___ftmul@f1+1),f
  4984  0FD0  0CAA               	rrf	(___ftmul@f1),f
  4985  0FD1  3EFF               	addlw	-1
  4986  0FD2  1D03               	skipz
  4987  0FD3  2FCD               	goto	u3765
  4988                           
  4989                           	line	81
  4990                           	
  4991  0FD4                     l3627:	
  4992  0FD4  3001               	movlw	01h
  4993  0FD5                     u3775:
  4994  0FD5  1003               	clrc
  4995  0FD6  0CB7               	rrf	(___ftmul@f3_as_product+2),f
  4996  0FD7  0CB6               	rrf	(___ftmul@f3_as_product+1),f
  4997  0FD8  0CB5               	rrf	(___ftmul@f3_as_product),f
  4998  0FD9  3EFF               	addlw	-1
  4999  0FDA  1D03               	skipz
  5000  0FDB  2FD5               	goto	u3775
  5001                           
  5002                           	line	82
  5003                           	
  5004  0FDC                     l3629:	
  5005  0FDC  3001               	movlw	low(01h)
  5006  0FDD  02B8               	subwf	(___ftmul@cntr),f
  5007  0FDE  1D03               	btfss	status,2
  5008  0FDF  2FE1               	goto	u3781
  5009  0FE0  2FE2               	goto	u3780
  5010  0FE1                     u3781:
  5011  0FE1  2FB7               	goto	l3621
  5012  0FE2                     u3780:
  5013  0FE2  2FE3               	goto	l3631
  5014                           	
  5015  0FE3                     l1253:	
  5016                           	line	83
  5017                           	
  5018  0FE3                     l3631:	
  5019  0FE3  0835               	movf	(___ftmul@f3_as_product),w
  5020  0FE4  00F0               	movwf	(?___ftpack)
  5021  0FE5  0836               	movf	(___ftmul@f3_as_product+1),w
  5022  0FE6  00F1               	movwf	(?___ftpack+1)
  5023  0FE7  0837               	movf	(___ftmul@f3_as_product+2),w
  5024  0FE8  00F2               	movwf	(?___ftpack+2)
  5025  0FE9  0834               	movf	(___ftmul@exp),w
  5026  0FEA  00B0               	movwf	(??___ftmul+0)+0
  5027  0FEB  0830               	movf	(??___ftmul+0)+0,w
  5028  0FEC  00F3               	movwf	0+(?___ftpack)+03h
  5029  0FED  0839               	movf	(___ftmul@sign),w
  5030  0FEE  00B1               	movwf	(??___ftmul+1)+0
  5031  0FEF  0831               	movf	(??___ftmul+1)+0,w
  5032  0FF0  00F4               	movwf	0+(?___ftpack)+04h
  5033  0FF1  120A  158A  2468   	fcall	___ftpack
              120A  158A         
  5034  0FF6  0870               	movf	(0+(?___ftpack)),w
  5035  0FF7  1283               	bcf	status, 5	;RP0=0, select bank0
  5036  0FF8  1303               	bcf	status, 6	;RP1=0, select bank0
  5037  0FF9  00AA               	movwf	(?___ftmul)
  5038  0FFA  0871               	movf	(1+(?___ftpack)),w
  5039  0FFB  00AB               	movwf	(?___ftmul+1)
  5040  0FFC  0872               	movf	(2+(?___ftpack)),w
  5041  0FFD  00AC               	movwf	(?___ftmul+2)
  5042  0FFE  2FFF               	goto	l1246
  5043                           	
  5044  0FFF                     l3633:	
  5045                           	line	84
  5046                           	
  5047  0FFF                     l1246:	
  5048  0FFF  0008               	return
  5049                           	opt stack 0
  5050                           GLOBAL	__end_of___ftmul
  5051  1000                     	__end_of___ftmul:
  5052 ;; =============== function ___ftmul ends ============
  5053                           
  5054                           	signat	___ftmul,8315
  5055                           	global	_tran
  5056                           psect	text608,local,class=CODE,delta=2
  5057                           global __ptext608
  5058  09F4                     __ptext608:
  5059                           
  5060 ;; *************** function _tran *****************
  5061 ;; Defined at:
  5062 ;;		line 160 in file "D:\Embedded\pic\code\Indu886.c"
  5063 ;; Parameters:    Size  Location     Type
  5064 ;;  data2           1    wreg     unsigned char 
  5065 ;; Auto vars:     Size  Location     Type
  5066 ;;  data2           1    2[COMMON] unsigned char 
  5067 ;; Return value:  Size  Location     Type
  5068 ;;		None               void
  5069 ;; Registers used:
  5070 ;;		wreg, status,2, status,0, pclath, cstack
  5071 ;; Tracked objects:
  5072 ;;		On entry : 0/0
  5073 ;;		On exit  : 0/0
  5074 ;;		Unchanged: 0/0
  5075 ;; Data sizes:     COMMON   BANK0   BANK1   BANK3   BANK2
  5076 ;;      Params:         0       0       0       0       0
  5077 ;;      Locals:         1       0       0       0       0
  5078 ;;      Temps:          0       0       0       0       0
  5079 ;;      Totals:         1       0       0       0       0
  5080 ;;Total ram usage:        1 bytes
  5081 ;; Hardware stack levels used:    1
  5082 ;; Hardware stack levels required when called:    1
  5083 ;; This function calls:
  5084 ;;		_delay
  5085 ;; This function is called by:
  5086 ;;		_new
  5087 ;;		_gsm
  5088 ;; This function uses a non-reentrant model
  5089 ;;
  5090                           psect	text608
  5091                           	file	"D:\Embedded\pic\code\Indu886.c"
  5092                           	line	160
  5093                           	global	__size_of_tran
  5094  0015                     	__size_of_tran	equ	__end_of_tran-_tran
  5095                           	
  5096  09F4                     _tran:	
  5097                           	opt	stack 5
  5098                           ; Regs used in _tran: [wreg+status,2+status,0+pclath+cstack]
  5099                           ;tran@data2 stored from wreg
  5100  09F4  00F2               	movwf	(tran@data2)
  5101                           	line	161
  5102                           	
  5103  09F5                     l3581:	
  5104                           ;Indu886.c: 161: TXREG=data2;
  5105  09F5  0872               	movf	(tran@data2),w
  5106  09F6  1283               	bcf	status, 5	;RP0=0, select bank0
  5107  09F7  1303               	bcf	status, 6	;RP1=0, select bank0
  5108  09F8  0099               	movwf	(25)	;volatile
  5109                           	line	162
  5110                           ;Indu886.c: 162: while(TXIF==0);
  5111  09F9  29FA               	goto	l1065
  5112                           	
  5113  09FA                     l1066:	
  5114                           	
  5115  09FA                     l1065:	
  5116  09FA  1E0C               	btfss	(100/8),(100)&7
  5117  09FB  29FD               	goto	u3641
  5118  09FC  29FE               	goto	u3640
  5119  09FD                     u3641:
  5120  09FD  29FA               	goto	l1065
  5121  09FE                     u3640:
  5122                           	
  5123  09FE                     l1067:	
  5124                           	line	163
  5125                           ;Indu886.c: 163: TXIF=0;
  5126  09FE  120C               	bcf	(100/8),(100)&7
  5127                           	line	164
  5128                           	
  5129  09FF                     l3583:	
  5130                           ;Indu886.c: 164: delay(1000);
  5131  09FF  30E8               	movlw	low(03E8h)
  5132  0A00  00F0               	movwf	(?_delay)
  5133  0A01  3003               	movlw	high(03E8h)
  5134  0A02  00F1               	movwf	((?_delay))+1
  5135  0A03  120A  158A  21E0   	fcall	_delay
              120A  158A         
  5136                           	line	165
  5137                           	
  5138  0A08                     l1068:	
  5139  0A08  0008               	return
  5140                           	opt stack 0
  5141                           GLOBAL	__end_of_tran
  5142  0A09                     	__end_of_tran:
  5143 ;; =============== function _tran ends ============
  5144                           
  5145                           	signat	_tran,4216
  5146                           	global	_trans
  5147                           psect	text609,local,class=CODE,delta=2
  5148                           global __ptext609
  5149  0B24                     __ptext609:
  5150                           
  5151 ;; *************** function _trans *****************
  5152 ;; Defined at:
  5153 ;;		line 150 in file "D:\Embedded\pic\code\Indu886.c"
  5154 ;; Parameters:    Size  Location     Type
  5155 ;;  data1           2    2[COMMON] PTR unsigned char 
  5156 ;;		 -> STR_10(50), STR_9(43), STR_8(61), STR_7(24), 
  5157 ;;		 -> STR_6(10), STR_5(3), 
  5158 ;; Auto vars:     Size  Location     Type
  5159 ;;		None
  5160 ;; Return value:  Size  Location     Type
  5161 ;;		None               void
  5162 ;; Registers used:
  5163 ;;		wreg, fsr0l, fsr0h, status,2, status,0, btemp+1, pclath, cstack
  5164 ;; Tracked objects:
  5165 ;;		On entry : 0/0
  5166 ;;		On exit  : 0/0
  5167 ;;		Unchanged: 0/0
  5168 ;; Data sizes:     COMMON   BANK0   BANK1   BANK3   BANK2
  5169 ;;      Params:         2       0       0       0       0
  5170 ;;      Locals:         0       0       0       0       0
  5171 ;;      Temps:          0       0       0       0       0
  5172 ;;      Totals:         2       0       0       0       0
  5173 ;;Total ram usage:        2 bytes
  5174 ;; Hardware stack levels used:    1
  5175 ;; Hardware stack levels required when called:    1
  5176 ;; This function calls:
  5177 ;;		_delay
  5178 ;; This function is called by:
  5179 ;;		_gsm
  5180 ;; This function uses a non-reentrant model
  5181 ;;
  5182                           psect	text609
  5183                           	file	"D:\Embedded\pic\code\Indu886.c"
  5184                           	line	150
  5185                           	global	__size_of_trans
  5186  0035                     	__size_of_trans	equ	__end_of_trans-_trans
  5187                           	
  5188  0B24                     _trans:	
  5189                           	opt	stack 5
  5190                           ; Regs used in _trans: [wreg-fsr0h+status,2+status,0+btemp+1+pclath+cstack]
  5191                           	line	151
  5192                           	
  5193  0B24                     l3571:	
  5194                           ;Indu886.c: 151: while(*data1)
  5195  0B24  2B47               	goto	l3579
  5196                           	
  5197  0B25                     l1057:	
  5198                           	line	153
  5199                           	
  5200  0B25                     l3573:	
  5201                           ;Indu886.c: 152: {
  5202                           ;Indu886.c: 153: TXREG=*data1++;
  5203  0B25  0873               	movf	(trans@data1+1),w
  5204  0B26  1283               	bcf	status, 5	;RP0=0, select bank0
  5205  0B27  1303               	bcf	status, 6	;RP1=0, select bank0
  5206  0B28  00FF               	movwf	btemp+1
  5207  0B29  0872               	movf	(trans@data1),w
  5208  0B2A  0084               	movwf	fsr0
  5209  0B2B  120A  158A  2110   	fcall	stringtab
              120A  158A         
  5210  0B30  0099               	movwf	(25)	;volatile
  5211                           	
  5212  0B31                     l3575:	
  5213  0B31  3001               	movlw	low(01h)
  5214  0B32  07F2               	addwf	(trans@data1),f
  5215  0B33  1803               	skipnc
  5216  0B34  0AF3               	incf	(trans@data1+1),f
  5217  0B35  3000               	movlw	high(01h)
  5218  0B36  07F3               	addwf	(trans@data1+1),f
  5219                           	line	154
  5220                           ;Indu886.c: 154: while(TXIF==0);
  5221  0B37  2B38               	goto	l1058
  5222                           	
  5223  0B38                     l1059:	
  5224                           	
  5225  0B38                     l1058:	
  5226  0B38  1E0C               	btfss	(100/8),(100)&7
  5227  0B39  2B3B               	goto	u3621
  5228  0B3A  2B3C               	goto	u3620
  5229  0B3B                     u3621:
  5230  0B3B  2B38               	goto	l1058
  5231  0B3C                     u3620:
  5232                           	
  5233  0B3C                     l1060:	
  5234                           	line	155
  5235                           ;Indu886.c: 155: TXIF=0;
  5236  0B3C  120C               	bcf	(100/8),(100)&7
  5237                           	line	156
  5238                           	
  5239  0B3D                     l3577:	
  5240                           ;Indu886.c: 156: delay(1000);
  5241  0B3D  30E8               	movlw	low(03E8h)
  5242  0B3E  00F0               	movwf	(?_delay)
  5243  0B3F  3003               	movlw	high(03E8h)
  5244  0B40  00F1               	movwf	((?_delay))+1
  5245  0B41  120A  158A  21E0   	fcall	_delay
              120A  158A         
  5246  0B46  2B47               	goto	l3579
  5247                           	line	157
  5248                           	
  5249  0B47                     l1056:	
  5250                           	line	151
  5251                           	
  5252  0B47                     l3579:	
  5253  0B47  0873               	movf	(trans@data1+1),w
  5254  0B48  1283               	bcf	status, 5	;RP0=0, select bank0
  5255  0B49  1303               	bcf	status, 6	;RP1=0, select bank0
  5256  0B4A  00FF               	movwf	btemp+1
  5257  0B4B  0872               	movf	(trans@data1),w
  5258  0B4C  0084               	movwf	fsr0
  5259  0B4D  120A  158A  2110   	fcall	stringtab
              120A  158A         
  5260  0B52  3800               	iorlw	0
  5261  0B53  1D03               	skipz
  5262  0B54  2B56               	goto	u3631
  5263  0B55  2B57               	goto	u3630
  5264  0B56                     u3631:
  5265  0B56  2B25               	goto	l3573
  5266  0B57                     u3630:
  5267  0B57  2B58               	goto	l1062
  5268                           	
  5269  0B58                     l1061:	
  5270                           	line	158
  5271                           	
  5272  0B58                     l1062:	
  5273  0B58  0008               	return
  5274                           	opt stack 0
  5275                           GLOBAL	__end_of_trans
  5276  0B59                     	__end_of_trans:
  5277 ;; =============== function _trans ends ============
  5278                           
  5279                           	signat	_trans,4216
  5280                           	global	_Gate_Siren
  5281                           psect	text610,local,class=CODE,delta=2
  5282                           global __ptext610
  5283  000F                     __ptext610:
  5284                           
  5285 ;; *************** function _Gate_Siren *****************
  5286 ;; Defined at:
  5287 ;;		line 101 in file "D:\Embedded\pic\code\Indu886.c"
  5288 ;; Parameters:    Size  Location     Type
  5289 ;;  read1           1    wreg     PTR unsigned char 
  5290 ;;		 -> read(6), 
  5291 ;; Auto vars:     Size  Location     Type
  5292 ;;  read1           1    2[COMMON] PTR unsigned char 
  5293 ;;		 -> read(6), 
  5294 ;; Return value:  Size  Location     Type
  5295 ;;		None               void
  5296 ;; Registers used:
  5297 ;;		wreg, fsr0l, fsr0h, status,2, status,0, pclath, cstack
  5298 ;; Tracked objects:
  5299 ;;		On entry : 0/0
  5300 ;;		On exit  : 0/0
  5301 ;;		Unchanged: 0/0
  5302 ;; Data sizes:     COMMON   BANK0   BANK1   BANK3   BANK2
  5303 ;;      Params:         0       0       0       0       0
  5304 ;;      Locals:         1       0       0       0       0
  5305 ;;      Temps:          0       0       0       0       0
  5306 ;;      Totals:         1       0       0       0       0
  5307 ;;Total ram usage:        1 bytes
  5308 ;; Hardware stack levels used:    1
  5309 ;; Hardware stack levels required when called:    1
  5310 ;; This function calls:
  5311 ;;		_delay
  5312 ;; This function is called by:
  5313 ;;		_main
  5314 ;; This function uses a non-reentrant model
  5315 ;;
  5316                           psect	text610
  5317                           	file	"D:\Embedded\pic\code\Indu886.c"
  5318                           	line	101
  5319                           	global	__size_of_Gate_Siren
  5320  0081                     	__size_of_Gate_Siren	equ	__end_of_Gate_Siren-_Gate_Siren
  5321                           	
  5322  000F                     _Gate_Siren:	
  5323                           	opt	stack 6
  5324                           ; Regs used in _Gate_Siren: [wreg-fsr0h+status,2+status,0+pclath+cstack]
  5325                           ;Gate_Siren@read1 stored from wreg
  5326                           	line	103
  5327  000F  00F2               	movwf	(Gate_Siren@read1)
  5328                           	
  5329  0010                     l3549:	
  5330                           ;Indu886.c: 103: if((read1[2]==0X10&&read1[1]==0X00&&read1[0]==0X00)||(read1[2]==0X01&&r
                                 ead1[1]==0X00&&read1[0]==0X00)||(read1[2]==0X05&&read1[1]==0X00&&read1[0]==0X00))
  5331  0010  0872               	movf	(Gate_Siren@read1),w
  5332  0011  3E02               	addlw	02h
  5333  0012  0084               	movwf	fsr0
  5334  0013  1383               	bcf	status, 7	;select IRP bank0
  5335  0014  0800               	movf	indf,w
  5336  0015  3A10               	xorlw	010h
  5337  0016  1D03               	skipz
  5338  0017  2819               	goto	u3531
  5339  0018  281A               	goto	u3530
  5340  0019                     u3531:
  5341  0019  282A               	goto	l3555
  5342  001A                     u3530:
  5343                           	
  5344  001A                     l3551:	
  5345  001A  0872               	movf	(Gate_Siren@read1),w
  5346  001B  3E01               	addlw	01h
  5347  001C  0084               	movwf	fsr0
  5348  001D  0880               	movf	indf,f
  5349  001E  1D03               	skipz
  5350  001F  2821               	goto	u3541
  5351  0020  2822               	goto	u3540
  5352  0021                     u3541:
  5353  0021  282A               	goto	l3555
  5354  0022                     u3540:
  5355                           	
  5356  0022                     l3553:	
  5357  0022  0872               	movf	(Gate_Siren@read1),w
  5358  0023  0084               	movwf	fsr0
  5359  0024  0880               	movf	indf
  5360  0025  1903               	skipnz
  5361  0026  2828               	goto	u3551
  5362  0027  2829               	goto	u3550
  5363  0028                     u3551:
  5364  0028  285B               	goto	l1043
  5365  0029                     u3550:
  5366  0029  282A               	goto	l3555
  5367                           	
  5368  002A                     l1045:	
  5369                           	
  5370  002A                     l3555:	
  5371  002A  0872               	movf	(Gate_Siren@read1),w
  5372  002B  3E02               	addlw	02h
  5373  002C  0084               	movwf	fsr0
  5374  002D  0800               	movf	indf,w
  5375  002E  3A01               	xorlw	01h
  5376  002F  1D03               	skipz
  5377  0030  2832               	goto	u3561
  5378  0031  2833               	goto	u3560
  5379  0032                     u3561:
  5380  0032  2843               	goto	l3561
  5381  0033                     u3560:
  5382                           	
  5383  0033                     l3557:	
  5384  0033  0872               	movf	(Gate_Siren@read1),w
  5385  0034  3E01               	addlw	01h
  5386  0035  0084               	movwf	fsr0
  5387  0036  0880               	movf	indf,f
  5388  0037  1D03               	skipz
  5389  0038  283A               	goto	u3571
  5390  0039  283B               	goto	u3570
  5391  003A                     u3571:
  5392  003A  2843               	goto	l3561
  5393  003B                     u3570:
  5394                           	
  5395  003B                     l3559:	
  5396  003B  0872               	movf	(Gate_Siren@read1),w
  5397  003C  0084               	movwf	fsr0
  5398  003D  0880               	movf	indf
  5399  003E  1903               	skipnz
  5400  003F  2841               	goto	u3581
  5401  0040  2842               	goto	u3580
  5402  0041                     u3581:
  5403  0041  285B               	goto	l1043
  5404  0042                     u3580:
  5405  0042  2843               	goto	l3561
  5406                           	
  5407  0043                     l1047:	
  5408                           	
  5409  0043                     l3561:	
  5410  0043  0872               	movf	(Gate_Siren@read1),w
  5411  0044  3E02               	addlw	02h
  5412  0045  0084               	movwf	fsr0
  5413  0046  0800               	movf	indf,w
  5414  0047  3A05               	xorlw	05h
  5415  0048  1D03               	skipz
  5416  0049  284B               	goto	u3591
  5417  004A  284C               	goto	u3590
  5418  004B                     u3591:
  5419  004B  288F               	goto	l1048
  5420  004C                     u3590:
  5421                           	
  5422  004C                     l3563:	
  5423  004C  0872               	movf	(Gate_Siren@read1),w
  5424  004D  3E01               	addlw	01h
  5425  004E  0084               	movwf	fsr0
  5426  004F  0880               	movf	indf,f
  5427  0050  1D03               	skipz
  5428  0051  2853               	goto	u3601
  5429  0052  2854               	goto	u3600
  5430  0053                     u3601:
  5431  0053  288F               	goto	l1048
  5432  0054                     u3600:
  5433                           	
  5434  0054                     l3565:	
  5435  0054  0872               	movf	(Gate_Siren@read1),w
  5436  0055  0084               	movwf	fsr0
  5437  0056  0880               	movf	indf,f
  5438  0057  1D03               	skipz
  5439  0058  285A               	goto	u3611
  5440  0059  285B               	goto	u3610
  5441  005A                     u3611:
  5442  005A  288F               	goto	l1048
  5443  005B                     u3610:
  5444                           	
  5445  005B                     l1043:	
  5446                           	line	105
  5447                           ;Indu886.c: 104: {
  5448                           ;Indu886.c: 105: RC0=1;
  5449  005B  1283               	bcf	status, 5	;RP0=0, select bank0
  5450  005C  1303               	bcf	status, 6	;RP1=0, select bank0
  5451  005D  1407               	bsf	(56/8),(56)&7
  5452                           	line	106
  5453                           	
  5454  005E                     l3567:	
  5455                           ;Indu886.c: 106: delay(60000);delay(60000);delay(60000);delay(60000);delay(60000);
  5456  005E  3060               	movlw	low(0EA60h)
  5457  005F  00F0               	movwf	(?_delay)
  5458  0060  30EA               	movlw	high(0EA60h)
  5459  0061  00F1               	movwf	((?_delay))+1
  5460  0062  120A  158A  21E0   	fcall	_delay
              120A  118A         
  5461  0067  3060               	movlw	low(0EA60h)
  5462  0068  00F0               	movwf	(?_delay)
  5463  0069  30EA               	movlw	high(0EA60h)
  5464  006A  00F1               	movwf	((?_delay))+1
  5465  006B  120A  158A  21E0   	fcall	_delay
              120A  118A         
  5466  0070  3060               	movlw	low(0EA60h)
  5467  0071  00F0               	movwf	(?_delay)
  5468  0072  30EA               	movlw	high(0EA60h)
  5469  0073  00F1               	movwf	((?_delay))+1
  5470  0074  120A  158A  21E0   	fcall	_delay
              120A  118A         
  5471  0079  3060               	movlw	low(0EA60h)
  5472  007A  00F0               	movwf	(?_delay)
  5473  007B  30EA               	movlw	high(0EA60h)
  5474  007C  00F1               	movwf	((?_delay))+1
  5475  007D  120A  158A  21E0   	fcall	_delay
              120A  118A         
  5476  0082  3060               	movlw	low(0EA60h)
  5477  0083  00F0               	movwf	(?_delay)
  5478  0084  30EA               	movlw	high(0EA60h)
  5479  0085  00F1               	movwf	((?_delay))+1
  5480  0086  120A  158A  21E0   	fcall	_delay
              120A  118A         
  5481                           	line	107
  5482                           	
  5483  008B                     l3569:	
  5484                           ;Indu886.c: 107: RC0=0;
  5485  008B  1283               	bcf	status, 5	;RP0=0, select bank0
  5486  008C  1303               	bcf	status, 6	;RP1=0, select bank0
  5487  008D  1007               	bcf	(56/8),(56)&7
  5488  008E  288F               	goto	l1048
  5489                           	line	108
  5490                           	
  5491  008F                     l1041:	
  5492                           	line	109
  5493                           	
  5494  008F                     l1048:	
  5495  008F  0008               	return
  5496                           	opt stack 0
  5497                           GLOBAL	__end_of_Gate_Siren
  5498  0090                     	__end_of_Gate_Siren:
  5499 ;; =============== function _Gate_Siren ends ============
  5500                           
  5501                           	signat	_Gate_Siren,4216
  5502                           	global	_I2C_Restart
  5503                           psect	text611,local,class=CODE,delta=2
  5504                           global __ptext611
  5505  0006                     __ptext611:
  5506                           
  5507 ;; *************** function _I2C_Restart *****************
  5508 ;; Defined at:
  5509 ;;		line 53 in file "D:\Embedded\pic\code\Indu886.c"
  5510 ;; Parameters:    Size  Location     Type
  5511 ;;		None
  5512 ;; Auto vars:     Size  Location     Type
  5513 ;;		None
  5514 ;; Return value:  Size  Location     Type
  5515 ;;		None               void
  5516 ;; Registers used:
  5517 ;;		status,2, status,0, pclath, cstack
  5518 ;; Tracked objects:
  5519 ;;		On entry : 0/0
  5520 ;;		On exit  : 0/0
  5521 ;;		Unchanged: 0/0
  5522 ;; Data sizes:     COMMON   BANK0   BANK1   BANK3   BANK2
  5523 ;;      Params:         0       0       0       0       0
  5524 ;;      Locals:         0       0       0       0       0
  5525 ;;      Temps:          0       0       0       0       0
  5526 ;;      Totals:         0       0       0       0       0
  5527 ;;Total ram usage:        0 bytes
  5528 ;; Hardware stack levels used:    1
  5529 ;; Hardware stack levels required when called:    1
  5530 ;; This function calls:
  5531 ;;		_hold
  5532 ;; This function is called by:
  5533 ;;		_main
  5534 ;; This function uses a non-reentrant model
  5535 ;;
  5536                           psect	text611
  5537                           	file	"D:\Embedded\pic\code\Indu886.c"
  5538                           	line	53
  5539                           	global	__size_of_I2C_Restart
  5540  0009                     	__size_of_I2C_Restart	equ	__end_of_I2C_Restart-_I2C_Restart
  5541                           	
  5542  0006                     _I2C_Restart:	
  5543                           	opt	stack 6
  5544                           ; Regs used in _I2C_Restart: [status,2+status,0+pclath+cstack]
  5545                           	line	54
  5546                           	
  5547  0006                     l3545:	
  5548                           ;Indu886.c: 54: RSEN=1;
  5549  0006  1683               	bsf	status, 5	;RP0=1, select bank1
  5550  0007  1303               	bcf	status, 6	;RP1=0, select bank1
  5551  0008  1491               	bsf	(1161/8)^080h,(1161)&7
  5552                           	line	55
  5553                           	
  5554  0009                     l3547:	
  5555                           ;Indu886.c: 55: hold();
  5556  0009  120A  158A  21B8   	fcall	_hold
              120A  118A         
  5557                           	line	56
  5558                           	
  5559  000E                     l1021:	
  5560  000E  0008               	return
  5561                           	opt stack 0
  5562                           GLOBAL	__end_of_I2C_Restart
  5563  000F                     	__end_of_I2C_Restart:
  5564 ;; =============== function _I2C_Restart ends ============
  5565                           
  5566                           	signat	_I2C_Restart,88
  5567                           	global	_I2C_Slave
  5568                           psect	text612,local,class=CODE,delta=2
  5569                           global __ptext612
  5570  0A09                     __ptext612:
  5571                           
  5572 ;; *************** function _I2C_Slave *****************
  5573 ;; Defined at:
  5574 ;;		line 46 in file "D:\Embedded\pic\code\Indu886.c"
  5575 ;; Parameters:    Size  Location     Type
  5576 ;;  data            1    wreg     unsigned char 
  5577 ;; Auto vars:     Size  Location     Type
  5578 ;;  data            1    0[COMMON] unsigned char 
  5579 ;; Return value:  Size  Location     Type
  5580 ;;		None               void
  5581 ;; Registers used:
  5582 ;;		wreg, status,2, status,0, pclath, cstack
  5583 ;; Tracked objects:
  5584 ;;		On entry : 0/0
  5585 ;;		On exit  : 0/0
  5586 ;;		Unchanged: 0/0
  5587 ;; Data sizes:     COMMON   BANK0   BANK1   BANK3   BANK2
  5588 ;;      Params:         0       0       0       0       0
  5589 ;;      Locals:         1       0       0       0       0
  5590 ;;      Temps:          0       0       0       0       0
  5591 ;;      Totals:         1       0       0       0       0
  5592 ;;Total ram usage:        1 bytes
  5593 ;; Hardware stack levels used:    1
  5594 ;; Hardware stack levels required when called:    1
  5595 ;; This function calls:
  5596 ;;		_hold
  5597 ;; This function is called by:
  5598 ;;		_main
  5599 ;; This function uses a non-reentrant model
  5600 ;;
  5601                           psect	text612
  5602                           	file	"D:\Embedded\pic\code\Indu886.c"
  5603                           	line	46
  5604                           	global	__size_of_I2C_Slave
  5605  0016                     	__size_of_I2C_Slave	equ	__end_of_I2C_Slave-_I2C_Slave
  5606                           	
  5607  0A09                     _I2C_Slave:	
  5608                           	opt	stack 6
  5609                           ; Regs used in _I2C_Slave: [wreg+status,2+status,0+pclath+cstack]
  5610                           ;I2C_Slave@data stored from wreg
  5611  0A09  00F0               	movwf	(I2C_Slave@data)
  5612                           	line	47
  5613                           	
  5614  0A0A                     l3539:	
  5615                           ;Indu886.c: 47: ACKSTAT=1;
  5616  0A0A  1683               	bsf	status, 5	;RP0=1, select bank1
  5617  0A0B  1303               	bcf	status, 6	;RP1=0, select bank1
  5618  0A0C  1711               	bsf	(1166/8)^080h,(1166)&7
  5619                           	line	48
  5620                           	
  5621  0A0D                     l3541:	
  5622                           ;Indu886.c: 48: SSPBUF=data;
  5623  0A0D  0870               	movf	(I2C_Slave@data),w
  5624  0A0E  1283               	bcf	status, 5	;RP0=0, select bank0
  5625  0A0F  1303               	bcf	status, 6	;RP1=0, select bank0
  5626  0A10  0093               	movwf	(19)	;volatile
  5627                           	line	49
  5628                           ;Indu886.c: 49: while(ACKSTAT==1);
  5629  0A11  2A12               	goto	l1015
  5630                           	
  5631  0A12                     l1016:	
  5632                           	
  5633  0A12                     l1015:	
  5634  0A12  1683               	bsf	status, 5	;RP0=1, select bank1
  5635  0A13  1303               	bcf	status, 6	;RP1=0, select bank1
  5636  0A14  1B11               	btfsc	(1166/8)^080h,(1166)&7
  5637  0A15  2A17               	goto	u3521
  5638  0A16  2A18               	goto	u3520
  5639  0A17                     u3521:
  5640  0A17  2A12               	goto	l1015
  5641  0A18                     u3520:
  5642  0A18  2A19               	goto	l3543
  5643                           	
  5644  0A19                     l1017:	
  5645                           	line	50
  5646                           	
  5647  0A19                     l3543:	
  5648                           ;Indu886.c: 50: hold();
  5649  0A19  120A  158A  21B8   	fcall	_hold
              120A  158A         
  5650                           	line	51
  5651                           	
  5652  0A1E                     l1018:	
  5653  0A1E  0008               	return
  5654                           	opt stack 0
  5655                           GLOBAL	__end_of_I2C_Slave
  5656  0A1F                     	__end_of_I2C_Slave:
  5657 ;; =============== function _I2C_Slave ends ============
  5658                           
  5659                           	signat	_I2C_Slave,4216
  5660                           	global	_I2C_Stop
  5661                           psect	text613,local,class=CODE,delta=2
  5662                           global __ptext613
  5663  09CA                     __ptext613:
  5664                           
  5665 ;; *************** function _I2C_Stop *****************
  5666 ;; Defined at:
  5667 ;;		line 41 in file "D:\Embedded\pic\code\Indu886.c"
  5668 ;; Parameters:    Size  Location     Type
  5669 ;;		None
  5670 ;; Auto vars:     Size  Location     Type
  5671 ;;		None
  5672 ;; Return value:  Size  Location     Type
  5673 ;;		None               void
  5674 ;; Registers used:
  5675 ;;		status,2, status,0, pclath, cstack
  5676 ;; Tracked objects:
  5677 ;;		On entry : 0/0
  5678 ;;		On exit  : 0/0
  5679 ;;		Unchanged: 0/0
  5680 ;; Data sizes:     COMMON   BANK0   BANK1   BANK3   BANK2
  5681 ;;      Params:         0       0       0       0       0
  5682 ;;      Locals:         0       0       0       0       0
  5683 ;;      Temps:          0       0       0       0       0
  5684 ;;      Totals:         0       0       0       0       0
  5685 ;;Total ram usage:        0 bytes
  5686 ;; Hardware stack levels used:    1
  5687 ;; Hardware stack levels required when called:    1
  5688 ;; This function calls:
  5689 ;;		_hold
  5690 ;; This function is called by:
  5691 ;;		_main
  5692 ;; This function uses a non-reentrant model
  5693 ;;
  5694                           psect	text613
  5695                           	file	"D:\Embedded\pic\code\Indu886.c"
  5696                           	line	41
  5697                           	global	__size_of_I2C_Stop
  5698  0009                     	__size_of_I2C_Stop	equ	__end_of_I2C_Stop-_I2C_Stop
  5699                           	
  5700  09CA                     _I2C_Stop:	
  5701                           	opt	stack 6
  5702                           ; Regs used in _I2C_Stop: [status,2+status,0+pclath+cstack]
  5703                           	line	42
  5704                           	
  5705  09CA                     l3535:	
  5706                           ;Indu886.c: 42: PEN=1;
  5707  09CA  1683               	bsf	status, 5	;RP0=1, select bank1
  5708  09CB  1303               	bcf	status, 6	;RP1=0, select bank1
  5709  09CC  1511               	bsf	(1162/8)^080h,(1162)&7
  5710                           	line	43
  5711                           	
  5712  09CD                     l3537:	
  5713                           ;Indu886.c: 43: hold();
  5714  09CD  120A  158A  21B8   	fcall	_hold
              120A  158A         
  5715                           	line	44
  5716                           	
  5717  09D2                     l1012:	
  5718  09D2  0008               	return
  5719                           	opt stack 0
  5720                           GLOBAL	__end_of_I2C_Stop
  5721  09D3                     	__end_of_I2C_Stop:
  5722 ;; =============== function _I2C_Stop ends ============
  5723                           
  5724                           	signat	_I2C_Stop,88
  5725                           	global	_I2C_Start
  5726                           psect	text614,local,class=CODE,delta=2
  5727                           global __ptext614
  5728  09C1                     __ptext614:
  5729                           
  5730 ;; *************** function _I2C_Start *****************
  5731 ;; Defined at:
  5732 ;;		line 36 in file "D:\Embedded\pic\code\Indu886.c"
  5733 ;; Parameters:    Size  Location     Type
  5734 ;;		None
  5735 ;; Auto vars:     Size  Location     Type
  5736 ;;		None
  5737 ;; Return value:  Size  Location     Type
  5738 ;;		None               void
  5739 ;; Registers used:
  5740 ;;		status,2, status,0, pclath, cstack
  5741 ;; Tracked objects:
  5742 ;;		On entry : 0/0
  5743 ;;		On exit  : 0/0
  5744 ;;		Unchanged: 0/0
  5745 ;; Data sizes:     COMMON   BANK0   BANK1   BANK3   BANK2
  5746 ;;      Params:         0       0       0       0       0
  5747 ;;      Locals:         0       0       0       0       0
  5748 ;;      Temps:          0       0       0       0       0
  5749 ;;      Totals:         0       0       0       0       0
  5750 ;;Total ram usage:        0 bytes
  5751 ;; Hardware stack levels used:    1
  5752 ;; Hardware stack levels required when called:    1
  5753 ;; This function calls:
  5754 ;;		_hold
  5755 ;; This function is called by:
  5756 ;;		_main
  5757 ;; This function uses a non-reentrant model
  5758 ;;
  5759                           psect	text614
  5760                           	file	"D:\Embedded\pic\code\Indu886.c"
  5761                           	line	36
  5762                           	global	__size_of_I2C_Start
  5763  0009                     	__size_of_I2C_Start	equ	__end_of_I2C_Start-_I2C_Start
  5764                           	
  5765  09C1                     _I2C_Start:	
  5766                           	opt	stack 6
  5767                           ; Regs used in _I2C_Start: [status,2+status,0+pclath+cstack]
  5768                           	line	37
  5769                           	
  5770  09C1                     l3531:	
  5771                           ;Indu886.c: 37: SEN=1;
  5772  09C1  1683               	bsf	status, 5	;RP0=1, select bank1
  5773  09C2  1303               	bcf	status, 6	;RP1=0, select bank1
  5774  09C3  1411               	bsf	(1160/8)^080h,(1160)&7
  5775                           	line	38
  5776                           	
  5777  09C4                     l3533:	
  5778                           ;Indu886.c: 38: hold();
  5779  09C4  120A  158A  21B8   	fcall	_hold
              120A  158A         
  5780                           	line	39
  5781                           	
  5782  09C9                     l1009:	
  5783  09C9  0008               	return
  5784                           	opt stack 0
  5785                           GLOBAL	__end_of_I2C_Start
  5786  09CA                     	__end_of_I2C_Start:
  5787 ;; =============== function _I2C_Start ends ============
  5788                           
  5789                           	signat	_I2C_Start,88
  5790                           	global	_pulse
  5791                           psect	text615,local,class=CODE,delta=2
  5792                           global __ptext615
  5793  0A1F                     __ptext615:
  5794                           
  5795 ;; *************** function _pulse *****************
  5796 ;; Defined at:
  5797 ;;		line 10 in file "D:\Embedded\pic\code\lcd.h"
  5798 ;; Parameters:    Size  Location     Type
  5799 ;;		None
  5800 ;; Auto vars:     Size  Location     Type
  5801 ;;		None
  5802 ;; Return value:  Size  Location     Type
  5803 ;;		None               void
  5804 ;; Registers used:
  5805 ;;		wreg, status,2, status,0, pclath, cstack
  5806 ;; Tracked objects:
  5807 ;;		On entry : 0/0
  5808 ;;		On exit  : 0/0
  5809 ;;		Unchanged: 0/0
  5810 ;; Data sizes:     COMMON   BANK0   BANK1   BANK3   BANK2
  5811 ;;      Params:         0       0       0       0       0
  5812 ;;      Locals:         0       0       0       0       0
  5813 ;;      Temps:          0       0       0       0       0
  5814 ;;      Totals:         0       0       0       0       0
  5815 ;;Total ram usage:        0 bytes
  5816 ;; Hardware stack levels used:    1
  5817 ;; Hardware stack levels required when called:    1
  5818 ;; This function calls:
  5819 ;;		_delay
  5820 ;; This function is called by:
  5821 ;;		_lcd_cmd
  5822 ;; This function uses a non-reentrant model
  5823 ;;
  5824                           psect	text615
  5825                           	file	"D:\Embedded\pic\code\lcd.h"
  5826                           	line	10
  5827                           	global	__size_of_pulse
  5828  0019                     	__size_of_pulse	equ	__end_of_pulse-_pulse
  5829                           	
  5830  0A1F                     _pulse:	
  5831                           	opt	stack 3
  5832                           ; Regs used in _pulse: [wreg+status,2+status,0+pclath+cstack]
  5833                           	line	11
  5834                           	
  5835  0A1F                     l3525:	
  5836                           ;lcd.h: 11: RB3=1;
  5837  0A1F  1283               	bcf	status, 5	;RP0=0, select bank0
  5838  0A20  1303               	bcf	status, 6	;RP1=0, select bank0
  5839  0A21  1586               	bsf	(51/8),(51)&7
  5840                           	line	12
  5841                           	
  5842  0A22                     l3527:	
  5843                           ;lcd.h: 12: delay(10);
  5844  0A22  300A               	movlw	low(0Ah)
  5845  0A23  00F0               	movwf	(?_delay)
  5846  0A24  3000               	movlw	high(0Ah)
  5847  0A25  00F1               	movwf	((?_delay))+1
  5848  0A26  120A  158A  21E0   	fcall	_delay
              120A  158A         
  5849                           	line	13
  5850                           	
  5851  0A2B                     l3529:	
  5852                           ;lcd.h: 13: RB3=0;
  5853  0A2B  1283               	bcf	status, 5	;RP0=0, select bank0
  5854  0A2C  1303               	bcf	status, 6	;RP1=0, select bank0
  5855  0A2D  1186               	bcf	(51/8),(51)&7
  5856                           	line	14
  5857                           ;lcd.h: 14: delay(10);
  5858  0A2E  300A               	movlw	low(0Ah)
  5859  0A2F  00F0               	movwf	(?_delay)
  5860  0A30  3000               	movlw	high(0Ah)
  5861  0A31  00F1               	movwf	((?_delay))+1
  5862  0A32  120A  158A  21E0   	fcall	_delay
              120A  158A         
  5863                           	line	15
  5864                           	
  5865  0A37                     l997:	
  5866  0A37  0008               	return
  5867                           	opt stack 0
  5868                           GLOBAL	__end_of_pulse
  5869  0A38                     	__end_of_pulse:
  5870 ;; =============== function _pulse ends ============
  5871                           
  5872                           	signat	_pulse,88
  5873                           	global	___awmod
  5874                           psect	text616,local,class=CODE,delta=2
  5875                           global __ptext616
  5876  0B8E                     __ptext616:
  5877                           
  5878 ;; *************** function ___awmod *****************
  5879 ;; Defined at:
  5880 ;;		line 5 in file "C:\Program Files\HI-TECH Software\PICC\9.81\sources\awmod.c"
  5881 ;; Parameters:    Size  Location     Type
  5882 ;;  divisor         2    0[COMMON] int 
  5883 ;;  dividend        2    2[COMMON] int 
  5884 ;; Auto vars:     Size  Location     Type
  5885 ;;  sign            1    6[COMMON] unsigned char 
  5886 ;;  counter         1    5[COMMON] unsigned char 
  5887 ;; Return value:  Size  Location     Type
  5888 ;;                  2    0[COMMON] int 
  5889 ;; Registers used:
  5890 ;;		wreg, status,2, status,0
  5891 ;; Tracked objects:
  5892 ;;		On entry : 0/0
  5893 ;;		On exit  : 0/0
  5894 ;;		Unchanged: 0/0
  5895 ;; Data sizes:     COMMON   BANK0   BANK1   BANK3   BANK2
  5896 ;;      Params:         4       0       0       0       0
  5897 ;;      Locals:         2       0       0       0       0
  5898 ;;      Temps:          1       0       0       0       0
  5899 ;;      Totals:         7       0       0       0       0
  5900 ;;Total ram usage:        7 bytes
  5901 ;; Hardware stack levels used:    1
  5902 ;; This function calls:
  5903 ;;		Nothing
  5904 ;; This function is called by:
  5905 ;;		_Generator_run
  5906 ;;		_adc
  5907 ;;		_main
  5908 ;; This function uses a non-reentrant model
  5909 ;;
  5910                           psect	text616
  5911                           	file	"C:\Program Files\HI-TECH Software\PICC\9.81\sources\awmod.c"
  5912                           	line	5
  5913                           	global	__size_of___awmod
  5914  0066                     	__size_of___awmod	equ	__end_of___awmod-___awmod
  5915                           	
  5916  0B8E                     ___awmod:	
  5917                           	opt	stack 6
  5918                           ; Regs used in ___awmod: [wreg+status,2+status,0]
  5919                           	line	8
  5920                           	
  5921  0B8E                     l3445:	
  5922  0B8E  01F6               	clrf	(___awmod@sign)
  5923                           	line	9
  5924  0B8F  1FF3               	btfss	(___awmod@dividend+1),7
  5925  0B90  2B92               	goto	u3371
  5926  0B91  2B93               	goto	u3370
  5927  0B92                     u3371:
  5928  0B92  2B9C               	goto	l3449
  5929  0B93                     u3370:
  5930                           	line	10
  5931                           	
  5932  0B93                     l3447:	
  5933  0B93  09F2               	comf	(___awmod@dividend),f
  5934  0B94  09F3               	comf	(___awmod@dividend+1),f
  5935  0B95  0AF2               	incf	(___awmod@dividend),f
  5936  0B96  1903               	skipnz
  5937  0B97  0AF3               	incf	(___awmod@dividend+1),f
  5938                           	line	11
  5939  0B98  01F6               	clrf	(___awmod@sign)
  5940  0B99  1403               	bsf	status,0
  5941  0B9A  0DF6               	rlf	(___awmod@sign),f
  5942  0B9B  2B9C               	goto	l3449
  5943                           	line	12
  5944                           	
  5945  0B9C                     l1355:	
  5946                           	line	13
  5947                           	
  5948  0B9C                     l3449:	
  5949  0B9C  1FF1               	btfss	(___awmod@divisor+1),7
  5950  0B9D  2B9F               	goto	u3381
  5951  0B9E  2BA0               	goto	u3380
  5952  0B9F                     u3381:
  5953  0B9F  2BA6               	goto	l3453
  5954  0BA0                     u3380:
  5955                           	line	14
  5956                           	
  5957  0BA0                     l3451:	
  5958  0BA0  09F0               	comf	(___awmod@divisor),f
  5959  0BA1  09F1               	comf	(___awmod@divisor+1),f
  5960  0BA2  0AF0               	incf	(___awmod@divisor),f
  5961  0BA3  1903               	skipnz
  5962  0BA4  0AF1               	incf	(___awmod@divisor+1),f
  5963  0BA5  2BA6               	goto	l3453
  5964                           	
  5965  0BA6                     l1356:	
  5966                           	line	15
  5967                           	
  5968  0BA6                     l3453:	
  5969  0BA6  0871               	movf	(___awmod@divisor+1),w
  5970  0BA7  0470               	iorwf	(___awmod@divisor),w
  5971  0BA8  1903               	skipnz
  5972  0BA9  2BAB               	goto	u3391
  5973  0BAA  2BAC               	goto	u3390
  5974  0BAB                     u3391:
  5975  0BAB  2BE2               	goto	l3471
  5976  0BAC                     u3390:
  5977                           	line	16
  5978                           	
  5979  0BAC                     l3455:	
  5980  0BAC  01F5               	clrf	(___awmod@counter)
  5981  0BAD  1403               	bsf	status,0
  5982  0BAE  0DF5               	rlf	(___awmod@counter),f
  5983                           	line	17
  5984  0BAF  2BBC               	goto	l3461
  5985                           	
  5986  0BB0                     l1359:	
  5987                           	line	18
  5988                           	
  5989  0BB0                     l3457:	
  5990  0BB0  3001               	movlw	01h
  5991                           	
  5992  0BB1                     u3405:
  5993  0BB1  1003               	clrc
  5994  0BB2  0DF0               	rlf	(___awmod@divisor),f
  5995  0BB3  0DF1               	rlf	(___awmod@divisor+1),f
  5996  0BB4  3EFF               	addlw	-1
  5997  0BB5  1D03               	skipz
  5998  0BB6  2BB1               	goto	u3405
  5999                           	line	19
  6000                           	
  6001  0BB7                     l3459:	
  6002  0BB7  3001               	movlw	(01h)
  6003  0BB8  00F4               	movwf	(??___awmod+0)+0
  6004  0BB9  0874               	movf	(??___awmod+0)+0,w
  6005  0BBA  07F5               	addwf	(___awmod@counter),f
  6006  0BBB  2BBC               	goto	l3461
  6007                           	line	20
  6008                           	
  6009  0BBC                     l1358:	
  6010                           	line	17
  6011                           	
  6012  0BBC                     l3461:	
  6013  0BBC  1FF1               	btfss	(___awmod@divisor+1),(15)&7
  6014  0BBD  2BBF               	goto	u3411
  6015  0BBE  2BC0               	goto	u3410
  6016  0BBF                     u3411:
  6017  0BBF  2BB0               	goto	l3457
  6018  0BC0                     u3410:
  6019  0BC0  2BC2               	goto	l3463
  6020                           	
  6021  0BC1                     l1360:	
  6022  0BC1  2BC2               	goto	l3463
  6023                           	line	21
  6024                           	
  6025  0BC2                     l1361:	
  6026                           	line	22
  6027                           	
  6028  0BC2                     l3463:	
  6029  0BC2  0871               	movf	(___awmod@divisor+1),w
  6030  0BC3  0273               	subwf	(___awmod@dividend+1),w
  6031  0BC4  1D03               	skipz
  6032  0BC5  2BC8               	goto	u3425
  6033  0BC6  0870               	movf	(___awmod@divisor),w
  6034  0BC7  0272               	subwf	(___awmod@dividend),w
  6035  0BC8                     u3425:
  6036  0BC8  1C03               	skipc
  6037  0BC9  2BCB               	goto	u3421
  6038  0BCA  2BCC               	goto	u3420
  6039  0BCB                     u3421:
  6040  0BCB  2BD3               	goto	l3467
  6041  0BCC                     u3420:
  6042                           	line	23
  6043                           	
  6044  0BCC                     l3465:	
  6045  0BCC  0870               	movf	(___awmod@divisor),w
  6046  0BCD  02F2               	subwf	(___awmod@dividend),f
  6047  0BCE  0871               	movf	(___awmod@divisor+1),w
  6048  0BCF  1C03               	skipc
  6049  0BD0  03F3               	decf	(___awmod@dividend+1),f
  6050  0BD1  02F3               	subwf	(___awmod@dividend+1),f
  6051  0BD2  2BD3               	goto	l3467
  6052                           	
  6053  0BD3                     l1362:	
  6054                           	line	24
  6055                           	
  6056  0BD3                     l3467:	
  6057  0BD3  3001               	movlw	01h
  6058                           	
  6059  0BD4                     u3435:
  6060  0BD4  1003               	clrc
  6061  0BD5  0CF1               	rrf	(___awmod@divisor+1),f
  6062  0BD6  0CF0               	rrf	(___awmod@divisor),f
  6063  0BD7  3EFF               	addlw	-1
  6064  0BD8  1D03               	skipz
  6065  0BD9  2BD4               	goto	u3435
  6066                           	line	25
  6067                           	
  6068  0BDA                     l3469:	
  6069  0BDA  3001               	movlw	low(01h)
  6070  0BDB  02F5               	subwf	(___awmod@counter),f
  6071  0BDC  1D03               	btfss	status,2
  6072  0BDD  2BDF               	goto	u3441
  6073  0BDE  2BE0               	goto	u3440
  6074  0BDF                     u3441:
  6075  0BDF  2BC2               	goto	l3463
  6076  0BE0                     u3440:
  6077  0BE0  2BE2               	goto	l3471
  6078                           	
  6079  0BE1                     l1363:	
  6080  0BE1  2BE2               	goto	l3471
  6081                           	line	26
  6082                           	
  6083  0BE2                     l1357:	
  6084                           	line	27
  6085                           	
  6086  0BE2                     l3471:	
  6087  0BE2  0876               	movf	(___awmod@sign),w
  6088  0BE3  1D03               	skipz
  6089  0BE4  2BE6               	goto	u3450
  6090  0BE5  2BEC               	goto	l3475
  6091  0BE6                     u3450:
  6092                           	line	28
  6093                           	
  6094  0BE6                     l3473:	
  6095  0BE6  09F2               	comf	(___awmod@dividend),f
  6096  0BE7  09F3               	comf	(___awmod@dividend+1),f
  6097  0BE8  0AF2               	incf	(___awmod@dividend),f
  6098  0BE9  1903               	skipnz
  6099  0BEA  0AF3               	incf	(___awmod@dividend+1),f
  6100  0BEB  2BEC               	goto	l3475
  6101                           	
  6102  0BEC                     l1364:	
  6103                           	line	29
  6104                           	
  6105  0BEC                     l3475:	
  6106  0BEC  0873               	movf	(___awmod@dividend+1),w
  6107  0BED  01F1               	clrf	(?___awmod+1)
  6108  0BEE  07F1               	addwf	(?___awmod+1)
  6109  0BEF  0872               	movf	(___awmod@dividend),w
  6110  0BF0  01F0               	clrf	(?___awmod)
  6111  0BF1  07F0               	addwf	(?___awmod)
  6112                           
  6113  0BF2  2BF3               	goto	l1365
  6114                           	
  6115  0BF3                     l3477:	
  6116                           	line	30
  6117                           	
  6118  0BF3                     l1365:	
  6119  0BF3  0008               	return
  6120                           	opt stack 0
  6121                           GLOBAL	__end_of___awmod
  6122  0BF4                     	__end_of___awmod:
  6123 ;; =============== function ___awmod ends ============
  6124                           
  6125                           	signat	___awmod,8314
  6126                           	global	___awdiv
  6127                           psect	text617,local,class=CODE,delta=2
  6128                           global __ptext617
  6129  0BF4                     __ptext617:
  6130                           
  6131 ;; *************** function ___awdiv *****************
  6132 ;; Defined at:
  6133 ;;		line 5 in file "C:\Program Files\HI-TECH Software\PICC\9.81\sources\awdiv.c"
  6134 ;; Parameters:    Size  Location     Type
  6135 ;;  divisor         2    0[COMMON] int 
  6136 ;;  dividend        2    2[COMMON] int 
  6137 ;; Auto vars:     Size  Location     Type
  6138 ;;  quotient        2    7[COMMON] int 
  6139 ;;  sign            1    6[COMMON] unsigned char 
  6140 ;;  counter         1    5[COMMON] unsigned char 
  6141 ;; Return value:  Size  Location     Type
  6142 ;;                  2    0[COMMON] int 
  6143 ;; Registers used:
  6144 ;;		wreg, status,2, status,0
  6145 ;; Tracked objects:
  6146 ;;		On entry : 0/0
  6147 ;;		On exit  : 0/0
  6148 ;;		Unchanged: 0/0
  6149 ;; Data sizes:     COMMON   BANK0   BANK1   BANK3   BANK2
  6150 ;;      Params:         4       0       0       0       0
  6151 ;;      Locals:         4       0       0       0       0
  6152 ;;      Temps:          1       0       0       0       0
  6153 ;;      Totals:         9       0       0       0       0
  6154 ;;Total ram usage:        9 bytes
  6155 ;; Hardware stack levels used:    1
  6156 ;; This function calls:
  6157 ;;		Nothing
  6158 ;; This function is called by:
  6159 ;;		_Generator_run
  6160 ;;		_adc
  6161 ;;		_main
  6162 ;; This function uses a non-reentrant model
  6163 ;;
  6164                           psect	text617
  6165                           	file	"C:\Program Files\HI-TECH Software\PICC\9.81\sources\awdiv.c"
  6166                           	line	5
  6167                           	global	__size_of___awdiv
  6168  0074                     	__size_of___awdiv	equ	__end_of___awdiv-___awdiv
  6169                           	
  6170  0BF4                     ___awdiv:	
  6171                           	opt	stack 6
  6172                           ; Regs used in ___awdiv: [wreg+status,2+status,0]
  6173                           	line	9
  6174                           	
  6175  0BF4                     l3405:	
  6176  0BF4  01F6               	clrf	(___awdiv@sign)
  6177                           	line	10
  6178  0BF5  1FF1               	btfss	(___awdiv@divisor+1),7
  6179  0BF6  2BF8               	goto	u3271
  6180  0BF7  2BF9               	goto	u3270
  6181  0BF8                     u3271:
  6182  0BF8  2C02               	goto	l3409
  6183  0BF9                     u3270:
  6184                           	line	11
  6185                           	
  6186  0BF9                     l3407:	
  6187  0BF9  09F0               	comf	(___awdiv@divisor),f
  6188  0BFA  09F1               	comf	(___awdiv@divisor+1),f
  6189  0BFB  0AF0               	incf	(___awdiv@divisor),f
  6190  0BFC  1903               	skipnz
  6191  0BFD  0AF1               	incf	(___awdiv@divisor+1),f
  6192                           	line	12
  6193  0BFE  01F6               	clrf	(___awdiv@sign)
  6194  0BFF  1403               	bsf	status,0
  6195  0C00  0DF6               	rlf	(___awdiv@sign),f
  6196  0C01  2C02               	goto	l3409
  6197                           	line	13
  6198                           	
  6199  0C02                     l1287:	
  6200                           	line	14
  6201                           	
  6202  0C02                     l3409:	
  6203  0C02  1FF3               	btfss	(___awdiv@dividend+1),7
  6204  0C03  2C05               	goto	u3281
  6205  0C04  2C06               	goto	u3280
  6206  0C05                     u3281:
  6207  0C05  2C10               	goto	l3415
  6208  0C06                     u3280:
  6209                           	line	15
  6210                           	
  6211  0C06                     l3411:	
  6212  0C06  09F2               	comf	(___awdiv@dividend),f
  6213  0C07  09F3               	comf	(___awdiv@dividend+1),f
  6214  0C08  0AF2               	incf	(___awdiv@dividend),f
  6215  0C09  1903               	skipnz
  6216  0C0A  0AF3               	incf	(___awdiv@dividend+1),f
  6217                           	line	16
  6218                           	
  6219  0C0B                     l3413:	
  6220  0C0B  3001               	movlw	(01h)
  6221  0C0C  00F4               	movwf	(??___awdiv+0)+0
  6222  0C0D  0874               	movf	(??___awdiv+0)+0,w
  6223  0C0E  06F6               	xorwf	(___awdiv@sign),f
  6224  0C0F  2C10               	goto	l3415
  6225                           	line	17
  6226                           	
  6227  0C10                     l1288:	
  6228                           	line	18
  6229                           	
  6230  0C10                     l3415:	
  6231  0C10  01F7               	clrf	(___awdiv@quotient)
  6232  0C11  01F8               	clrf	(___awdiv@quotient+1)
  6233                           	line	19
  6234                           	
  6235  0C12                     l3417:	
  6236  0C12  0871               	movf	(___awdiv@divisor+1),w
  6237  0C13  0470               	iorwf	(___awdiv@divisor),w
  6238  0C14  1903               	skipnz
  6239  0C15  2C17               	goto	u3291
  6240  0C16  2C18               	goto	u3290
  6241  0C17                     u3291:
  6242  0C17  2C56               	goto	l3437
  6243  0C18                     u3290:
  6244                           	line	20
  6245                           	
  6246  0C18                     l3419:	
  6247  0C18  01F5               	clrf	(___awdiv@counter)
  6248  0C19  1403               	bsf	status,0
  6249  0C1A  0DF5               	rlf	(___awdiv@counter),f
  6250                           	line	21
  6251  0C1B  2C28               	goto	l3425
  6252                           	
  6253  0C1C                     l1291:	
  6254                           	line	22
  6255                           	
  6256  0C1C                     l3421:	
  6257  0C1C  3001               	movlw	01h
  6258                           	
  6259  0C1D                     u3305:
  6260  0C1D  1003               	clrc
  6261  0C1E  0DF0               	rlf	(___awdiv@divisor),f
  6262  0C1F  0DF1               	rlf	(___awdiv@divisor+1),f
  6263  0C20  3EFF               	addlw	-1
  6264  0C21  1D03               	skipz
  6265  0C22  2C1D               	goto	u3305
  6266                           	line	23
  6267                           	
  6268  0C23                     l3423:	
  6269  0C23  3001               	movlw	(01h)
  6270  0C24  00F4               	movwf	(??___awdiv+0)+0
  6271  0C25  0874               	movf	(??___awdiv+0)+0,w
  6272  0C26  07F5               	addwf	(___awdiv@counter),f
  6273  0C27  2C28               	goto	l3425
  6274                           	line	24
  6275                           	
  6276  0C28                     l1290:	
  6277                           	line	21
  6278                           	
  6279  0C28                     l3425:	
  6280  0C28  1FF1               	btfss	(___awdiv@divisor+1),(15)&7
  6281  0C29  2C2B               	goto	u3311
  6282  0C2A  2C2C               	goto	u3310
  6283  0C2B                     u3311:
  6284  0C2B  2C1C               	goto	l3421
  6285  0C2C                     u3310:
  6286  0C2C  2C2E               	goto	l3427
  6287                           	
  6288  0C2D                     l1292:	
  6289  0C2D  2C2E               	goto	l3427
  6290                           	line	25
  6291                           	
  6292  0C2E                     l1293:	
  6293                           	line	26
  6294                           	
  6295  0C2E                     l3427:	
  6296  0C2E  3001               	movlw	01h
  6297                           	
  6298  0C2F                     u3325:
  6299  0C2F  1003               	clrc
  6300  0C30  0DF7               	rlf	(___awdiv@quotient),f
  6301  0C31  0DF8               	rlf	(___awdiv@quotient+1),f
  6302  0C32  3EFF               	addlw	-1
  6303  0C33  1D03               	skipz
  6304  0C34  2C2F               	goto	u3325
  6305                           	line	27
  6306  0C35  0871               	movf	(___awdiv@divisor+1),w
  6307  0C36  0273               	subwf	(___awdiv@dividend+1),w
  6308  0C37  1D03               	skipz
  6309  0C38  2C3B               	goto	u3335
  6310  0C39  0870               	movf	(___awdiv@divisor),w
  6311  0C3A  0272               	subwf	(___awdiv@dividend),w
  6312  0C3B                     u3335:
  6313  0C3B  1C03               	skipc
  6314  0C3C  2C3E               	goto	u3331
  6315  0C3D  2C3F               	goto	u3330
  6316  0C3E                     u3331:
  6317  0C3E  2C47               	goto	l3433
  6318  0C3F                     u3330:
  6319                           	line	28
  6320                           	
  6321  0C3F                     l3429:	
  6322  0C3F  0870               	movf	(___awdiv@divisor),w
  6323  0C40  02F2               	subwf	(___awdiv@dividend),f
  6324  0C41  0871               	movf	(___awdiv@divisor+1),w
  6325  0C42  1C03               	skipc
  6326  0C43  03F3               	decf	(___awdiv@dividend+1),f
  6327  0C44  02F3               	subwf	(___awdiv@dividend+1),f
  6328                           	line	29
  6329                           	
  6330  0C45                     l3431:	
  6331  0C45  1477               	bsf	(___awdiv@quotient)+(0/8),(0)&7
  6332  0C46  2C47               	goto	l3433
  6333                           	line	30
  6334                           	
  6335  0C47                     l1294:	
  6336                           	line	31
  6337                           	
  6338  0C47                     l3433:	
  6339  0C47  3001               	movlw	01h
  6340                           	
  6341  0C48                     u3345:
  6342  0C48  1003               	clrc
  6343  0C49  0CF1               	rrf	(___awdiv@divisor+1),f
  6344  0C4A  0CF0               	rrf	(___awdiv@divisor),f
  6345  0C4B  3EFF               	addlw	-1
  6346  0C4C  1D03               	skipz
  6347  0C4D  2C48               	goto	u3345
  6348                           	line	32
  6349                           	
  6350  0C4E                     l3435:	
  6351  0C4E  3001               	movlw	low(01h)
  6352  0C4F  02F5               	subwf	(___awdiv@counter),f
  6353  0C50  1D03               	btfss	status,2
  6354  0C51  2C53               	goto	u3351
  6355  0C52  2C54               	goto	u3350
  6356  0C53                     u3351:
  6357  0C53  2C2E               	goto	l3427
  6358  0C54                     u3350:
  6359  0C54  2C56               	goto	l3437
  6360                           	
  6361  0C55                     l1295:	
  6362  0C55  2C56               	goto	l3437
  6363                           	line	33
  6364                           	
  6365  0C56                     l1289:	
  6366                           	line	34
  6367                           	
  6368  0C56                     l3437:	
  6369  0C56  0876               	movf	(___awdiv@sign),w
  6370  0C57  1D03               	skipz
  6371  0C58  2C5A               	goto	u3360
  6372  0C59  2C60               	goto	l3441
  6373  0C5A                     u3360:
  6374                           	line	35
  6375                           	
  6376  0C5A                     l3439:	
  6377  0C5A  09F7               	comf	(___awdiv@quotient),f
  6378  0C5B  09F8               	comf	(___awdiv@quotient+1),f
  6379  0C5C  0AF7               	incf	(___awdiv@quotient),f
  6380  0C5D  1903               	skipnz
  6381  0C5E  0AF8               	incf	(___awdiv@quotient+1),f
  6382  0C5F  2C60               	goto	l3441
  6383                           	
  6384  0C60                     l1296:	
  6385                           	line	36
  6386                           	
  6387  0C60                     l3441:	
  6388  0C60  0878               	movf	(___awdiv@quotient+1),w
  6389  0C61  01F1               	clrf	(?___awdiv+1)
  6390  0C62  07F1               	addwf	(?___awdiv+1)
  6391  0C63  0877               	movf	(___awdiv@quotient),w
  6392  0C64  01F0               	clrf	(?___awdiv)
  6393  0C65  07F0               	addwf	(?___awdiv)
  6394                           
  6395  0C66  2C67               	goto	l1297
  6396                           	
  6397  0C67                     l3443:	
  6398                           	line	37
  6399                           	
  6400  0C67                     l1297:	
  6401  0C67  0008               	return
  6402                           	opt stack 0
  6403                           GLOBAL	__end_of___awdiv
  6404  0C68                     	__end_of___awdiv:
  6405 ;; =============== function ___awdiv ends ============
  6406                           
  6407                           	signat	___awdiv,8314
  6408                           	global	___fttol
  6409                           psect	text618,local,class=CODE,delta=2
  6410                           global __ptext618
  6411  0CE3                     __ptext618:
  6412                           
  6413 ;; *************** function ___fttol *****************
  6414 ;; Defined at:
  6415 ;;		line 45 in file "C:\Program Files\HI-TECH Software\PICC\9.81\sources\fttol.c"
  6416 ;; Parameters:    Size  Location     Type
  6417 ;;  f1              3    8[COMMON] float 
  6418 ;; Auto vars:     Size  Location     Type
  6419 ;;  lval            4    5[BANK0 ] unsigned long 
  6420 ;;  exp1            1    9[BANK0 ] unsigned char 
  6421 ;;  sign1           1    4[BANK0 ] unsigned char 
  6422 ;; Return value:  Size  Location     Type
  6423 ;;                  4    8[COMMON] long 
  6424 ;; Registers used:
  6425 ;;		wreg, status,2, status,0
  6426 ;; Tracked objects:
  6427 ;;		On entry : 0/0
  6428 ;;		On exit  : 0/0
  6429 ;;		Unchanged: 0/0
  6430 ;; Data sizes:     COMMON   BANK0   BANK1   BANK3   BANK2
  6431 ;;      Params:         4       0       0       0       0
  6432 ;;      Locals:         0       6       0       0       0
  6433 ;;      Temps:          0       4       0       0       0
  6434 ;;      Totals:         4      10       0       0       0
  6435 ;;Total ram usage:       14 bytes
  6436 ;; Hardware stack levels used:    1
  6437 ;; This function calls:
  6438 ;;		Nothing
  6439 ;; This function is called by:
  6440 ;;		_adc
  6441 ;; This function uses a non-reentrant model
  6442 ;;
  6443                           psect	text618
  6444                           	file	"C:\Program Files\HI-TECH Software\PICC\9.81\sources\fttol.c"
  6445                           	line	45
  6446                           	global	__size_of___fttol
  6447  00A6                     	__size_of___fttol	equ	__end_of___fttol-___fttol
  6448                           	
  6449  0CE3                     ___fttol:	
  6450                           	opt	stack 6
  6451                           ; Regs used in ___fttol: [wreg+status,2+status,0]
  6452                           	line	49
  6453                           	
  6454  0CE3                     l3349:	
  6455  0CE3  0878               	movf	(___fttol@f1),w
  6456  0CE4  1283               	bcf	status, 5	;RP0=0, select bank0
  6457  0CE5  1303               	bcf	status, 6	;RP1=0, select bank0
  6458  0CE6  00A0               	movwf	((??___fttol+0)+0)
  6459  0CE7  0879               	movf	(___fttol@f1+1),w
  6460  0CE8  00A1               	movwf	((??___fttol+0)+0+1)
  6461  0CE9  087A               	movf	(___fttol@f1+2),w
  6462  0CEA  00A2               	movwf	((??___fttol+0)+0+2)
  6463  0CEB  1003               	clrc
  6464  0CEC  0D21               	rlf	(??___fttol+0)+1,w
  6465  0CED  0D22               	rlf	(??___fttol+0)+2,w
  6466  0CEE  00A3               	movwf	(??___fttol+3)+0
  6467  0CEF  0823               	movf	(??___fttol+3)+0,w
  6468  0CF0  00A9               	movwf	(___fttol@exp1)
  6469  0CF1  08A9               	movf	((___fttol@exp1)),f
  6470  0CF2  1D03               	skipz
  6471  0CF3  2CF5               	goto	u3161
  6472  0CF4  2CF6               	goto	u3160
  6473  0CF5                     u3161:
  6474  0CF5  2D00               	goto	l3355
  6475  0CF6                     u3160:
  6476                           	line	50
  6477                           	
  6478  0CF6                     l3351:	
  6479  0CF6  3000               	movlw	0
  6480  0CF7  00FB               	movwf	(?___fttol+3)
  6481  0CF8  3000               	movlw	0
  6482  0CF9  00FA               	movwf	(?___fttol+2)
  6483  0CFA  3000               	movlw	0
  6484  0CFB  00F9               	movwf	(?___fttol+1)
  6485  0CFC  3000               	movlw	0
  6486  0CFD  00F8               	movwf	(?___fttol)
  6487                           
  6488  0CFE  2D88               	goto	l1257
  6489                           	
  6490  0CFF                     l3353:	
  6491  0CFF  2D88               	goto	l1257
  6492                           	
  6493  0D00                     l1256:	
  6494                           	line	51
  6495                           	
  6496  0D00                     l3355:	
  6497  0D00  0878               	movf	(___fttol@f1),w
  6498  0D01  00A0               	movwf	((??___fttol+0)+0)
  6499  0D02  0879               	movf	(___fttol@f1+1),w
  6500  0D03  00A1               	movwf	((??___fttol+0)+0+1)
  6501  0D04  087A               	movf	(___fttol@f1+2),w
  6502  0D05  00A2               	movwf	((??___fttol+0)+0+2)
  6503  0D06  3017               	movlw	017h
  6504  0D07                     u3175:
  6505  0D07  1003               	clrc
  6506  0D08  0CA2               	rrf	(??___fttol+0)+2,f
  6507  0D09  0CA1               	rrf	(??___fttol+0)+1,f
  6508  0D0A  0CA0               	rrf	(??___fttol+0)+0,f
  6509  0D0B                     u3170:
  6510  0D0B  3EFF               	addlw	-1
  6511  0D0C  1D03               	skipz
  6512  0D0D  2D07               	goto	u3175
  6513  0D0E  0820               	movf	0+(??___fttol+0)+0,w
  6514  0D0F  00A3               	movwf	(??___fttol+3)+0
  6515  0D10  0823               	movf	(??___fttol+3)+0,w
  6516  0D11  00A4               	movwf	(___fttol@sign1)
  6517                           	line	52
  6518                           	
  6519  0D12                     l3357:	
  6520  0D12  17F9               	bsf	(___fttol@f1)+(15/8),(15)&7
  6521                           	line	53
  6522                           	
  6523  0D13                     l3359:	
  6524  0D13  30FF               	movlw	0FFh
  6525  0D14  05F8               	andwf	(___fttol@f1),f
  6526  0D15  30FF               	movlw	0FFh
  6527  0D16  05F9               	andwf	(___fttol@f1+1),f
  6528  0D17  3000               	movlw	0
  6529  0D18  05FA               	andwf	(___fttol@f1+2),f
  6530                           	line	54
  6531                           	
  6532  0D19                     l3361:	
  6533  0D19  0878               	movf	(___fttol@f1),w
  6534  0D1A  00A5               	movwf	(___fttol@lval)
  6535  0D1B  0879               	movf	(___fttol@f1+1),w
  6536  0D1C  00A6               	movwf	((___fttol@lval))+1
  6537  0D1D  087A               	movf	(___fttol@f1+2),w
  6538  0D1E  00A7               	movwf	((___fttol@lval))+2
  6539  0D1F  01A8               	clrf	((___fttol@lval))+3
  6540                           	line	55
  6541                           	
  6542  0D20                     l3363:	
  6543  0D20  308E               	movlw	low(08Eh)
  6544  0D21  02A9               	subwf	(___fttol@exp1),f
  6545                           	line	56
  6546                           	
  6547  0D22                     l3365:	
  6548  0D22  1FA9               	btfss	(___fttol@exp1),7
  6549  0D23  2D25               	goto	u3181
  6550  0D24  2D26               	goto	u3180
  6551  0D25                     u3181:
  6552  0D25  2D4B               	goto	l3375
  6553  0D26                     u3180:
  6554                           	line	57
  6555                           	
  6556  0D26                     l3367:	
  6557  0D26  0829               	movf	(___fttol@exp1),w
  6558  0D27  3A80               	xorlw	80h
  6559  0D28  3E8F               	addlw	-((-15)^80h)
  6560  0D29  1803               	skipnc
  6561  0D2A  2D2C               	goto	u3191
  6562  0D2B  2D2D               	goto	u3190
  6563  0D2C                     u3191:
  6564  0D2C  2D38               	goto	l3373
  6565  0D2D                     u3190:
  6566                           	line	58
  6567                           	
  6568  0D2D                     l3369:	
  6569  0D2D  3000               	movlw	0
  6570  0D2E  00FB               	movwf	(?___fttol+3)
  6571  0D2F  3000               	movlw	0
  6572  0D30  00FA               	movwf	(?___fttol+2)
  6573  0D31  3000               	movlw	0
  6574  0D32  00F9               	movwf	(?___fttol+1)
  6575  0D33  3000               	movlw	0
  6576  0D34  00F8               	movwf	(?___fttol)
  6577                           
  6578  0D35  2D88               	goto	l1257
  6579                           	
  6580  0D36                     l3371:	
  6581  0D36  2D88               	goto	l1257
  6582                           	
  6583  0D37                     l1259:	
  6584  0D37  2D38               	goto	l3373
  6585                           	line	59
  6586                           	
  6587  0D38                     l1260:	
  6588                           	line	60
  6589                           	
  6590  0D38                     l3373:	
  6591  0D38  3001               	movlw	01h
  6592  0D39                     u3205:
  6593  0D39  1003               	clrc
  6594  0D3A  0CA8               	rrf	(___fttol@lval+3),f
  6595  0D3B  0CA7               	rrf	(___fttol@lval+2),f
  6596  0D3C  0CA6               	rrf	(___fttol@lval+1),f
  6597  0D3D  0CA5               	rrf	(___fttol@lval),f
  6598  0D3E  3EFF               	addlw	-1
  6599  0D3F  1D03               	skipz
  6600  0D40  2D39               	goto	u3205
  6601                           
  6602                           	line	61
  6603  0D41  3001               	movlw	(01h)
  6604  0D42  00A0               	movwf	(??___fttol+0)+0
  6605  0D43  0820               	movf	(??___fttol+0)+0,w
  6606  0D44  07A9               	addwf	(___fttol@exp1),f
  6607  0D45  1D03               	btfss	status,2
  6608  0D46  2D48               	goto	u3211
  6609  0D47  2D49               	goto	u3210
  6610  0D48                     u3211:
  6611  0D48  2D38               	goto	l3373
  6612  0D49                     u3210:
  6613  0D49  2D6F               	goto	l3385
  6614                           	
  6615  0D4A                     l1261:	
  6616                           	line	62
  6617  0D4A  2D6F               	goto	l3385
  6618                           	
  6619  0D4B                     l1258:	
  6620                           	line	63
  6621                           	
  6622  0D4B                     l3375:	
  6623  0D4B  3018               	movlw	(018h)
  6624  0D4C  0229               	subwf	(___fttol@exp1),w
  6625  0D4D  1C03               	skipc
  6626  0D4E  2D50               	goto	u3221
  6627  0D4F  2D51               	goto	u3220
  6628  0D50                     u3221:
  6629  0D50  2D68               	goto	l3383
  6630  0D51                     u3220:
  6631                           	line	64
  6632                           	
  6633  0D51                     l3377:	
  6634  0D51  3000               	movlw	0
  6635  0D52  00FB               	movwf	(?___fttol+3)
  6636  0D53  3000               	movlw	0
  6637  0D54  00FA               	movwf	(?___fttol+2)
  6638  0D55  3000               	movlw	0
  6639  0D56  00F9               	movwf	(?___fttol+1)
  6640  0D57  3000               	movlw	0
  6641  0D58  00F8               	movwf	(?___fttol)
  6642                           
  6643  0D59  2D88               	goto	l1257
  6644                           	
  6645  0D5A                     l3379:	
  6646  0D5A  2D88               	goto	l1257
  6647                           	
  6648  0D5B                     l1263:	
  6649                           	line	65
  6650  0D5B  2D68               	goto	l3383
  6651                           	
  6652  0D5C                     l1265:	
  6653                           	line	66
  6654                           	
  6655  0D5C                     l3381:	
  6656  0D5C  3001               	movlw	01h
  6657  0D5D  00A0               	movwf	(??___fttol+0)+0
  6658  0D5E                     u3235:
  6659  0D5E  1003               	clrc
  6660  0D5F  0DA5               	rlf	(___fttol@lval),f
  6661  0D60  0DA6               	rlf	(___fttol@lval+1),f
  6662  0D61  0DA7               	rlf	(___fttol@lval+2),f
  6663  0D62  0DA8               	rlf	(___fttol@lval+3),f
  6664  0D63  0BA0               	decfsz	(??___fttol+0)+0
  6665  0D64  2D5E               	goto	u3235
  6666                           	line	67
  6667  0D65  3001               	movlw	low(01h)
  6668  0D66  02A9               	subwf	(___fttol@exp1),f
  6669  0D67  2D68               	goto	l3383
  6670                           	line	68
  6671                           	
  6672  0D68                     l1264:	
  6673                           	line	65
  6674                           	
  6675  0D68                     l3383:	
  6676  0D68  08A9               	movf	(___fttol@exp1),f
  6677  0D69  1D03               	skipz
  6678  0D6A  2D6C               	goto	u3241
  6679  0D6B  2D6D               	goto	u3240
  6680  0D6C                     u3241:
  6681  0D6C  2D5C               	goto	l3381
  6682  0D6D                     u3240:
  6683  0D6D  2D6F               	goto	l3385
  6684                           	
  6685  0D6E                     l1266:	
  6686  0D6E  2D6F               	goto	l3385
  6687                           	line	69
  6688                           	
  6689  0D6F                     l1262:	
  6690                           	line	70
  6691                           	
  6692  0D6F                     l3385:	
  6693  0D6F  0824               	movf	(___fttol@sign1),w
  6694  0D70  1D03               	skipz
  6695  0D71  2D73               	goto	u3250
  6696  0D72  2D7F               	goto	l3389
  6697  0D73                     u3250:
  6698                           	line	71
  6699                           	
  6700  0D73                     l3387:	
  6701  0D73  09A5               	comf	(___fttol@lval),f
  6702  0D74  09A6               	comf	(___fttol@lval+1),f
  6703  0D75  09A7               	comf	(___fttol@lval+2),f
  6704  0D76  09A8               	comf	(___fttol@lval+3),f
  6705  0D77  0AA5               	incf	(___fttol@lval),f
  6706  0D78  1903               	skipnz
  6707  0D79  0AA6               	incf	(___fttol@lval+1),f
  6708  0D7A  1903               	skipnz
  6709  0D7B  0AA7               	incf	(___fttol@lval+2),f
  6710  0D7C  1903               	skipnz
  6711  0D7D  0AA8               	incf	(___fttol@lval+3),f
  6712  0D7E  2D7F               	goto	l3389
  6713                           	
  6714  0D7F                     l1267:	
  6715                           	line	72
  6716                           	
  6717  0D7F                     l3389:	
  6718  0D7F  0828               	movf	(___fttol@lval+3),w
  6719  0D80  00FB               	movwf	(?___fttol+3)
  6720  0D81  0827               	movf	(___fttol@lval+2),w
  6721  0D82  00FA               	movwf	(?___fttol+2)
  6722  0D83  0826               	movf	(___fttol@lval+1),w
  6723  0D84  00F9               	movwf	(?___fttol+1)
  6724  0D85  0825               	movf	(___fttol@lval),w
  6725  0D86  00F8               	movwf	(?___fttol)
  6726                           
  6727  0D87  2D88               	goto	l1257
  6728                           	
  6729  0D88                     l3391:	
  6730                           	line	73
  6731                           	
  6732  0D88                     l1257:	
  6733  0D88  0008               	return
  6734                           	opt stack 0
  6735                           GLOBAL	__end_of___fttol
  6736  0D89                     	__end_of___fttol:
  6737 ;; =============== function ___fttol ends ============
  6738                           
  6739                           	signat	___fttol,4220
  6740                           	global	___ftpack
  6741                           psect	text619,local,class=CODE,delta=2
  6742                           global __ptext619
  6743  0C68                     __ptext619:
  6744                           
  6745 ;; *************** function ___ftpack *****************
  6746 ;; Defined at:
  6747 ;;		line 63 in file "C:\Program Files\HI-TECH Software\PICC\9.81\sources\float.c"
  6748 ;; Parameters:    Size  Location     Type
  6749 ;;  arg             3    0[COMMON] unsigned um
  6750 ;;  exp             1    3[COMMON] unsigned char 
  6751 ;;  sign            1    4[COMMON] unsigned char 
  6752 ;; Auto vars:     Size  Location     Type
  6753 ;;		None
  6754 ;; Return value:  Size  Location     Type
  6755 ;;                  3    0[COMMON] float 
  6756 ;; Registers used:
  6757 ;;		wreg, status,2, status,0
  6758 ;; Tracked objects:
  6759 ;;		On entry : 0/0
  6760 ;;		On exit  : 0/0
  6761 ;;		Unchanged: 0/0
  6762 ;; Data sizes:     COMMON   BANK0   BANK1   BANK3   BANK2
  6763 ;;      Params:         5       0       0       0       0
  6764 ;;      Locals:         0       0       0       0       0
  6765 ;;      Temps:          3       0       0       0       0
  6766 ;;      Totals:         8       0       0       0       0
  6767 ;;Total ram usage:        8 bytes
  6768 ;; Hardware stack levels used:    1
  6769 ;; This function calls:
  6770 ;;		Nothing
  6771 ;; This function is called by:
  6772 ;;		___ftmul
  6773 ;;		___awtoft
  6774 ;;		___ftadd
  6775 ;;		___ftdiv
  6776 ;;		___lbtoft
  6777 ;;		___abtoft
  6778 ;;		___lwtoft
  6779 ;;		___altoft
  6780 ;;		___lltoft
  6781 ;;		___attoft
  6782 ;;		___lttoft
  6783 ;; This function uses a non-reentrant model
  6784 ;;
  6785                           psect	text619
  6786                           	file	"C:\Program Files\HI-TECH Software\PICC\9.81\sources\float.c"
  6787                           	line	63
  6788                           	global	__size_of___ftpack
  6789  007B                     	__size_of___ftpack	equ	__end_of___ftpack-___ftpack
  6790                           	
  6791  0C68                     ___ftpack:	
  6792                           	opt	stack 5
  6793                           ; Regs used in ___ftpack: [wreg+status,2+status,0]
  6794                           	line	64
  6795                           	
  6796  0C68                     l3275:	
  6797  0C68  0873               	movf	(___ftpack@exp),w
  6798  0C69  1D03               	skipz
  6799  0C6A  2C6C               	goto	u2970
  6800  0C6B  2C74               	goto	l3279
  6801  0C6C                     u2970:
  6802                           	
  6803  0C6C                     l3277:	
  6804  0C6C  0872               	movf	(___ftpack@arg+2),w
  6805  0C6D  0471               	iorwf	(___ftpack@arg+1),w
  6806  0C6E  0470               	iorwf	(___ftpack@arg),w
  6807  0C6F  1D03               	skipz
  6808  0C70  2C72               	goto	u2981
  6809  0C71  2C73               	goto	u2980
  6810  0C72                     u2981:
  6811  0C72  2C8A               	goto	l3285
  6812  0C73                     u2980:
  6813  0C73  2C74               	goto	l3279
  6814                           	
  6815  0C74                     l1481:	
  6816                           	line	65
  6817                           	
  6818  0C74                     l3279:	
  6819  0C74  3000               	movlw	0x0
  6820  0C75  00F0               	movwf	(?___ftpack)
  6821  0C76  3000               	movlw	0x0
  6822  0C77  00F1               	movwf	(?___ftpack+1)
  6823  0C78  3000               	movlw	0x0
  6824  0C79  00F2               	movwf	(?___ftpack+2)
  6825  0C7A  2CE2               	goto	l1482
  6826                           	
  6827  0C7B                     l3281:	
  6828  0C7B  2CE2               	goto	l1482
  6829                           	
  6830  0C7C                     l1479:	
  6831                           	line	66
  6832  0C7C  2C8A               	goto	l3285
  6833                           	
  6834  0C7D                     l1484:	
  6835                           	line	67
  6836                           	
  6837  0C7D                     l3283:	
  6838  0C7D  3001               	movlw	(01h)
  6839  0C7E  00F5               	movwf	(??___ftpack+0)+0
  6840  0C7F  0875               	movf	(??___ftpack+0)+0,w
  6841  0C80  07F3               	addwf	(___ftpack@exp),f
  6842                           	line	68
  6843  0C81  3001               	movlw	01h
  6844  0C82                     u2995:
  6845  0C82  1003               	clrc
  6846  0C83  0CF2               	rrf	(___ftpack@arg+2),f
  6847  0C84  0CF1               	rrf	(___ftpack@arg+1),f
  6848  0C85  0CF0               	rrf	(___ftpack@arg),f
  6849  0C86  3EFF               	addlw	-1
  6850  0C87  1D03               	skipz
  6851  0C88  2C82               	goto	u2995
  6852                           
  6853  0C89  2C8A               	goto	l3285
  6854                           	line	69
  6855                           	
  6856  0C8A                     l1483:	
  6857                           	line	66
  6858                           	
  6859  0C8A                     l3285:	
  6860  0C8A  30FE               	movlw	low highword(0FE0000h)
  6861  0C8B  0572               	andwf	(___ftpack@arg+2),w
  6862  0C8C  1D03               	btfss	status,2
  6863  0C8D  2C8F               	goto	u3001
  6864  0C8E  2C90               	goto	u3000
  6865  0C8F                     u3001:
  6866  0C8F  2C7D               	goto	l3283
  6867  0C90                     u3000:
  6868  0C90  2CA8               	goto	l1486
  6869                           	
  6870  0C91                     l1485:	
  6871                           	line	70
  6872  0C91  2CA8               	goto	l1486
  6873                           	
  6874  0C92                     l1487:	
  6875                           	line	71
  6876                           	
  6877  0C92                     l3287:	
  6878  0C92  3001               	movlw	(01h)
  6879  0C93  00F5               	movwf	(??___ftpack+0)+0
  6880  0C94  0875               	movf	(??___ftpack+0)+0,w
  6881  0C95  07F3               	addwf	(___ftpack@exp),f
  6882                           	line	72
  6883                           	
  6884  0C96                     l3289:	
  6885  0C96  3001               	movlw	01h
  6886  0C97  07F0               	addwf	(___ftpack@arg),f
  6887  0C98  3000               	movlw	0
  6888  0C99  1803               	skipnc
  6889  0C9A  3001               movlw 1
  6890  0C9B  07F1               	addwf	(___ftpack@arg+1),f
  6891  0C9C  3000               	movlw	0
  6892  0C9D  1803               	skipnc
  6893  0C9E  3001               movlw 1
  6894  0C9F  07F2               	addwf	(___ftpack@arg+2),f
  6895                           	line	73
  6896                           	
  6897  0CA0                     l3291:	
  6898  0CA0  3001               	movlw	01h
  6899  0CA1                     u3015:
  6900  0CA1  1003               	clrc
  6901  0CA2  0CF2               	rrf	(___ftpack@arg+2),f
  6902  0CA3  0CF1               	rrf	(___ftpack@arg+1),f
  6903  0CA4  0CF0               	rrf	(___ftpack@arg),f
  6904  0CA5  3EFF               	addlw	-1
  6905  0CA6  1D03               	skipz
  6906  0CA7  2CA1               	goto	u3015
  6907                           
  6908                           	line	74
  6909                           	
  6910  0CA8                     l1486:	
  6911                           	line	70
  6912  0CA8  30FF               	movlw	low highword(0FF0000h)
  6913  0CA9  0572               	andwf	(___ftpack@arg+2),w
  6914  0CAA  1D03               	btfss	status,2
  6915  0CAB  2CAD               	goto	u3021
  6916  0CAC  2CAE               	goto	u3020
  6917  0CAD                     u3021:
  6918  0CAD  2C92               	goto	l3287
  6919  0CAE                     u3020:
  6920  0CAE  2CBB               	goto	l3295
  6921                           	
  6922  0CAF                     l1488:	
  6923                           	line	75
  6924  0CAF  2CBB               	goto	l3295
  6925                           	
  6926  0CB0                     l1490:	
  6927                           	line	76
  6928                           	
  6929  0CB0                     l3293:	
  6930  0CB0  3001               	movlw	low(01h)
  6931  0CB1  02F3               	subwf	(___ftpack@exp),f
  6932                           	line	77
  6933  0CB2  3001               	movlw	01h
  6934  0CB3                     u3035:
  6935  0CB3  1003               	clrc
  6936  0CB4  0DF0               	rlf	(___ftpack@arg),f
  6937  0CB5  0DF1               	rlf	(___ftpack@arg+1),f
  6938  0CB6  0DF2               	rlf	(___ftpack@arg+2),f
  6939  0CB7  3EFF               	addlw	-1
  6940  0CB8  1D03               	skipz
  6941  0CB9  2CB3               	goto	u3035
  6942  0CBA  2CBB               	goto	l3295
  6943                           	line	78
  6944                           	
  6945  0CBB                     l1489:	
  6946                           	line	75
  6947                           	
  6948  0CBB                     l3295:	
  6949  0CBB  1FF1               	btfss	(___ftpack@arg+1),(15)&7
  6950  0CBC  2CBE               	goto	u3041
  6951  0CBD  2CBF               	goto	u3040
  6952  0CBE                     u3041:
  6953  0CBE  2CB0               	goto	l3293
  6954  0CBF                     u3040:
  6955                           	
  6956  0CBF                     l1491:	
  6957                           	line	79
  6958  0CBF  1873               	btfsc	(___ftpack@exp),(0)&7
  6959  0CC0  2CC2               	goto	u3051
  6960  0CC1  2CC3               	goto	u3050
  6961  0CC2                     u3051:
  6962  0CC2  2CC9               	goto	l1492
  6963  0CC3                     u3050:
  6964                           	line	80
  6965                           	
  6966  0CC3                     l3297:	
  6967  0CC3  30FF               	movlw	0FFh
  6968  0CC4  05F0               	andwf	(___ftpack@arg),f
  6969  0CC5  307F               	movlw	07Fh
  6970  0CC6  05F1               	andwf	(___ftpack@arg+1),f
  6971  0CC7  30FF               	movlw	0FFh
  6972  0CC8  05F2               	andwf	(___ftpack@arg+2),f
  6973                           	
  6974  0CC9                     l1492:	
  6975                           	line	81
  6976  0CC9  1003               	clrc
  6977  0CCA  0CF3               	rrf	(___ftpack@exp),f
  6978                           
  6979                           	line	82
  6980                           	
  6981  0CCB                     l3299:	
  6982  0CCB  0873               	movf	(___ftpack@exp),w
  6983  0CCC  00F5               	movwf	((??___ftpack+0)+0)
  6984  0CCD  01F6               	clrf	((??___ftpack+0)+0+1)
  6985  0CCE  01F7               	clrf	((??___ftpack+0)+0+2)
  6986  0CCF  3010               	movlw	010h
  6987  0CD0                     u3065:
  6988  0CD0  1003               	clrc
  6989  0CD1  0DF5               	rlf	(??___ftpack+0)+0,f
  6990  0CD2  0DF6               	rlf	(??___ftpack+0)+1,f
  6991  0CD3  0DF7               	rlf	(??___ftpack+0)+2,f
  6992  0CD4                     u3060:
  6993  0CD4  3EFF               	addlw	-1
  6994  0CD5  1D03               	skipz
  6995  0CD6  2CD0               	goto	u3065
  6996  0CD7  0875               	movf	0+(??___ftpack+0)+0,w
  6997  0CD8  04F0               	iorwf	(___ftpack@arg),f
  6998  0CD9  0876               	movf	1+(??___ftpack+0)+0,w
  6999  0CDA  04F1               	iorwf	(___ftpack@arg+1),f
  7000  0CDB  0877               	movf	2+(??___ftpack+0)+0,w
  7001  0CDC  04F2               	iorwf	(___ftpack@arg+2),f
  7002                           	line	83
  7003                           	
  7004  0CDD                     l3301:	
  7005  0CDD  0874               	movf	(___ftpack@sign),w
  7006  0CDE  1D03               	skipz
  7007  0CDF  2CE1               	goto	u3070
  7008  0CE0  2CE2               	goto	l1493
  7009  0CE1                     u3070:
  7010                           	line	84
  7011                           	
  7012  0CE1                     l3303:	
  7013  0CE1  17F2               	bsf	(___ftpack@arg)+(23/8),(23)&7
  7014                           	
  7015  0CE2                     l1493:	
  7016                           	line	85
  7017                           	line	86
  7018                           	
  7019  0CE2                     l1482:	
  7020  0CE2  0008               	return
  7021                           	opt stack 0
  7022                           GLOBAL	__end_of___ftpack
  7023  0CE3                     	__end_of___ftpack:
  7024 ;; =============== function ___ftpack ends ============
  7025                           
  7026                           	signat	___ftpack,12411
  7027                           	global	_eeprom_read
  7028                           psect	text620,local,class=CODE,delta=2
  7029                           global __ptext620
  7030  0A38                     __ptext620:
  7031                           
  7032 ;; *************** function _eeprom_read *****************
  7033 ;; Defined at:
  7034 ;;		line 8 in file "eeread.c"
  7035 ;; Parameters:    Size  Location     Type
  7036 ;;  addr            1    wreg     unsigned char 
  7037 ;; Auto vars:     Size  Location     Type
  7038 ;;  addr            1    1[COMMON] unsigned char 
  7039 ;; Return value:  Size  Location     Type
  7040 ;;                  1    wreg      unsigned char 
  7041 ;; Registers used:
  7042 ;;		wreg, status,2, status,0
  7043 ;; Tracked objects:
  7044 ;;		On entry : 0/0
  7045 ;;		On exit  : 0/0
  7046 ;;		Unchanged: 0/0
  7047 ;; Data sizes:     COMMON   BANK0   BANK1   BANK3   BANK2
  7048 ;;      Params:         0       0       0       0       0
  7049 ;;      Locals:         1       0       0       0       0
  7050 ;;      Temps:          1       0       0       0       0
  7051 ;;      Totals:         2       0       0       0       0
  7052 ;;Total ram usage:        2 bytes
  7053 ;; Hardware stack levels used:    1
  7054 ;; This function calls:
  7055 ;;		Nothing
  7056 ;; This function is called by:
  7057 ;;		_main
  7058 ;; This function uses a non-reentrant model
  7059 ;;
  7060                           psect	text620
  7061                           	file	"C:\Program Files\HI-TECH Software\PICC\9.81\sources\eeread.c"
  7062                           	line	8
  7063                           	global	__size_of_eeprom_read
  7064  001F                     	__size_of_eeprom_read	equ	__end_of_eeprom_read-_eeprom_read
  7065                           	
  7066  0A38                     _eeprom_read:	
  7067                           	opt	stack 7
  7068                           ; Regs used in _eeprom_read: [wreg+status,2+status,0]
  7069                           ;eeprom_read@addr stored from wreg
  7070                           	line	10
  7071  0A38  00F1               	movwf	(eeprom_read@addr)
  7072                           	line	9
  7073                           	
  7074  0A39                     l1110:	
  7075                           	line	10
  7076                           # 10 "C:\Program Files\HI-TECH Software\PICC\9.81\sources\eeread.c"
  7077  0A39  0064               clrwdt ;#
  7078                           psect	text620
  7079                           	line	11
  7080  0A3A  1683               	bsf	status, 5	;RP0=1, select bank3
  7081  0A3B  1703               	bsf	status, 6	;RP1=1, select bank3
  7082  0A3C  188C               	btfsc	(3169/8)^0180h,(3169)&7
  7083  0A3D  2A3F               	goto	u2721
  7084  0A3E  2A40               	goto	u2720
  7085  0A3F                     u2721:
  7086  0A3F  2A39               	goto	l1110
  7087  0A40                     u2720:
  7088  0A40  2A41               	goto	l3201
  7089                           	
  7090  0A41                     l1111:	
  7091                           	line	12
  7092                           	
  7093  0A41                     l3201:	
  7094  0A41  0871               	movf	(eeprom_read@addr),w
  7095  0A42  1283               	bcf	status, 5	;RP0=0, select bank2
  7096  0A43  1703               	bsf	status, 6	;RP1=1, select bank2
  7097  0A44  008D               	movwf	(269)^0100h	;volatile
  7098  0A45  303F               	movlw	(03Fh)
  7099  0A46  00F0               	movwf	(??_eeprom_read+0)+0
  7100  0A47  0870               	movf	(??_eeprom_read+0)+0,w
  7101  0A48  1683               	bsf	status, 5	;RP0=1, select bank3
  7102  0A49  1703               	bsf	status, 6	;RP1=1, select bank3
  7103  0A4A  058C               	andwf	(396)^0180h,f	;volatile
  7104  0A4B  140C               	bsf	(3168/8)^0180h,(3168)&7
  7105  0A4C  1003               	clrc
  7106  0A4D  180C               	btfsc	(3168/8)^0180h,(3168)&7
  7107  0A4E  1403               	setc
  7108  0A4F  3000               	movlw	0
  7109  0A50  1803               	skipnc
  7110  0A51  3001               	movlw	1
  7111                           
  7112  0A52  1283               	bcf	status, 5	;RP0=0, select bank2
  7113  0A53  1703               	bsf	status, 6	;RP1=1, select bank2
  7114  0A54  080C               	movf	(268)^0100h,w	;volatile
  7115  0A55  2A56               	goto	l1112
  7116                           	
  7117  0A56                     l3203:	
  7118                           	line	13
  7119                           	
  7120  0A56                     l1112:	
  7121  0A56  0008               	return
  7122                           	opt stack 0
  7123                           GLOBAL	__end_of_eeprom_read
  7124  0A57                     	__end_of_eeprom_read:
  7125 ;; =============== function _eeprom_read ends ============
  7126                           
  7127                           	signat	_eeprom_read,4217
  7128                           	global	_eeprom_write
  7129                           psect	text621,local,class=CODE,delta=2
  7130                           global __ptext621
  7131  0AF3                     __ptext621:
  7132                           
  7133 ;; *************** function _eeprom_write *****************
  7134 ;; Defined at:
  7135 ;;		line 8 in file "C:\Program Files\HI-TECH Software\PICC\9.81\sources\eewrite.c"
  7136 ;; Parameters:    Size  Location     Type
  7137 ;;  addr            1    wreg     unsigned char 
  7138 ;;  value           1    0[COMMON] unsigned char 
  7139 ;; Auto vars:     Size  Location     Type
  7140 ;;  addr            1    2[COMMON] unsigned char 
  7141 ;; Return value:  Size  Location     Type
  7142 ;;		None               void
  7143 ;; Registers used:
  7144 ;;		wreg, status,2, status,0
  7145 ;; Tracked objects:
  7146 ;;		On entry : 0/0
  7147 ;;		On exit  : 0/0
  7148 ;;		Unchanged: 0/0
  7149 ;; Data sizes:     COMMON   BANK0   BANK1   BANK3   BANK2
  7150 ;;      Params:         1       0       0       0       0
  7151 ;;      Locals:         1       0       0       0       0
  7152 ;;      Temps:          1       0       0       0       0
  7153 ;;      Totals:         3       0       0       0       0
  7154 ;;Total ram usage:        3 bytes
  7155 ;; Hardware stack levels used:    1
  7156 ;; This function calls:
  7157 ;;		Nothing
  7158 ;; This function is called by:
  7159 ;;		_Generator_run
  7160 ;; This function uses a non-reentrant model
  7161 ;;
  7162                           psect	text621
  7163                           	file	"C:\Program Files\HI-TECH Software\PICC\9.81\sources\eewrite.c"
  7164                           	line	8
  7165                           	global	__size_of_eeprom_write
  7166  0031                     	__size_of_eeprom_write	equ	__end_of_eeprom_write-_eeprom_write
  7167                           	
  7168  0AF3                     _eeprom_write:	
  7169                           	opt	stack 6
  7170                           ; Regs used in _eeprom_write: [wreg+status,2+status,0]
  7171                           ;eeprom_write@addr stored from wreg
  7172  0AF3  00F2               	movwf	(eeprom_write@addr)
  7173                           	line	9
  7174                           	
  7175  0AF4                     l1131:	
  7176  0AF4  2AF5               	goto	l1132
  7177                           	
  7178  0AF5                     l1133:	
  7179                           	
  7180  0AF5                     l1132:	
  7181  0AF5  1683               	bsf	status, 5	;RP0=1, select bank3
  7182  0AF6  1703               	bsf	status, 6	;RP1=1, select bank3
  7183  0AF7  188C               	btfsc	(3169/8)^0180h,(3169)&7
  7184  0AF8  2AFA               	goto	u2691
  7185  0AF9  2AFB               	goto	u2690
  7186  0AFA                     u2691:
  7187  0AFA  2AF5               	goto	l1132
  7188  0AFB                     u2690:
  7189  0AFB  2AFC               	goto	l3181
  7190                           	
  7191  0AFC                     l1134:	
  7192                           	
  7193  0AFC                     l3181:	
  7194  0AFC  0872               	movf	(eeprom_write@addr),w
  7195  0AFD  1283               	bcf	status, 5	;RP0=0, select bank2
  7196  0AFE  1703               	bsf	status, 6	;RP1=1, select bank2
  7197  0AFF  008D               	movwf	(269)^0100h	;volatile
  7198  0B00  0870               	movf	(eeprom_write@value),w
  7199  0B01  008C               	movwf	(268)^0100h	;volatile
  7200                           	
  7201  0B02                     l3183:	
  7202  0B02  303F               	movlw	(03Fh)
  7203  0B03  00F1               	movwf	(??_eeprom_write+0)+0
  7204  0B04  0871               	movf	(??_eeprom_write+0)+0,w
  7205  0B05  1683               	bsf	status, 5	;RP0=1, select bank3
  7206  0B06  1703               	bsf	status, 6	;RP1=1, select bank3
  7207  0B07  058C               	andwf	(396)^0180h,f	;volatile
  7208                           	
  7209  0B08                     l3185:	
  7210  0B08  1283               	bcf	status, 5	;RP0=0, select bank0
  7211  0B09  1303               	bcf	status, 6	;RP1=0, select bank0
  7212  0B0A  1003               	bcf	(24/8),(24)&7
  7213                           	
  7214  0B0B                     l3187:	
  7215  0B0B  1F8B               	btfss	(95/8),(95)&7
  7216  0B0C  2B0E               	goto	u2701
  7217  0B0D  2B0F               	goto	u2700
  7218  0B0E                     u2701:
  7219  0B0E  2B10               	goto	l1135
  7220  0B0F                     u2700:
  7221                           	
  7222  0B0F                     l3189:	
  7223  0B0F  1403               	bsf	(24/8),(24)&7
  7224                           	
  7225  0B10                     l1135:	
  7226  0B10  138B               	bcf	(95/8),(95)&7
  7227  0B11  1683               	bsf	status, 5	;RP0=1, select bank3
  7228  0B12  1703               	bsf	status, 6	;RP1=1, select bank3
  7229  0B13  150C               	bsf	(3170/8)^0180h,(3170)&7
  7230                           	
  7231  0B14                     l3191:	
  7232  0B14  3055               	movlw	(055h)
  7233  0B15  008D               	movwf	(397)^0180h	;volatile
  7234  0B16  30AA               	movlw	(0AAh)
  7235  0B17  008D               	movwf	(397)^0180h	;volatile
  7236                           	
  7237  0B18                     l3193:	
  7238  0B18  148C               	bsf	(3169/8)^0180h,(3169)&7
  7239                           	
  7240  0B19                     l3195:	
  7241  0B19  110C               	bcf	(3170/8)^0180h,(3170)&7
  7242                           	
  7243  0B1A                     l3197:	
  7244  0B1A  1283               	bcf	status, 5	;RP0=0, select bank0
  7245  0B1B  1303               	bcf	status, 6	;RP1=0, select bank0
  7246  0B1C  1C03               	btfss	(24/8),(24)&7
  7247  0B1D  2B1F               	goto	u2711
  7248  0B1E  2B20               	goto	u2710
  7249  0B1F                     u2711:
  7250  0B1F  2B23               	goto	l1138
  7251  0B20                     u2710:
  7252                           	
  7253  0B20                     l3199:	
  7254  0B20  178B               	bsf	(95/8),(95)&7
  7255  0B21  2B23               	goto	l1138
  7256                           	
  7257  0B22                     l1136:	
  7258  0B22  2B23               	goto	l1138
  7259                           	
  7260  0B23                     l1137:	
  7261                           	line	10
  7262                           	
  7263  0B23                     l1138:	
  7264  0B23  0008               	return
  7265                           	opt stack 0
  7266                           GLOBAL	__end_of_eeprom_write
  7267  0B24                     	__end_of_eeprom_write:
  7268 ;; =============== function _eeprom_write ends ============
  7269                           
  7270                           	signat	_eeprom_write,8312
  7271                           	global	_I2C_Read
  7272                           psect	text622,local,class=CODE,delta=2
  7273                           global __ptext622
  7274  0A57                     __ptext622:
  7275                           
  7276 ;; *************** function _I2C_Read *****************
  7277 ;; Defined at:
  7278 ;;		line 58 in file "D:\Embedded\pic\code\Indu886.c"
  7279 ;; Parameters:    Size  Location     Type
  7280 ;;  i               2    0[COMMON] unsigned int 
  7281 ;; Auto vars:     Size  Location     Type
  7282 ;;  read1           1    3[COMMON] unsigned char 
  7283 ;; Return value:  Size  Location     Type
  7284 ;;                  1    wreg      unsigned char 
  7285 ;; Registers used:
  7286 ;;		wreg
  7287 ;; Tracked objects:
  7288 ;;		On entry : 0/0
  7289 ;;		On exit  : 0/0
  7290 ;;		Unchanged: 0/0
  7291 ;; Data sizes:     COMMON   BANK0   BANK1   BANK3   BANK2
  7292 ;;      Params:         2       0       0       0       0
  7293 ;;      Locals:         1       0       0       0       0
  7294 ;;      Temps:          1       0       0       0       0
  7295 ;;      Totals:         4       0       0       0       0
  7296 ;;Total ram usage:        4 bytes
  7297 ;; Hardware stack levels used:    1
  7298 ;; This function calls:
  7299 ;;		Nothing
  7300 ;; This function is called by:
  7301 ;;		_main
  7302 ;; This function uses a non-reentrant model
  7303 ;;
  7304                           psect	text622
  7305                           	file	"D:\Embedded\pic\code\Indu886.c"
  7306                           	line	58
  7307                           	global	__size_of_I2C_Read
  7308  0023                     	__size_of_I2C_Read	equ	__end_of_I2C_Read-_I2C_Read
  7309                           	
  7310  0A57                     _I2C_Read:	
  7311                           	opt	stack 7
  7312                           ; Regs used in _I2C_Read: [wreg]
  7313                           	line	60
  7314                           	
  7315  0A57                     l3167:	
  7316                           ;Indu886.c: 59: unsigned char read1;
  7317                           ;Indu886.c: 60: if(i==2)
  7318  0A57  3002               	movlw	02h
  7319  0A58  0670               	xorwf	(I2C_Read@i),w
  7320  0A59  0471               	iorwf	(I2C_Read@i+1),w
  7321  0A5A  1D03               	skipz
  7322  0A5B  2A5D               	goto	u2671
  7323  0A5C  2A5E               	goto	u2670
  7324  0A5D                     u2671:
  7325  0A5D  2A62               	goto	l1024
  7326  0A5E                     u2670:
  7327                           	line	62
  7328                           	
  7329  0A5E                     l3169:	
  7330                           ;Indu886.c: 61: {
  7331                           ;Indu886.c: 62: ACKDT=1;
  7332  0A5E  1683               	bsf	status, 5	;RP0=1, select bank1
  7333  0A5F  1303               	bcf	status, 6	;RP1=0, select bank1
  7334  0A60  1691               	bsf	(1165/8)^080h,(1165)&7
  7335                           	line	63
  7336                           ;Indu886.c: 63: }
  7337  0A61  2A67               	goto	l1026
  7338                           	line	64
  7339                           	
  7340  0A62                     l1024:	
  7341                           	line	66
  7342                           ;Indu886.c: 64: else
  7343                           ;Indu886.c: 65: {
  7344                           ;Indu886.c: 66: ACKDT=0;
  7345  0A62  1683               	bsf	status, 5	;RP0=1, select bank1
  7346  0A63  1303               	bcf	status, 6	;RP1=0, select bank1
  7347  0A64  1291               	bcf	(1165/8)^080h,(1165)&7
  7348  0A65  2A67               	goto	l1026
  7349                           	line	67
  7350                           	
  7351  0A66                     l1025:	
  7352                           	line	68
  7353                           ;Indu886.c: 67: }
  7354                           ;Indu886.c: 68: while(BF==0);
  7355  0A66  2A67               	goto	l1026
  7356                           	
  7357  0A67                     l1027:	
  7358                           	
  7359  0A67                     l1026:	
  7360  0A67  1C14               	btfss	(1184/8)^080h,(1184)&7
  7361  0A68  2A6A               	goto	u2681
  7362  0A69  2A6B               	goto	u2680
  7363  0A6A                     u2681:
  7364  0A6A  2A67               	goto	l1026
  7365  0A6B                     u2680:
  7366  0A6B  2A6C               	goto	l3171
  7367                           	
  7368  0A6C                     l1028:	
  7369                           	line	69
  7370                           	
  7371  0A6C                     l3171:	
  7372                           ;Indu886.c: 69: read1=SSPBUF;
  7373  0A6C  1283               	bcf	status, 5	;RP0=0, select bank0
  7374  0A6D  1303               	bcf	status, 6	;RP1=0, select bank0
  7375  0A6E  0813               	movf	(19),w	;volatile
  7376  0A6F  00F2               	movwf	(??_I2C_Read+0)+0
  7377  0A70  0872               	movf	(??_I2C_Read+0)+0,w
  7378  0A71  00F3               	movwf	(I2C_Read@read1)
  7379                           	line	70
  7380                           	
  7381  0A72                     l3173:	
  7382                           ;Indu886.c: 70: SSPOV=0;
  7383  0A72  1314               	bcf	(166/8),(166)&7
  7384                           	line	71
  7385                           	
  7386  0A73                     l3175:	
  7387                           ;Indu886.c: 71: ACKEN=1;
  7388  0A73  1683               	bsf	status, 5	;RP0=1, select bank1
  7389  0A74  1303               	bcf	status, 6	;RP1=0, select bank1
  7390  0A75  1611               	bsf	(1164/8)^080h,(1164)&7
  7391                           	line	72
  7392                           	
  7393  0A76                     l3177:	
  7394                           ;Indu886.c: 72: BF=0;
  7395  0A76  1014               	bcf	(1184/8)^080h,(1184)&7
  7396                           	line	73
  7397                           ;Indu886.c: 73: return read1;
  7398  0A77  0873               	movf	(I2C_Read@read1),w
  7399  0A78  2A79               	goto	l1029
  7400                           	
  7401  0A79                     l3179:	
  7402                           	line	74
  7403                           	
  7404  0A79                     l1029:	
  7405  0A79  0008               	return
  7406                           	opt stack 0
  7407                           GLOBAL	__end_of_I2C_Read
  7408  0A7A                     	__end_of_I2C_Read:
  7409 ;; =============== function _I2C_Read ends ============
  7410                           
  7411                           	signat	_I2C_Read,4217
  7412                           	global	_hold
  7413                           psect	text623,local,class=CODE,delta=2
  7414                           global __ptext623
  7415  09B8                     __ptext623:
  7416                           
  7417 ;; *************** function _hold *****************
  7418 ;; Defined at:
  7419 ;;		line 31 in file "D:\Embedded\pic\code\Indu886.c"
  7420 ;; Parameters:    Size  Location     Type
  7421 ;;		None
  7422 ;; Auto vars:     Size  Location     Type
  7423 ;;		None
  7424 ;; Return value:  Size  Location     Type
  7425 ;;		None               void
  7426 ;; Registers used:
  7427 ;;		None
  7428 ;; Tracked objects:
  7429 ;;		On entry : 0/0
  7430 ;;		On exit  : 0/0
  7431 ;;		Unchanged: 0/0
  7432 ;; Data sizes:     COMMON   BANK0   BANK1   BANK3   BANK2
  7433 ;;      Params:         0       0       0       0       0
  7434 ;;      Locals:         0       0       0       0       0
  7435 ;;      Temps:          0       0       0       0       0
  7436 ;;      Totals:         0       0       0       0       0
  7437 ;;Total ram usage:        0 bytes
  7438 ;; Hardware stack levels used:    1
  7439 ;; This function calls:
  7440 ;;		Nothing
  7441 ;; This function is called by:
  7442 ;;		_I2C_Start
  7443 ;;		_I2C_Stop
  7444 ;;		_I2C_Slave
  7445 ;;		_I2C_Restart
  7446 ;; This function uses a non-reentrant model
  7447 ;;
  7448                           psect	text623
  7449                           	file	"D:\Embedded\pic\code\Indu886.c"
  7450                           	line	31
  7451                           	global	__size_of_hold
  7452  0009                     	__size_of_hold	equ	__end_of_hold-_hold
  7453                           	
  7454  09B8                     _hold:	
  7455                           	opt	stack 6
  7456                           ; Regs used in _hold: []
  7457                           	line	32
  7458                           	
  7459  09B8                     l3165:	
  7460                           ;Indu886.c: 32: while(SSPIF==0);
  7461  09B8  29B9               	goto	l1003
  7462                           	
  7463  09B9                     l1004:	
  7464                           	
  7465  09B9                     l1003:	
  7466  09B9  1283               	bcf	status, 5	;RP0=0, select bank0
  7467  09BA  1303               	bcf	status, 6	;RP1=0, select bank0
  7468  09BB  1D8C               	btfss	(99/8),(99)&7
  7469  09BC  29BE               	goto	u2661
  7470  09BD  29BF               	goto	u2660
  7471  09BE                     u2661:
  7472  09BE  29B9               	goto	l1003
  7473  09BF                     u2660:
  7474                           	
  7475  09BF                     l1005:	
  7476                           	line	33
  7477                           ;Indu886.c: 33: SSPIF=0;
  7478  09BF  118C               	bcf	(99/8),(99)&7
  7479                           	line	34
  7480                           	
  7481  09C0                     l1006:	
  7482  09C0  0008               	return
  7483                           	opt stack 0
  7484                           GLOBAL	__end_of_hold
  7485  09C1                     	__end_of_hold:
  7486 ;; =============== function _hold ends ============
  7487                           
  7488                           	signat	_hold,88
  7489                           	global	_delay
  7490                           psect	text624,local,class=CODE,delta=2
  7491                           global __ptext624
  7492  09E0                     __ptext624:
  7493                           
  7494 ;; *************** function _delay *****************
  7495 ;; Defined at:
  7496 ;;		line 6 in file "D:\Embedded\pic\code\lcd.h"
  7497 ;; Parameters:    Size  Location     Type
  7498 ;;  ms              2    0[COMMON] unsigned int 
  7499 ;; Auto vars:     Size  Location     Type
  7500 ;;		None
  7501 ;; Return value:  Size  Location     Type
  7502 ;;		None               void
  7503 ;; Registers used:
  7504 ;;		wreg
  7505 ;; Tracked objects:
  7506 ;;		On entry : 0/0
  7507 ;;		On exit  : 0/0
  7508 ;;		Unchanged: 0/0
  7509 ;; Data sizes:     COMMON   BANK0   BANK1   BANK3   BANK2
  7510 ;;      Params:         2       0       0       0       0
  7511 ;;      Locals:         0       0       0       0       0
  7512 ;;      Temps:          0       0       0       0       0
  7513 ;;      Totals:         2       0       0       0       0
  7514 ;;Total ram usage:        2 bytes
  7515 ;; Hardware stack levels used:    1
  7516 ;; This function calls:
  7517 ;;		Nothing
  7518 ;; This function is called by:
  7519 ;;		_pulse
  7520 ;;		_Gate_Siren
  7521 ;;		_Generator_run
  7522 ;;		_trans
  7523 ;;		_tran
  7524 ;;		_gsm
  7525 ;;		_adc
  7526 ;;		_main
  7527 ;; This function uses a non-reentrant model
  7528 ;;
  7529                           psect	text624
  7530                           	file	"D:\Embedded\pic\code\lcd.h"
  7531                           	line	6
  7532                           	global	__size_of_delay
  7533  0014                     	__size_of_delay	equ	__end_of_delay-_delay
  7534                           	
  7535  09E0                     _delay:	
  7536                           	opt	stack 5
  7537                           ; Regs used in _delay: [wreg]
  7538                           	line	7
  7539                           	
  7540  09E0                     l3161:	
  7541                           ;lcd.h: 7: while(ms--);
  7542  09E0  29E2               	goto	l3163
  7543                           	
  7544  09E1                     l992:	
  7545  09E1  29E2               	goto	l3163
  7546                           	
  7547  09E2                     l991:	
  7548                           	
  7549  09E2                     l3163:	
  7550  09E2  3001               	movlw	low(01h)
  7551  09E3  02F0               	subwf	(delay@ms),f
  7552  09E4  3000               	movlw	high(01h)
  7553  09E5  1C03               	skipc
  7554  09E6  03F1               	decf	(delay@ms+1),f
  7555  09E7  02F1               	subwf	(delay@ms+1),f
  7556  09E8  30FF               	movlw	high(0FFFFh)
  7557  09E9  0671               	xorwf	((delay@ms+1)),w
  7558  09EA  1D03               	skipz
  7559  09EB  29EE               	goto	u2655
  7560  09EC  30FF               	movlw	low(0FFFFh)
  7561  09ED  0670               	xorwf	((delay@ms)),w
  7562  09EE                     u2655:
  7563                           
  7564  09EE  1D03               	skipz
  7565  09EF  29F1               	goto	u2651
  7566  09F0  29F2               	goto	u2650
  7567  09F1                     u2651:
  7568  09F1  29E2               	goto	l3163
  7569  09F2                     u2650:
  7570  09F2  29F3               	goto	l994
  7571                           	
  7572  09F3                     l993:	
  7573                           	line	8
  7574                           	
  7575  09F3                     l994:	
  7576  09F3  0008               	return
  7577                           	opt stack 0
  7578                           GLOBAL	__end_of_delay
  7579  09F4                     	__end_of_delay:
  7580 ;; =============== function _delay ends ============
  7581                           
  7582                           	signat	_delay,4216
  7583                           psect	text625,local,class=CODE,delta=2
  7584                           global __ptext625
  7585  0000                     __ptext625:
  7586                           	global	btemp
  7587  007E                     	btemp set 07Eh
  7588                           
  7589                           	DABS	1,126,2	;btemp
  7590                           	global	wtemp0
  7591  007E                     	wtemp0 set btemp


HI-TECH Software PICC Macro Assembler V9.81 build 7503 
Symbol Table                                                                                   Thu Jul 14 04:00:30 2022

                     _i 006E                       pc 0002      __size_of_I2C_Slave 0016      __size_of_I2C_Start 0009  
                    _BF 04A0                      _RD 0C60                      _WR 0C61            ___awdiv@sign 0076  
                    fsr 0004                     l991 09E2                     l992 09E1                     l993 09F3  
                   l994 09F3                     _GIE 005F                     l997 0A37                     _RA0 0028  
                   _RA1 0029                     _RA2 002A                     _RB1 0031                     _RA3 002B  
                   _RC0 0038                     _RB2 0032                     _RA4 002C                     _RC1 0039  
                   _RB3 0033                     _RC2 003A                     _RC5 003D                     _PEN 048A  
                   _SEN 0488                     _SMP 04A7                     _adc 0271                     _gsm 0D89  
                   _new 09D3                     fsr0 0004                     indf 0000            ___awmod@sign 0076  
  __size_of_I2C_Restart 0009                    ?_adc 0070                    l1000 0AF2                    l1003 09B9  
                  l1004 09B9                    l1012 09D2                    l1005 09BF                    l1021 000E  
                  l1006 09C0                    l1110 0A39                    l1111 0A41                    l1015 0A12  
                  l1024 0A62                    l1112 0A56                    l1016 0A12                    l1032 0B7C  
                  l1025 0A66                    l1009 09C9                    l1017 0A19                    l1041 008F  
                  l1033 0B5A                    l1026 0A67                    l1018 0A1E                    l1034 0B8D  
                  l1027 0A67                    l1131 0AF4                    l1043 005B                    l1035 0B8D  
                  l1051 0208                    l1028 0A6C                    l1132 0AF5                    l1060 0B3C  
                  l1052 0256                    l1029 0A79                    l1133 0AF5                    l1045 002A  
                  l1061 0B58                    l1053 0270                    l1134 0AFC                    l1062 0B58  
                  l1038 0F11                    l1135 0B10                    l1047 0043                    l1071 09DF  
                  l1136 0B22                    l1048 008F                    l1056 0B47                    l1137 0B23  
                  l1057 0B25                    l1065 09FA                    l1081 02E0                    l1138 0B23  
                  l1058 0B38                    l1066 09FA                    l1250 0FB2                    l1074 0E33  
                  l1082 052C                    l1090 076B                    l1059 0B38                    l1067 09FE  
                  l1251 0FB7                    l1075 0DE8                    l1083 052B                    l1091 0790  
                  l1260 0D38                    l1068 0A08                    l1252 0FCC                    l1076 0DF9  
                  l1084 0531                    l1092 07D3                    l1261 0D4A                    l1253 0FE3  
                  l1245 0F2D                    l1077 0E0A                    l1085 0531                    l1093 07F0  
                  l1262 0D6F                    l1246 0FFF                    l1078 0E33                    l1094 07FB  
                  l1263 0D5B                    l1247 0F46                    l1095 07FC                    l1264 0D68  
                  l1256 0D00                    l1360 0BC1                    l1248 0F86                    l1096 07FD  
                  l1088 05A7                    l3201 0A41                    l1265 0D5C                    l1257 0D88  
                  l1361 0BC2                    l1249 0F9B                    l1097 07FD                    l4001 0749  
                  l1089 0744                    l1266 0D6E                    l1258 0D4B                    l1290 0C28  
                  l1362 0BD3                    l3203 0A56                    l1267 0D7F                    l1259 0D37  
                  l1291 0C1C                    l1363 0BE1                    l1355 0B9C                    l1283 0AAB  
                  l4011 0763                    l4003 074F                    l1292 0C2D                    l1364 0BEC  
                  l1356 0BA6                    l1284 0AC4                    l3301 0CDD                    l1293 0C2E  
                  l1365 0BF3                    l1357 0BE2                    l4013 076A                    l4021 0790  
                  l4005 0755                    l1294 0C47                    l1358 0BBC                    l3303 0CE1  
                  l1295 0C55                    l1287 0C02                    l1359 0BB0                    l4031 07AF  
                  l4023 0795                    l4015 076E                    l4007 075A                    l1296 0C60  
                  l1288 0C10                    l3161 09E0                    l1481 0C74                    l1297 0C67  
                  l1289 0C56                    l4033 07B5                    l4041 07D3                    l4025 079B  
                  l4017 0785                    l4009 0760                    l1490 0CB0                    l1482 0CE2  
                  l3163 09E2                    l3171 0A6C                    l1491 0CBF                    l1483 0C8A  
                  l3411 0C06                    l4051 07F4                    l4043 07D9                    l4035 07BB  
                  l4027 07A4                    l4019 0789                    l1492 0CC9                    l1484 0C7D  
                  l3165 09B8                    l3173 0A72                    l3181 0AFC                    l1493 0CE2  
                  l1485 0C91                    l3421 0C1C                    l3413 0C0B                    l3405 0BF4  
                  l4045 07E0                    l4037 07C3                    l4029 07AA                    l1486 0CA8  
                  l3175 0A73                    l3167 0A57                    l3191 0B14                    l3183 0B02  
                  l1487 0C92                    l1479 0C7C                    l3351 0CF6                    l3431 0C45  
                  l3423 0C23                    l3415 0C10                    l3407 0BF9                    l4047 07E9  
                  l4039 07C9                    l1488 0CAF                    l3177 0A76                    l3169 0A5E  
                  l3193 0B18                    l3185 0B08                    l1489 0CBB                    l3281 0C7B  
                  l3361 0D19                    l3353 0CFF                    l3441 0C60                    l3433 0C47  
                  l3425 0C28                    l3417 0C12                    l3409 0C02                    l3601 0F74  
                  l4049 07F0                    l3179 0A79                    l3195 0B19                    l3187 0B0B  
                  l3291 0CA0                    l3283 0C7D                    l3275 0C68                    l3371 0D36  
                  l3363 0D20                    l3355 0D00                    l3443 0C67                    l3435 0C4E  
                  l3427 0C2E                    l3419 0C18                    l3451 0BA0                    l3531 09C1  
                  l3611 0F8A                    l3603 0F75                    l3197 0B1A                    l3189 0B0F  
                  l3293 0CB0                    l3285 0C8A                    l3277 0C6C                    l3381 0D5C  
                  l3373 0D38                    l3365 0D22                    l3357 0D12                    l3349 0CE3  
                  l3429 0C3F                    l3437 0C56                    l3461 0BBC                    l3453 0BA6  
                  l3445 0B8E                    l3525 0A1F                    l3533 09C4                    l3541 0A0D  
                  l3621 0FB7                    l3613 0F9B                    l3605 0F7B                    l3701 0E2C  
                  l3199 0B20                    l3295 0CBB                    l3287 0C92                    l3279 0C74  
                  l3391 0D88                    l3383 0D68                    l3367 0D26                    l3375 0D4B  
                  l3359 0D13                    l3439 0C5A                    l3463 0BC2                    l3455 0BAC  
                  l3471 0BE2                    l3447 0B93                    l3527 0A22                    l3535 09CA  
                  l3543 0A19                    l3551 001A                    l3631 0FE3                    l3623 0FBB  
                  l3615 0FA3                    l3607 0F81                    l3711 0E85                    l3703 0E35  
                  l3297 0CC3                    l3289 0C96                    l3377 0D51                    l3385 0D6F  
                  l3369 0D2D                    l3473 0BE6                    l3465 0BCC                    l3457 0BB0  
                  l3449 0B9C                    l3529 0A2B                    l3537 09CD                    l3545 0006  
                  l3561 0043                    l3553 0022                    l3633 0FFF                    l3625 0FCC  
                  l3617 0FAB                    l3609 0F86                    l3641 0AC4                    l3721 0EFB  
                  l3713 0E96                    l3705 0E46                    l3801 0271                    l3299 0CCB  
                  l3387 0D73                    l3379 0D5A                    l3475 0BEC                    l3467 0BD3  
                  l3459 0BB7                    l3539 0A0A                    l3547 0009                    l3563 004C  
                  l3555 002A                    l3571 0B24                    l3627 0FD4                    l3619 0FB2  
                  l3635 0A9D                    l3651 0AED                    l3643 0AC5                    l3715 0EB5  
                  l3707 0E4F                    l3731 00DA                    l3723 0090                    l3811 02B9  
                  l3803 0279                    l3389 0D7F                    l3477 0BF3                    l3469 0BDA  
                  l3565 0054                    l3557 0033                    l3549 0010                    l3573 0B25  
                  l3581 09F5                    l3629 0FDC                    l3637 0AA2                    l3645 0AD9  
                  l3653 09D3                    l3661 0B7C                    l3717 0ECC                    l3709 0E6E  
                  l3741 0148                    l3733 00F1                    l3725 00A1                    l3901 051E  
                  l3821 02F1                    l3813 02CC                    l3805 028A                    l3567 005E  
                  l3559 003B                    l3575 0B31                    l3583 09FF                    l3591 0F2D  
                  l3639 0AAB                    l3647 0ADB                    l3655 0B59                    l3671 0DB2  
                  l3663 0D89                    l3719 0EDD                    l3751 0193                    l3743 015C  
                  l3735 0108                    l3727 00AA                    l3903 0527                    l3831 0326  
                  l3823 02FC                    l3807 0293                    l3815 02E0                    l3911 0539  
                  l3569 008B                    l3577 0B3D                    l3593 0F3E                    l3585 0F12  
                  l3649 0AE0                    l3657 0B5A                    l3681 0DDE                    l3673 0DB7  
                  l3665 0D92                    l3761 01B1                    l3753 0199                    l3745 0170  
                  l3737 011F                    l3729 00C3                    l3841 03B7                    l3833 034C  
                  l3905 052C                    l3825 030B                    l3817 02E4                    l3809 02A6  
                  l3921 054F                    l3913 0540                    l3579 0B47                    l3595 0F45  
                  l3587 0F25                    l3659 0B75                    l3691 0E0A                    l3683 0DE8  
                  l3675 0DC9                    l3667 0D9B                    l3771 01E6                    l3763 01C2  
                  l3755 019D                    l3747 0184                    l3739 0136                    l3851 0416  
                  l3843 03CE                    l3835 0372                    l3827 0318                    l3819 02E8  
                  l3931 0572                    l3923 0553                    l3915 0544                    l3907 0532  
                  l3597 0F46                    l3589 0F2C                    l3693 0E0F                    l3685 0DEF  
                  l3677 0DCE                    l3669 0DA0                    l3781 0211                    l3773 01EF  
                  l3765 01CB                    l3757 01A0                    l3749 018D                    l3861 0475  
                  l3853 042A                    l3845 03E5                    l3837 0389                    l3829 031E  
                  l3941 05B2                    l3933 0585                    l3925 0557                    l3917 054B  
                  l3909 0536                    l3599 0F73                    l3695 0E18                    l3687 0DF9  
                  l3679 0DD7                    l3791 023A                    l3783 0219                    l3775 01F8  
                  l3767 01D4                    l3759 01A1                    l3871 0497                    l3863 0478  
                  l3855 043E                    l3847 03FC                    l3839 03A0                    l3951 0606  
                  l3943 05B9                    l3935 0598                    l3927 055B                    l3919 054C  
                  ?_gsm 0074                    l3697 0E1E                    l3689 0E00                    l3793 0243  
                  l3785 021F                    l3777 0201                    l3769 01DD                    l3881 04C4  
                  l3873 04A0                    l3865 047C                    l3857 0452                    l3849 040D  
                  l3961 066E                    l3953 061D                    l3945 05C1                    l3937 05A7  
                  l3929 055F                    l3699 0E23                    l3795 024C                    l3787 0228  
                  l3779 0208                    l3891 04F1                    l3883 04CD                    l3875 04A9  
                  l3867 0485                    l3859 0466                    l3971 06BA                    l3963 0677  
                  l3955 0634                    l3947 05D8                    l3939 05AC                    l3789 0231  
                  l3797 0256                    l3893 04FA                    l3885 04D6                    l3877 04B2  
                  l3869 048E                    l3981 0702                    l3973 06CE                    l3965 068A  
                  l3957 064B                    l3949 05EF                    l3799 0266                    l3895 0503  
                  l3887 04DF                    l3879 04BB                    l3991 0727                    l3983 0703  
                  l3975 06E2                    l3967 0693                    l3959 065B                    l3897 050C  
                  l3889 04E8                    l3993 0730                    l3985 070C                    l3977 06F6  
                  l3969 06A6                    ?_new 0070                    l3899 0515                    l3995 0739  
                  l3987 0715                    l3979 06FF                    l3997 073F                    l3989 071E  
                  l3999 0744                    STR_1 08E9                    STR_2 08F2                    STR_3 0908  
                  STR_4 08B2                    STR_5 090D                    STR_6 08DF                    STR_7 089A  
                  STR_8 0800                    STR_9 086F                    u3000 0C90                    u3001 0C8F  
                  u3020 0CAE                    u3021 0CAD                    u3015 0CA1                    u3040 0CBF  
                  u4000 05B2                    u3041 0CBE                    u4001 05B1                    u3050 0CC3  
                  u3210 0D49                    u4010 05B9                    u3051 0CC2                    u3035 0CB3  
                  u3211 0D48                    u4011 05B8                    u3060 0CD4                    u3220 0D51  
                  u4020 0769                    u3221 0D50                    u3205 0D39                    u4021 0768  
                  u3070 0CE1                    u3310 0C2C                    u4030 078F                    u3311 0C2B  
                  u4031 078E                    u3240 0D6D                    u3160 0CF6                    u4040 07B5  
                  u3065 0CD0                    u3241 0D6C                    u3161 0CF5                    u3305 0C1D  
                  u4041 07B4                    u3250 0D73                    u3170 0D0B                    u3330 0C3F  
                  u3410 0BC0                    u4050 07BB                    u3235 0D5E                    u3331 0C3E  
                  u3411 0BBF                    u4051 07BA                    u2700 0B0F                    u3180 0D26  
                  u3420 0BCC                    u4060 07C3                    u2701 0B0E                    u3181 0D25  
                  u3325 0C2F                    u3421 0BCB                    u3405 0BB1                    u4061 07C2  
                  u2710 0B20                    u3190 0D2D                    u3350 0C54                    u3270 0BF9  
                  u4070 07D9                    u2711 0B1F                    u3191 0D2C                    u3175 0D07  
                  u3351 0C53                    u3335 0C3B                    u3271 0BF8                    u4071 07D8  
                  u2720 0A40                    u3360 0C5A                    u3280 0C06                    u3440 0BE0  
                  u3520 0A18                    u3600 0054                    u4080 07E0                    u2721 0A3F  
                  u3345 0C48                    u3281 0C05                    u3441 0BDF                    u3425 0BC8  
                  u3521 0A17                    u3601 0053                    u4081 07DF                    u2650 09F2  
                  u3290 0C18                    u3450 0BE6                    u3370 0B93                    u3610 005B  
                  u3530 001A                    u4090 07F4                    u2651 09F1                    u3291 0C17  
                  u3435 0BD4                    u3371 0B92                    u3611 005A                    u3531 0019  
                  u4091 07F3                    u2660 09BF                    u3380 0BA0                    u3540 0022  
                  u3620 0B3C                    u2661 09BE                    u3381 0B9F                    u3541 0021  
                  u3621 0B3B                    u3701 0F93                    u2670 0A5E                    u3390 0BAC  
                  u3550 0029                    u3630 0B57                    u3702 0F9A                    u2655 09EE  
                  u2671 0A5D                    u3391 0BAB                    u3551 0028                    u3631 0B56  
                  u2680 0A6B                    u3560 0033                    u3640 09FE                    u3800 0ACC  
                  u2681 0A6A                    u3561 0032                    u3641 09FD                    u3801 0AC8  
                  u2690 0AFB                    u3570 003B                    u3730 0FB1                    u3650 0F25  
                  u2691 0AFA                    u3571 003A                    u3731 0FB0                    u3715 0F9C  
                  u3651 0F24                    u3580 0042                    u3740 0FBB                    u3660 0F3E  
                  u3820 0AD6                    u3581 0041                    u3741 0FBA                    u3725 0FA4  
                  u3661 0F3D                    u3821 0AD2                    u3590 004C                    u3670 0F56  
                  u3814 0ACF                    u3591 004B                    u3751 0FC4                    u3752 0FCB  
                  u3680 0F68                    u3905 0E5E                    u2970 0C6C                    u3690 0F8A  
                  u3834 0AD9                    u3850 0B8C                    u3930 0193                    u3691 0F89  
                  u3675 0F52                    u3851 0B8B                    u3915 0EA5                    u3931 0192  
                  u2980 0C73                    u3780 0FE2                    u3860 0D92                    u3940 0199  
                  _RCEN 048B                    u2981 0C72                    u3781 0FE1                    u3765 0FCD  
                  u3685 0F64                    u3845 0AE3                    u3861 0D91                    u3925 0EEB  
                  u3941 0198                    u3790 0AA2                    u3870 0DDE                    u3950 0211  
                  u3775 0FD5                    u3791 0AA1                    u3871 0DDD                    u3951 0210  
                  u3880 0DEF                    u3960 0219                    u3881 0DEE                    u3961 0218  
                  u3890 0E00                    u3970 0279                    u2995 0C82                    u3891 0DFF  
                  u3971 0278                    u3980 0318                    u3981 0317                    u3990 0475  
                  u3991 0474                    u3985 0314                    u3995 0471                    _RSEN 0489  
                  _WREN 0C62                    _TXIF 0064          ??_eeprom_write 0071                    adc@u 004D  
                  _main 0532                    _hold 09B8            ___ftpack@arg 0070                    _read 00A6  
          ___ftpack@exp 0073        __end_of_I2C_Read 0A7A                    _tran 09F4                    btemp 007E  
                  _stop 006F        __end_of_I2C_Stop 09D3                    start 0000            ___ftmul@cntr 0038  
          ___ftmul@sign 0039              _Gate_Siren 000F            ___fttol@exp1 0029                   ??_adc 003A  
                 ??_gsm 0076            ___fttol@lval 0025                   ??_new 0073                   ?_main 0070  
                 ?_hold 0070                   _ACKEN 048C                   _ACKDT 048D         __end_of___awdiv 0C68  
                 _EEADR 010D                   STR_10 083D                   STR_11 08FB                   STR_12 08FB  
                 STR_13 08D1                   STR_14 08C2                   STR_15 0902         __end_of___awmod 0BF4  
                 _CARRY 0018                   ?_tran 0070                   _ANSEL 0188         __end_of___ftmul 1000  
       ___awdiv@divisor 0070         __end_of___fttol 0D89         ___awdiv@counter 0075                   _RCSTA 0018  
                 _SPBRG 0099                   _PORTA 0005                   _PORTB 0006                   _PORTC 0007  
                 _TRISA 0085                   _TRISB 0086                   _TRISC 0087                   _SSPIF 0063  
                 _SSPOV 00A6                   _TXREG 0019                   _TXSTA 0098         __end_of_lcd_cmd 0AF3  
                 _flag1 0066                   _flag2 00A2           ___awtoft@sign 007D                   _delay 09E0  
         ___ftpack@sign 0074                   _pulse 0A1F                   _trans 0B24       __end_of_I2C_Slave 0A1F  
                 _store 00A4       __end_of_I2C_Start 09CA                   pclath 000A                   status 0003  
                 wtemp0 007E            __end_of_main 0800            __end_of_hold 09C1            __end_of_tran 0A09  
                ??_main 0057                  ??_hold 0070           ___fttol@sign1 0024                  ??_tran 0072  
             I2C_Read@i 0070                  ?_delay 0070                  _ADCON0 001F                  _ADCON1 009F  
                _ADRESH 001E                  _ADRESL 009E                  _EEDATA 010C                  _EECON1 018C  
                _EECON2 018D        ___awdiv@dividend 0072        __end_of___awtoft 0AC5                  ?_trans 0072  
                ?_pulse 0070        __end_of___ftpack 0CE3                  _ANSELH 0189                  _SSPCON 0014  
                _SSPBUF 0013    __size_of_eeprom_read 001F                  adc@low 0043             ?_Gate_Siren 0070  
             ??___awdiv 0074               ??___awmod 0074               ??___ftmul 0030               ??___fttol 0020  
      ___awdiv@quotient 0077         ___awmod@divisor 0070                  _retain 006A    __end_of_eeprom_write 0B24  
       ___awmod@counter 0075               ??_lcd_cmd 0077                  gsm@cmd 0074                  _string 0B59  
 ___ftmul@f3_as_product 0035               ?_I2C_Read 0070               ?_I2C_Stop 0070         eeprom_read@addr 0071  
            ___awtoft@c 0078   __end_of_Generator_run 0271              ___ftmul@f1 002A              ___ftmul@f2 002D  
            ___fttol@f1 0078          __pcstackCOMMON 0070            __pidataBANK0 0005           __end_of_delay 09F4  
         __end_of_pulse 0A38           __end_of_trans 0B59              ??_I2C_Read 0072              ??_I2C_Stop 0070  
     eeprom_write@value 0070                 ??_delay 0072                 ??_trans 0074                 ??_pulse 0072  
   __size_of_Gate_Siren 0081              __pbssBANK0 0066              __pbssBANK1 00A0              __pmaintext 0532  
               _ACKSTAT 048E               ?___awtoft 0078               ?___ftpack 0070                 ?_string 0078  
         ??_I2C_Restart 0070              _conversion 0E34               _I2C_Slave 0A09               _I2C_Start 09C1  
 __size_of_eeprom_write 0031                 ___awdiv 0BF4                 ___awmod 0B8E                 adc@high 0041  
               ___ftmul 0F12                 ___fttol 0CE3                 adc@temp 003C              ??___awtoft 007B  
            ??___ftpack 0075                 _lcd_cmd 0AC5         __size_of_string 0035            __size_of_adc 02C1  
          __size_of_gsm 00AB            __size_of_new 000D                 delay@ms 0070        ___awmod@dividend 0072  
        adc@sensorvalue 004F     __end_of_I2C_Restart 000F    end_of_initialization 0A99            _eeprom_write 0AF3  
            ?_I2C_Slave 0070              ?_I2C_Start 0070            ??_Gate_Siren 0072            __pstringtext 0800  
               string@p 0078       __size_of_I2C_Read 0023       __size_of_I2C_Stop 0009              main@Pre_a1 005A  
            main@Pre_b1 0062              main@Pre_c1 005C              main@Pre_d1 0064              main@Pre_e1 005E  
            main@Pre_f1 0060      __end_of_Gate_Siren 0090             ?_conversion 0070           ??_eeprom_read 0070  
           ___ftmul@exp 0034               _Generator 00A0             _I2C_Restart 0006          __end_of_string 0B8E  
   start_initialization 0A7A             __end_of_adc 0532             __end_of_gsm 0E34             __end_of_new 09E0  
           ??_I2C_Slave 0070             ??_I2C_Start 0070     __end_of_eeprom_read 0A57             __pdataBANK0 006F  
              ??_string 007A     __size_of_conversion 00DE       __size_of___awtoft 0028       __size_of___ftpack 007B  
         __pcstackBANK0 0020  __size_of_Generator_run 01E1               adc@temp_a 0045               adc@temp_b 0051  
             adc@temp_c 0047               adc@temp_d 0053               adc@temp_e 0049               adc@temp_f 004B  
      eeprom_write@addr 0072          adc@Final_value 0055           I2C_Read@read1 0073                ?___awdiv 0070  
             __ptext600 0090               __ptext601 0E34               __ptext610 000F               __ptext602 0D89  
             __ptext611 0006               __ptext603 0B59                ?___awmod 0070               __ptext620 0A38  
             __ptext612 0A09               __ptext604 09D3               __ptext621 0AF3               __ptext613 09CA  
             __ptext605 0AC5               __ptext622 0A57               __ptext614 09C1               __ptext606 0A9D  
             __ptext623 09B8               __ptext615 0A1F               __ptext607 0F12               __ptext624 09E0  
             __ptext616 0B8E               __ptext608 09F4               __ptext625 0000               __ptext617 0BF4  
             __ptext609 0B24               __ptext618 0CE3               __ptext619 0C68               __ptext599 0271  
              ?___ftmul 002A                ?___fttol 0078      Generator_run@Gen_a 0020      Generator_run@Gen_b 0028  
    Generator_run@Gen_c 0022      Generator_run@Gen_d 002A      Generator_run@Gen_e 0024      Generator_run@Gen_f 0026  
             __pstrings 0910                ?_lcd_cmd 0072         Gate_Siren@read1 0072                _I2C_Read 0A57  
              _I2C_Stop 09CA          __size_of_delay 0014             _flag_supply 0068          __size_of_pulse 0019  
        __size_of_trans 0035             _eeprom_read 0A38           I2C_Slave@data 0070           _Generator_run 0090  
           __stringbase 0922              trans@data1 0072            ??_conversion 007B          ?_Generator_run 0070  
      __size_of___awdiv 0074        __size_of___awmod 0066        __size_of___ftmul 00EE        __size_of___fttol 00A6  
              ___awtoft 0A9D                ___ftpack 0C68                adc@vari1 003F        __size_of_lcd_cmd 002E  
          ?_I2C_Restart 0070      __end_of_conversion 0F12           __size_of_main 02CE           __size_of_hold 0009  
         __size_of_tran 0015                _variable 006C               tran@data2 0072                lcd_cmd@a 0072  
              lcd_cmd@b 0074                lcd_cmd@c 0076          conversion@disp 007D         ??_Generator_run 007B  
             stringcode 091A                stringtab 0910           ?_eeprom_write 0070            ?_eeprom_read 0070  
