opt subtitle "HI-TECH Software Omniscient Code Generator (Lite mode) build 7503"

opt pagewidth 120

	opt lm

	processor	16F887
clrc	macro
	bcf	3,0
	endm
clrz	macro
	bcf	3,2
	endm
setc	macro
	bsf	3,0
	endm
setz	macro
	bsf	3,2
	endm
skipc	macro
	btfss	3,0
	endm
skipz	macro
	btfss	3,2
	endm
skipnc	macro
	btfsc	3,0
	endm
skipnz	macro
	btfsc	3,2
	endm
indf	equ	0
indf0	equ	0
pc	equ	2
pcl	equ	2
status	equ	3
fsr	equ	4
fsr0	equ	4
c	equ	1
z	equ	0
pclath	equ	10
	FNCALL	_main,_trans
	FNCALL	_main,_new
	FNCALL	_main,_delay
	FNCALL	_main,_timer
	FNCALL	_main,_tran
	FNCALL	_new,_tran
	FNCALL	_trans,_delay
	FNCALL	_tran,_delay
	FNROOT	_main
	global	_count
	global	_PORTC
psect	text90,local,class=CODE,delta=2
global __ptext90
__ptext90:
_PORTC	set	7
	global	_RCSTA
_RCSTA	set	24
	global	_TXREG
_TXREG	set	25
	global	_RC0
_RC0	set	56
	global	_RC1
_RC1	set	57
	global	_T0IF
_T0IF	set	90
	global	_TXIF
_TXIF	set	100
	global	_OPTION_REG
_OPTION_REG	set	129
	global	_SPBRG
_SPBRG	set	153
	global	_TRISC
_TRISC	set	135
	global	_TXSTA
_TXSTA	set	152
psect	strings,class=STRING,delta=2
global __pstrings
__pstrings:
;	global	stringdir,stringtab,__stringbase
stringtab:
;	String table - string pointers are 1 byte each
stringcode:stringdir:
movlw high(stringdir)
movwf pclath
movf fsr,w
incf fsr
	addwf pc
__stringbase:
	retlw	0
psect	strings
	
STR_7:	
	retlw	68	;'D'
	retlw	101	;'e'
	retlw	97	;'a'
	retlw	114	;'r'
	retlw	32	;' '
	retlw	74	;'J'
	retlw	97	;'a'
	retlw	121	;'y'
	retlw	97	;'a'
	retlw	112	;'p'
	retlw	114	;'r'
	retlw	97	;'a'
	retlw	107	;'k'
	retlw	97	;'a'
	retlw	115	;'s'
	retlw	104	;'h'
	retlw	44	;','
	retlw	32	;' '
	retlw	121	;'y'
	retlw	111	;'o'
	retlw	117	;'u'
	retlw	114	;'r'
	retlw	32	;' '
	retlw	114	;'r'
	retlw	101	;'e'
	retlw	115	;'s'
	retlw	117	;'u'
	retlw	109	;'m'
	retlw	101	;'e'
	retlw	32	;' '
	retlw	104	;'h'
	retlw	97	;'a'
	retlw	115	;'s'
	retlw	32	;' '
	retlw	98	;'b'
	retlw	101	;'e'
	retlw	101	;'e'
	retlw	110	;'n'
	retlw	32	;' '
	retlw	115	;'s'
	retlw	104	;'h'
	retlw	111	;'o'
	retlw	114	;'r'
	retlw	116	;'t'
	retlw	108	;'l'
	retlw	105	;'i'
	retlw	115	;'s'
	retlw	116	;'t'
	retlw	101	;'e'
	retlw	100	;'d'
	retlw	32	;' '
	retlw	102	;'f'
	retlw	111	;'o'
	retlw	114	;'r'
	retlw	32	;' '
	retlw	102	;'f'
	retlw	105	;'i'
	retlw	110	;'n'
	retlw	97	;'a'
	retlw	108	;'l'
	retlw	32	;' '
	retlw	114	;'r'
	retlw	111	;'o'
	retlw	117	;'u'
	retlw	110	;'n'
	retlw	100	;'d'
	retlw	32	;' '
	retlw	102	;'f'
	retlw	111	;'o'
	retlw	114	;'r'
	retlw	32	;' '
	retlw	116	;'t'
	retlw	104	;'h'
	retlw	101	;'e'
	retlw	32	;' '
	retlw	112	;'p'
	retlw	111	;'o'
	retlw	115	;'s'
	retlw	116	;'t'
	retlw	32	;' '
	retlw	111	;'o'
	retlw	102	;'f'
	retlw	32	;' '
	retlw	69	;'E'
	retlw	77	;'M'
	retlw	66	;'B'
	retlw	69	;'E'
	retlw	68	;'D'
	retlw	68	;'D'
	retlw	69	;'E'
	retlw	68	;'D'
	retlw	32	;' '
	retlw	68	;'D'
	retlw	69	;'E'
	retlw	86	;'V'
	retlw	69	;'E'
	retlw	76	;'L'
	retlw	79	;'O'
	retlw	80	;'P'
	retlw	69	;'E'
	retlw	82	;'R'
	retlw	32	;' '
	retlw	97	;'a'
	retlw	116	;'t'
	retlw	32	;' '
	retlw	82	;'R'
	retlw	111	;'o'
	retlw	98	;'b'
	retlw	101	;'e'
	retlw	114	;'r'
	retlw	116	;'t'
	retlw	32	;' '
	retlw	66	;'B'
	retlw	79	;'O'
	retlw	83	;'S'
	retlw	67	;'C'
	retlw	72	;'H'
	retlw	46	;'.'
	retlw	32	;' '
	retlw	67	;'C'
	retlw	97	;'a'
	retlw	108	;'l'
	retlw	108	;'l'
	retlw	32	;' '
	retlw	57	;'9'
	retlw	53	;'5'
	retlw	54	;'6'
	retlw	54	;'6'
	retlw	53	;'5'
	retlw	49	;'1'
	retlw	49	;'1'
	retlw	52	;'4'
	retlw	56	;'8'
	retlw	54	;'6'
	retlw	46	;'.'
	retlw	0
psect	strings
	
STR_6:	
	retlw	65	;'A'
	retlw	84	;'T'
	retlw	43	;'+'
	retlw	67	;'C'
	retlw	77	;'M'
	retlw	71	;'G'
	retlw	83	;'S'
	retlw	61	;'='
	retlw	34	;'"'
	retlw	43	;'+'
	retlw	57	;'9'
	retlw	49	;'1'
	retlw	57	;'9'
	retlw	54	;'6'
	retlw	57	;'9'
	retlw	56	;'8'
	retlw	57	;'9'
	retlw	48	;'0'
	retlw	50	;'2'
	retlw	52	;'4'
	retlw	53	;'5'
	retlw	50	;'2'
	retlw	34	;'"'
	retlw	0
psect	strings
	
STR_2:	
	retlw	65	;'A'
	retlw	84	;'T'
	retlw	68	;'D'
	retlw	43	;'+'
	retlw	57	;'9'
	retlw	49	;'1'
	retlw	56	;'8'
	retlw	50	;'2'
	retlw	50	;'2'
	retlw	48	;'0'
	retlw	50	;'2'
	retlw	55	;'7'
	retlw	54	;'6'
	retlw	49	;'1'
	retlw	56	;'8'
	retlw	49	;'1'
	retlw	59	;';'
	retlw	0
psect	strings
	
STR_5:	
	retlw	65	;'A'
	retlw	84	;'T'
	retlw	43	;'+'
	retlw	67	;'C'
	retlw	77	;'M'
	retlw	71	;'G'
	retlw	70	;'F'
	retlw	61	;'='
	retlw	49	;'1'
	retlw	0
psect	strings
	
STR_3:	
	retlw	65	;'A'
	retlw	84	;'T'
	retlw	72	;'H'
	retlw	0
psect	strings
	
STR_1:	
	retlw	65	;'A'
	retlw	84	;'T'
	retlw	0
psect	strings
STR_4	equ	STR_1+0
	file	"gsm_msg_call.as"
	line	#
psect cinit,class=CODE,delta=2
global start_initialization
start_initialization:

psect	bssCOMMON,class=COMMON,space=1
global __pbssCOMMON
__pbssCOMMON:
_count:
       ds      2

; Clear objects allocated to COMMON
psect cinit,class=CODE,delta=2
	clrf	((__pbssCOMMON)+0)&07Fh
	clrf	((__pbssCOMMON)+1)&07Fh
psect cinit,class=CODE,delta=2
global end_of_initialization

;End of C runtime variable initialization code

end_of_initialization:
clrf status
ljmp _main	;jump to C main() function
psect	cstackCOMMON,class=COMMON,space=1
global __pcstackCOMMON
__pcstackCOMMON:
	global	?_delay
?_delay:	; 0 bytes @ 0x0
	global	?_timer
?_timer:	; 0 bytes @ 0x0
	global	?_tran
?_tran:	; 0 bytes @ 0x0
	global	?_trans
?_trans:	; 0 bytes @ 0x0
	global	?_new
?_new:	; 0 bytes @ 0x0
	global	?_main
?_main:	; 0 bytes @ 0x0
	global	delay@ms
delay@ms:	; 2 bytes @ 0x0
	global	timer@sec
timer@sec:	; 2 bytes @ 0x0
	ds	2
	global	??_delay
??_delay:	; 0 bytes @ 0x2
	global	??_timer
??_timer:	; 0 bytes @ 0x2
	global	??_tran
??_tran:	; 0 bytes @ 0x2
	global	??_trans
??_trans:	; 0 bytes @ 0x2
	global	tran@data
tran@data:	; 1 bytes @ 0x2
	ds	1
	global	??_new
??_new:	; 0 bytes @ 0x3
	global	trans@data1
trans@data1:	; 1 bytes @ 0x3
	ds	1
	global	??_main
??_main:	; 0 bytes @ 0x4
;;Data sizes: Strings 195, constant 0, data 0, bss 2, persistent 0 stack 0
;;Auto spaces:   Size  Autos    Used
;; COMMON          14      4       6
;; BANK0           80      0       0
;; BANK1           80      0       0
;; BANK3           96      0       0
;; BANK2           96      0       0

;;
;; Pointer list with targets:

;; trans@data1	PTR unsigned char  size(1) Largest target is 136
;;		 -> STR_7(CODE[136]), STR_6(CODE[24]), STR_5(CODE[10]), STR_4(CODE[3]), 
;;		 -> STR_3(CODE[4]), STR_2(CODE[18]), STR_1(CODE[3]), 
;;


;;
;; Critical Paths under _main in COMMON
;;
;;   _main->_trans
;;   _new->_tran
;;   _trans->_delay
;;   _tran->_delay
;;
;; Critical Paths under _main in BANK0
;;
;;   None.
;;
;; Critical Paths under _main in BANK1
;;
;;   None.
;;
;; Critical Paths under _main in BANK3
;;
;;   None.
;;
;; Critical Paths under _main in BANK2
;;
;;   None.

;;
;;Main: autosize = 0, tempsize = 0, incstack = 0, save=0
;;

;;
;;Call Graph Tables:
;;
;; ---------------------------------------------------------------------------------
;; (Depth) Function   	        Calls       Base Space   Used Autos Params    Refs
;; ---------------------------------------------------------------------------------
;; (0) _main                                                 0     0      0     135
;;                              _trans
;;                                _new
;;                              _delay
;;                              _timer
;;                               _tran
;; ---------------------------------------------------------------------------------
;; (1) _new                                                  0     0      0      30
;;                               _tran
;; ---------------------------------------------------------------------------------
;; (1) _trans                                                2     2      0      45
;;                                              2 COMMON     2     2      0
;;                              _delay
;; ---------------------------------------------------------------------------------
;; (1) _tran                                                 1     1      0      30
;;                                              2 COMMON     1     1      0
;;                              _delay
;; ---------------------------------------------------------------------------------
;; (1) _timer                                                2     0      2      15
;;                                              0 COMMON     2     0      2
;; ---------------------------------------------------------------------------------
;; (2) _delay                                                2     0      2      15
;;                                              0 COMMON     2     0      2
;; ---------------------------------------------------------------------------------
;; Estimated maximum stack depth 2
;; ---------------------------------------------------------------------------------

;; Call Graph Graphs:

;; _main (ROOT)
;;   _trans
;;     _delay
;;   _new
;;     _tran
;;       _delay
;;   _delay
;;   _timer
;;   _tran
;;     _delay
;;

;; Address spaces:

;;Name               Size   Autos  Total    Cost      Usage
;;BITCOMMON            E      0       0       0        0.0%
;;EEDATA             100      0       0       0        0.0%
;;NULL                 0      0       0       0        0.0%
;;CODE                 0      0       0       0        0.0%
;;COMMON               E      4       6       1       42.9%
;;BITSFR0              0      0       0       1        0.0%
;;SFR0                 0      0       0       1        0.0%
;;BITSFR1              0      0       0       2        0.0%
;;SFR1                 0      0       0       2        0.0%
;;STACK                0      0       3       2        0.0%
;;ABS                  0      0       6       3        0.0%
;;BITBANK0            50      0       0       4        0.0%
;;BITSFR3              0      0       0       4        0.0%
;;SFR3                 0      0       0       4        0.0%
;;BANK0               50      0       0       5        0.0%
;;BITSFR2              0      0       0       5        0.0%
;;SFR2                 0      0       0       5        0.0%
;;BITBANK1            50      0       0       6        0.0%
;;BANK1               50      0       0       7        0.0%
;;BITBANK3            60      0       0       8        0.0%
;;BANK3               60      0       0       9        0.0%
;;BITBANK2            60      0       0      10        0.0%
;;BANK2               60      0       0      11        0.0%
;;DATA                 0      0       9      12        0.0%

	global	_main
psect	maintext,global,class=CODE,delta=2
global __pmaintext
__pmaintext:

;; *************** function _main *****************
;; Defined at:
;;		line 50 in file "D:\Embedded\pic\code\software\protocal\GSM\GSM_msg_call\gsm_msg_call.c"
;; Parameters:    Size  Location     Type
;;		None
;; Auto vars:     Size  Location     Type
;;		None
;; Return value:  Size  Location     Type
;;		None               void
;; Registers used:
;;		wreg, fsr0l, fsr0h, status,2, status,0, btemp+1, pclath, cstack
;; Tracked objects:
;;		On entry : 17F/0
;;		On exit  : 0/0
;;		Unchanged: 0/0
;; Data sizes:     COMMON   BANK0   BANK1   BANK3   BANK2
;;      Params:         0       0       0       0       0
;;      Locals:         0       0       0       0       0
;;      Temps:          0       0       0       0       0
;;      Totals:         0       0       0       0       0
;;Total ram usage:        0 bytes
;; Hardware stack levels required when called:    3
;; This function calls:
;;		_trans
;;		_new
;;		_delay
;;		_timer
;;		_tran
;; This function is called by:
;;		Startup code after reset
;; This function uses a non-reentrant model
;;
psect	maintext
	file	"D:\Embedded\pic\code\software\protocal\GSM\GSM_msg_call\gsm_msg_call.c"
	line	50
	global	__size_of_main
	__size_of_main	equ	__end_of_main-_main
	
_main:	
	opt	stack 5
; Regs used in _main: [wreg-fsr0h+status,2+status,0+btemp+1+pclath+cstack]
	line	51
	
l2241:	
;gsm_msg_call.c: 51: TRISC=0X83;
	movlw	(083h)
	bsf	status, 5	;RP0=1, select bank1
	bcf	status, 6	;RP1=0, select bank1
	movwf	(135)^080h	;volatile
	line	52
	
l2243:	
;gsm_msg_call.c: 52: PORTC=0X00;
	bcf	status, 5	;RP0=0, select bank0
	bcf	status, 6	;RP1=0, select bank0
	clrf	(7)	;volatile
	line	53
	
l2245:	
;gsm_msg_call.c: 53: TXSTA=0X26;
	movlw	(026h)
	bsf	status, 5	;RP0=1, select bank1
	bcf	status, 6	;RP1=0, select bank1
	movwf	(152)^080h	;volatile
	line	54
	
l2247:	
;gsm_msg_call.c: 54: RCSTA=0X90;
	movlw	(090h)
	bcf	status, 5	;RP0=0, select bank0
	bcf	status, 6	;RP1=0, select bank0
	movwf	(24)	;volatile
	line	55
	
l2249:	
;gsm_msg_call.c: 55: SPBRG=25;
	movlw	(019h)
	bsf	status, 5	;RP0=1, select bank1
	bcf	status, 6	;RP1=0, select bank1
	movwf	(153)^080h	;volatile
	line	56
	
l2251:	
;gsm_msg_call.c: 56: OPTION_REG=0X07;
	movlw	(07h)
	movwf	(129)^080h	;volatile
	goto	l2253
	line	57
;gsm_msg_call.c: 57: while(1)
	
l1059:	
	line	59
	
l2253:	
;gsm_msg_call.c: 58: {
;gsm_msg_call.c: 59: if(RC0==1)
	bcf	status, 5	;RP0=0, select bank0
	btfss	(56/8),(56)&7
	goto	u2211
	goto	u2210
u2211:
	goto	l1060
u2210:
	line	61
	
l2255:	
;gsm_msg_call.c: 60: {
;gsm_msg_call.c: 61: trans("AT");
	movlw	((STR_1-__stringbase))&0ffh
	fcall	_trans
	line	62
	
l2257:	
;gsm_msg_call.c: 62: new();
	fcall	_new
	line	63
	
l2259:	
;gsm_msg_call.c: 63: delay(10000);
	movlw	low(02710h)
	movwf	(?_delay)
	movlw	high(02710h)
	movwf	((?_delay))+1
	fcall	_delay
	line	64
;gsm_msg_call.c: 64: trans("ATD+918220276181;");
	movlw	((STR_2-__stringbase))&0ffh
	fcall	_trans
	line	65
	
l2261:	
;gsm_msg_call.c: 65: new();
	fcall	_new
	line	66
	
l2263:	
;gsm_msg_call.c: 66: delay(10000);
	movlw	low(02710h)
	movwf	(?_delay)
	movlw	high(02710h)
	movwf	((?_delay))+1
	fcall	_delay
	line	67
	
l2265:	
;gsm_msg_call.c: 67: timer(20);
	movlw	low(014h)
	movwf	(?_timer)
	movlw	high(014h)
	movwf	((?_timer))+1
	fcall	_timer
	line	68
	
l2267:	
;gsm_msg_call.c: 68: trans("ATH");
	movlw	((STR_3-__stringbase))&0ffh
	fcall	_trans
	line	69
	
l2269:	
;gsm_msg_call.c: 69: new();
	fcall	_new
	line	70
	
l2271:	
;gsm_msg_call.c: 70: delay(10000);
	movlw	low(02710h)
	movwf	(?_delay)
	movlw	high(02710h)
	movwf	((?_delay))+1
	fcall	_delay
	line	71
;gsm_msg_call.c: 71: while(RC0==1);
	goto	l1061
	
l1062:	
	
l1061:	
	bcf	status, 5	;RP0=0, select bank0
	bcf	status, 6	;RP1=0, select bank0
	btfsc	(56/8),(56)&7
	goto	u2221
	goto	u2220
u2221:
	goto	l1061
u2220:
	goto	l1060
	
l1063:	
	line	72
	
l1060:	
	line	73
;gsm_msg_call.c: 72: }
;gsm_msg_call.c: 73: if(RC1==1)
	btfss	(57/8),(57)&7
	goto	u2231
	goto	u2230
u2231:
	goto	l2253
u2230:
	line	75
	
l2273:	
;gsm_msg_call.c: 74: {
;gsm_msg_call.c: 75: trans("AT");
	movlw	((STR_4-__stringbase))&0ffh
	fcall	_trans
	line	76
	
l2275:	
;gsm_msg_call.c: 76: new();
	fcall	_new
	line	77
	
l2277:	
;gsm_msg_call.c: 77: delay(10000);
	movlw	low(02710h)
	movwf	(?_delay)
	movlw	high(02710h)
	movwf	((?_delay))+1
	fcall	_delay
	line	78
;gsm_msg_call.c: 78: trans("AT+CMGF=1");
	movlw	((STR_5-__stringbase))&0ffh
	fcall	_trans
	line	79
	
l2279:	
;gsm_msg_call.c: 79: new();
	fcall	_new
	line	80
	
l2281:	
;gsm_msg_call.c: 80: delay(10000);
	movlw	low(02710h)
	movwf	(?_delay)
	movlw	high(02710h)
	movwf	((?_delay))+1
	fcall	_delay
	line	81
;gsm_msg_call.c: 81: trans("AT+CMGS=\"+919698902452\"");
	movlw	((STR_6-__stringbase))&0ffh
	fcall	_trans
	line	82
	
l2283:	
;gsm_msg_call.c: 82: new();
	fcall	_new
	line	83
	
l2285:	
;gsm_msg_call.c: 83: delay(10000);
	movlw	low(02710h)
	movwf	(?_delay)
	movlw	high(02710h)
	movwf	((?_delay))+1
	fcall	_delay
	line	84
;gsm_msg_call.c: 84: trans("Dear Jayaprakash, your resume has been shortlisted for final round for the post of EMBEDDED DEVELOPER at Robert BOSCH. Call 9566511486.");
	movlw	((STR_7-__stringbase))&0ffh
	fcall	_trans
	line	85
	
l2287:	
;gsm_msg_call.c: 85: new();
	fcall	_new
	line	86
	
l2289:	
;gsm_msg_call.c: 86: delay(10000);
	movlw	low(02710h)
	movwf	(?_delay)
	movlw	high(02710h)
	movwf	((?_delay))+1
	fcall	_delay
	line	87
	
l2291:	
;gsm_msg_call.c: 87: tran(0X1A);
	movlw	(01Ah)
	fcall	_tran
	line	88
	
l2293:	
;gsm_msg_call.c: 88: new();
	fcall	_new
	line	89
	
l2295:	
;gsm_msg_call.c: 89: delay(10000);
	movlw	low(02710h)
	movwf	(?_delay)
	movlw	high(02710h)
	movwf	((?_delay))+1
	fcall	_delay
	line	90
;gsm_msg_call.c: 90: while(RC1==1);
	goto	l1065
	
l1066:	
	
l1065:	
	bcf	status, 5	;RP0=0, select bank0
	bcf	status, 6	;RP1=0, select bank0
	btfsc	(57/8),(57)&7
	goto	u2241
	goto	u2240
u2241:
	goto	l1065
u2240:
	goto	l2253
	
l1067:	
	goto	l2253
	line	91
	
l1064:	
	goto	l2253
	line	92
	
l1068:	
	line	57
	goto	l2253
	
l1069:	
	line	93
	
l1070:	
	global	start
	ljmp	start
	opt stack 0
GLOBAL	__end_of_main
	__end_of_main:
;; =============== function _main ends ============

	signat	_main,88
	global	_new
psect	text91,local,class=CODE,delta=2
global __ptext91
__ptext91:

;; *************** function _new *****************
;; Defined at:
;;		line 45 in file "D:\Embedded\pic\code\software\protocal\GSM\GSM_msg_call\gsm_msg_call.c"
;; Parameters:    Size  Location     Type
;;		None
;; Auto vars:     Size  Location     Type
;;		None
;; Return value:  Size  Location     Type
;;		None               void
;; Registers used:
;;		wreg, status,2, status,0, pclath, cstack
;; Tracked objects:
;;		On entry : 0/0
;;		On exit  : 0/0
;;		Unchanged: 0/0
;; Data sizes:     COMMON   BANK0   BANK1   BANK3   BANK2
;;      Params:         0       0       0       0       0
;;      Locals:         0       0       0       0       0
;;      Temps:          0       0       0       0       0
;;      Totals:         0       0       0       0       0
;;Total ram usage:        0 bytes
;; Hardware stack levels used:    1
;; Hardware stack levels required when called:    2
;; This function calls:
;;		_tran
;; This function is called by:
;;		_main
;; This function uses a non-reentrant model
;;
psect	text91
	file	"D:\Embedded\pic\code\software\protocal\GSM\GSM_msg_call\gsm_msg_call.c"
	line	45
	global	__size_of_new
	__size_of_new	equ	__end_of_new-_new
	
_new:	
	opt	stack 5
; Regs used in _new: [wreg+status,2+status,0+pclath+cstack]
	line	46
	
l2239:	
;gsm_msg_call.c: 46: tran(0X0D);
	movlw	(0Dh)
	fcall	_tran
	line	47
;gsm_msg_call.c: 47: tran(0X0A);
	movlw	(0Ah)
	fcall	_tran
	line	48
	
l1056:	
	return
	opt stack 0
GLOBAL	__end_of_new
	__end_of_new:
;; =============== function _new ends ============

	signat	_new,88
	global	_trans
psect	text92,local,class=CODE,delta=2
global __ptext92
__ptext92:

;; *************** function _trans *****************
;; Defined at:
;;		line 35 in file "D:\Embedded\pic\code\software\protocal\GSM\GSM_msg_call\gsm_msg_call.c"
;; Parameters:    Size  Location     Type
;;  data1           1    wreg     PTR unsigned char 
;;		 -> STR_7(136), STR_6(24), STR_5(10), STR_4(3), 
;;		 -> STR_3(4), STR_2(18), STR_1(3), 
;; Auto vars:     Size  Location     Type
;;  data1           1    3[COMMON] PTR unsigned char 
;;		 -> STR_7(136), STR_6(24), STR_5(10), STR_4(3), 
;;		 -> STR_3(4), STR_2(18), STR_1(3), 
;; Return value:  Size  Location     Type
;;		None               void
;; Registers used:
;;		wreg, fsr0l, fsr0h, status,2, status,0, pclath, cstack
;; Tracked objects:
;;		On entry : 0/0
;;		On exit  : 0/0
;;		Unchanged: 0/0
;; Data sizes:     COMMON   BANK0   BANK1   BANK3   BANK2
;;      Params:         0       0       0       0       0
;;      Locals:         1       0       0       0       0
;;      Temps:          1       0       0       0       0
;;      Totals:         2       0       0       0       0
;;Total ram usage:        2 bytes
;; Hardware stack levels used:    1
;; Hardware stack levels required when called:    1
;; This function calls:
;;		_delay
;; This function is called by:
;;		_main
;; This function uses a non-reentrant model
;;
psect	text92
	file	"D:\Embedded\pic\code\software\protocal\GSM\GSM_msg_call\gsm_msg_call.c"
	line	35
	global	__size_of_trans
	__size_of_trans	equ	__end_of_trans-_trans
	
_trans:	
	opt	stack 6
; Regs used in _trans: [wreg-fsr0h+status,2+status,0+pclath+cstack]
;trans@data1 stored from wreg
	movwf	(trans@data1)
	line	36
	
l2229:	
;gsm_msg_call.c: 36: while(*data1)
	goto	l2237
	
l1048:	
	line	38
	
l2231:	
;gsm_msg_call.c: 37: {
;gsm_msg_call.c: 38: TXREG=*data1++;
	movf	(trans@data1),w
	movwf	fsr0
	fcall	stringdir
	bcf	status, 5	;RP0=0, select bank0
	bcf	status, 6	;RP1=0, select bank0
	movwf	(25)	;volatile
	
l2233:	
	movlw	(01h)
	movwf	(??_trans+0)+0
	movf	(??_trans+0)+0,w
	addwf	(trans@data1),f
	line	39
;gsm_msg_call.c: 39: while(TXIF==0);
	goto	l1049
	
l1050:	
	
l1049:	
	btfss	(100/8),(100)&7
	goto	u2191
	goto	u2190
u2191:
	goto	l1049
u2190:
	
l1051:	
	line	40
;gsm_msg_call.c: 40: TXIF=0;
	bcf	(100/8),(100)&7
	line	41
	
l2235:	
;gsm_msg_call.c: 41: delay(1000);
	movlw	low(03E8h)
	movwf	(?_delay)
	movlw	high(03E8h)
	movwf	((?_delay))+1
	fcall	_delay
	goto	l2237
	line	42
	
l1047:	
	line	36
	
l2237:	
	movf	(trans@data1),w
	movwf	fsr0
	fcall	stringdir
	iorlw	0
	skipz
	goto	u2201
	goto	u2200
u2201:
	goto	l2231
u2200:
	goto	l1053
	
l1052:	
	line	43
	
l1053:	
	return
	opt stack 0
GLOBAL	__end_of_trans
	__end_of_trans:
;; =============== function _trans ends ============

	signat	_trans,4216
	global	_tran
psect	text93,local,class=CODE,delta=2
global __ptext93
__ptext93:

;; *************** function _tran *****************
;; Defined at:
;;		line 28 in file "D:\Embedded\pic\code\software\protocal\GSM\GSM_msg_call\gsm_msg_call.c"
;; Parameters:    Size  Location     Type
;;  data            1    wreg     unsigned char 
;; Auto vars:     Size  Location     Type
;;  data            1    2[COMMON] unsigned char 
;; Return value:  Size  Location     Type
;;		None               void
;; Registers used:
;;		wreg, status,2, status,0, pclath, cstack
;; Tracked objects:
;;		On entry : 0/0
;;		On exit  : 0/0
;;		Unchanged: 0/0
;; Data sizes:     COMMON   BANK0   BANK1   BANK3   BANK2
;;      Params:         0       0       0       0       0
;;      Locals:         1       0       0       0       0
;;      Temps:          0       0       0       0       0
;;      Totals:         1       0       0       0       0
;;Total ram usage:        1 bytes
;; Hardware stack levels used:    1
;; Hardware stack levels required when called:    1
;; This function calls:
;;		_delay
;; This function is called by:
;;		_new
;;		_main
;; This function uses a non-reentrant model
;;
psect	text93
	file	"D:\Embedded\pic\code\software\protocal\GSM\GSM_msg_call\gsm_msg_call.c"
	line	28
	global	__size_of_tran
	__size_of_tran	equ	__end_of_tran-_tran
	
_tran:	
	opt	stack 6
; Regs used in _tran: [wreg+status,2+status,0+pclath+cstack]
;tran@data stored from wreg
	movwf	(tran@data)
	line	29
	
l2225:	
;gsm_msg_call.c: 29: TXREG=data;
	movf	(tran@data),w
	bcf	status, 5	;RP0=0, select bank0
	bcf	status, 6	;RP1=0, select bank0
	movwf	(25)	;volatile
	line	30
;gsm_msg_call.c: 30: while(TXIF==0);
	goto	l1041
	
l1042:	
	
l1041:	
	btfss	(100/8),(100)&7
	goto	u2181
	goto	u2180
u2181:
	goto	l1041
u2180:
	
l1043:	
	line	31
;gsm_msg_call.c: 31: TXIF=0;
	bcf	(100/8),(100)&7
	line	32
	
l2227:	
;gsm_msg_call.c: 32: delay(1000);
	movlw	low(03E8h)
	movwf	(?_delay)
	movlw	high(03E8h)
	movwf	((?_delay))+1
	fcall	_delay
	line	33
	
l1044:	
	return
	opt stack 0
GLOBAL	__end_of_tran
	__end_of_tran:
;; =============== function _tran ends ============

	signat	_tran,4216
	global	_timer
psect	text94,local,class=CODE,delta=2
global __ptext94
__ptext94:

;; *************** function _timer *****************
;; Defined at:
;;		line 11 in file "D:\Embedded\pic\code\software\protocal\GSM\GSM_msg_call\gsm_msg_call.c"
;; Parameters:    Size  Location     Type
;;  sec             2    0[COMMON] int 
;; Auto vars:     Size  Location     Type
;;		None
;; Return value:  Size  Location     Type
;;		None               void
;; Registers used:
;;		wreg, status,2, btemp+1
;; Tracked objects:
;;		On entry : 0/0
;;		On exit  : 0/0
;;		Unchanged: 0/0
;; Data sizes:     COMMON   BANK0   BANK1   BANK3   BANK2
;;      Params:         2       0       0       0       0
;;      Locals:         0       0       0       0       0
;;      Temps:          0       0       0       0       0
;;      Totals:         2       0       0       0       0
;;Total ram usage:        2 bytes
;; Hardware stack levels used:    1
;; This function calls:
;;		Nothing
;; This function is called by:
;;		_main
;; This function uses a non-reentrant model
;;
psect	text94
	file	"D:\Embedded\pic\code\software\protocal\GSM\GSM_msg_call\gsm_msg_call.c"
	line	11
	global	__size_of_timer
	__size_of_timer	equ	__end_of_timer-_timer
	
_timer:	
	opt	stack 7
; Regs used in _timer: [wreg+status,2+btemp+1]
	line	12
	
l1447:	
;gsm_msg_call.c: 12: while(0<sec)
	goto	l1457
	
l1034:	
	line	14
;gsm_msg_call.c: 13: {
;gsm_msg_call.c: 14: if(T0IF==1)
	btfss	(90/8),(90)&7
	goto	u21
	goto	u20
u21:
	goto	l1035
u20:
	line	16
	
l1449:	
;gsm_msg_call.c: 15: {
;gsm_msg_call.c: 16: count++;
	movlw	low(01h)
	addwf	(_count),f
	skipnc
	incf	(_count+1),f
	movlw	high(01h)
	addwf	(_count+1),f
	line	17
	
l1451:	
;gsm_msg_call.c: 17: T0IF=0;
	bcf	(90/8),(90)&7
	line	18
	
l1035:	
	line	19
;gsm_msg_call.c: 18: }
;gsm_msg_call.c: 19: if(count==15)
	movlw	0Fh
	xorwf	(_count),w
	iorwf	(_count+1),w
	skipz
	goto	u31
	goto	u30
u31:
	goto	l1457
u30:
	line	21
	
l1453:	
;gsm_msg_call.c: 20: {
;gsm_msg_call.c: 21: count=0;
	clrf	(_count)
	clrf	(_count+1)
	line	22
	
l1455:	
;gsm_msg_call.c: 22: sec--;
	movlw	low(-1)
	addwf	(timer@sec),f
	skipnc
	incf	(timer@sec+1),f
	movlw	high(-1)
	addwf	(timer@sec+1),f
	goto	l1457
	line	23
	
l1036:	
	goto	l1457
	line	24
	
l1033:	
	line	12
	
l1457:	
	movf	(timer@sec+1),w
	xorlw	80h
	movwf	btemp+1
	movlw	(high(01h))^80h
	subwf	btemp+1,w
	skipz
	goto	u45
	movlw	low(01h)
	subwf	(timer@sec),w
u45:

	skipnc
	goto	u41
	goto	u40
u41:
	goto	l1034
u40:
	goto	l1038
	
l1037:	
	line	25
	
l1038:	
	return
	opt stack 0
GLOBAL	__end_of_timer
	__end_of_timer:
;; =============== function _timer ends ============

	signat	_timer,4216
	global	_delay
psect	text95,local,class=CODE,delta=2
global __ptext95
__ptext95:

;; *************** function _delay *****************
;; Defined at:
;;		line 7 in file "D:\Embedded\pic\code\software\protocal\GSM\GSM_msg_call\gsm_msg_call.c"
;; Parameters:    Size  Location     Type
;;  ms              2    0[COMMON] unsigned int 
;; Auto vars:     Size  Location     Type
;;		None
;; Return value:  Size  Location     Type
;;		None               void
;; Registers used:
;;		wreg
;; Tracked objects:
;;		On entry : 0/0
;;		On exit  : 0/0
;;		Unchanged: 0/0
;; Data sizes:     COMMON   BANK0   BANK1   BANK3   BANK2
;;      Params:         2       0       0       0       0
;;      Locals:         0       0       0       0       0
;;      Temps:          0       0       0       0       0
;;      Totals:         2       0       0       0       0
;;Total ram usage:        2 bytes
;; Hardware stack levels used:    1
;; This function calls:
;;		Nothing
;; This function is called by:
;;		_tran
;;		_trans
;;		_main
;; This function uses a non-reentrant model
;;
psect	text95
	file	"D:\Embedded\pic\code\software\protocal\GSM\GSM_msg_call\gsm_msg_call.c"
	line	7
	global	__size_of_delay
	__size_of_delay	equ	__end_of_delay-_delay
	
_delay:	
	opt	stack 6
; Regs used in _delay: [wreg]
	line	8
	
l1443:	
;gsm_msg_call.c: 8: while(ms--);
	goto	l1445
	
l1028:	
	goto	l1445
	
l1027:	
	
l1445:	
	movlw	low(01h)
	subwf	(delay@ms),f
	movlw	high(01h)
	skipc
	decf	(delay@ms+1),f
	subwf	(delay@ms+1),f
	movlw	high(0FFFFh)
	xorwf	((delay@ms+1)),w
	skipz
	goto	u15
	movlw	low(0FFFFh)
	xorwf	((delay@ms)),w
u15:

	skipz
	goto	u11
	goto	u10
u11:
	goto	l1445
u10:
	goto	l1030
	
l1029:	
	line	9
	
l1030:	
	return
	opt stack 0
GLOBAL	__end_of_delay
	__end_of_delay:
;; =============== function _delay ends ============

	signat	_delay,4216
psect	text96,local,class=CODE,delta=2
global __ptext96
__ptext96:
	global	btemp
	btemp set 07Eh

	DABS	1,126,2	;btemp
	global	wtemp0
	wtemp0 set btemp
	end
