

HI-TECH Software PIC LITE Macro Assembler V9.81 build 7503 
                                                                                               Mon Jun 27 16:59:53 2022

HI-TECH Software Omniscient Code Generator (Lite mode) build 7503
     1  0000                     opt subtitle "HI-TECH Software Omniscient Code Generator (Lite mode) build 7503"
     2                           
     3                           opt pagewidth 120
     4                           
     5                           	opt lm
     6                           
     7                           	processor	16F887
     8                           clrc	macro
     9                           	bcf	3,0
    10  0000                     	endm
    11                           clrz	macro
    12                           	bcf	3,2
    13  0000                     	endm
    14                           setc	macro
    15                           	bsf	3,0
    16  0000                     	endm
    17                           setz	macro
    18                           	bsf	3,2
    19  0000                     	endm
    20                           skipc	macro
    21                           	btfss	3,0
    22  0000                     	endm
    23                           skipz	macro
    24                           	btfss	3,2
    25  0000                     	endm
    26                           skipnc	macro
    27                           	btfsc	3,0
    28  0000                     	endm
    29                           skipnz	macro
    30                           	btfsc	3,2
    31  0000                     	endm
    32  0000                     indf	equ	0
    33  0000                     indf0	equ	0
    34  0002                     pc	equ	2
    35  0002                     pcl	equ	2
    36  0003                     status	equ	3
    37  0004                     fsr	equ	4
    38  0004                     fsr0	equ	4
    39  0001                     c	equ	1
    40  0000                     z	equ	0
    41  000A                     pclath	equ	10
    42                           	FNCALL	_main,_trans
    43                           	FNCALL	_main,_new
    44                           	FNCALL	_main,_delay
    45                           	FNCALL	_main,_timer
    46                           	FNCALL	_main,_tran
    47                           	FNCALL	_new,_tran
    48                           	FNCALL	_trans,_delay
    49                           	FNCALL	_tran,_delay
    50                           	FNROOT	_main
    51                           	global	_count
    52                           	global	_PORTC
    53                           psect	text90,local,class=CODE,delta=2
    54                           global __ptext90
    55  0000                     __ptext90:
    56  0007                     _PORTC	set	7
    57                           	global	_RCSTA
    58  0018                     _RCSTA	set	24
    59                           	global	_TXREG
    60  0019                     _TXREG	set	25
    61                           	global	_RC0
    62  0038                     _RC0	set	56
    63                           	global	_RC1
    64  0039                     _RC1	set	57
    65                           	global	_T0IF
    66  005A                     _T0IF	set	90
    67                           	global	_TXIF
    68  0064                     _TXIF	set	100
    69                           	global	_OPTION_REG
    70  0081                     _OPTION_REG	set	129
    71                           	global	_SPBRG
    72  0099                     _SPBRG	set	153
    73                           	global	_TRISC
    74  0087                     _TRISC	set	135
    75                           	global	_TXSTA
    76  0098                     _TXSTA	set	152
    77                           psect	strings,class=STRING,delta=2
    78                           global __pstrings
    79  0003                     __pstrings:
    80                           ;	global	stringdir,stringtab,__stringbase
    81  0003                     stringtab:
    82                           ;	String table - string pointers are 1 byte each
    83  0003                     stringcode:stringdir:
      + 0003                     stringdir:	
    84  0003  3000               movlw high(stringdir)
    85  0004  008A               movwf pclath
    86  0005  0804               movf fsr,w
    87  0006  0A84               incf fsr
    88  0007  0782               	addwf pc
    89  0008                     __stringbase:
    90  0008  3400               	retlw	0
    91                           psect	strings
    92                           	
    93  0009                     STR_7:	
    94  0009  3444               	retlw	68	;'D'
    95  000A  3465               	retlw	101	;'e'
    96  000B  3461               	retlw	97	;'a'
    97  000C  3472               	retlw	114	;'r'
    98  000D  3420               	retlw	32	;' '
    99  000E  344A               	retlw	74	;'J'
   100  000F  3461               	retlw	97	;'a'
   101  0010  3479               	retlw	121	;'y'
   102  0011  3461               	retlw	97	;'a'
   103  0012  3470               	retlw	112	;'p'
   104  0013  3472               	retlw	114	;'r'
   105  0014  3461               	retlw	97	;'a'
   106  0015  346B               	retlw	107	;'k'
   107  0016  3461               	retlw	97	;'a'
   108  0017  3473               	retlw	115	;'s'
   109  0018  3468               	retlw	104	;'h'
   110  0019  342C               	retlw	44	;','
   111  001A  3420               	retlw	32	;' '
   112  001B  3479               	retlw	121	;'y'
   113  001C  346F               	retlw	111	;'o'
   114  001D  3475               	retlw	117	;'u'
   115  001E  3472               	retlw	114	;'r'
   116  001F  3420               	retlw	32	;' '
   117  0020  3472               	retlw	114	;'r'
   118  0021  3465               	retlw	101	;'e'
   119  0022  3473               	retlw	115	;'s'
   120  0023  3475               	retlw	117	;'u'
   121  0024  346D               	retlw	109	;'m'
   122  0025  3465               	retlw	101	;'e'
   123  0026  3420               	retlw	32	;' '
   124  0027  3468               	retlw	104	;'h'
   125  0028  3461               	retlw	97	;'a'
   126  0029  3473               	retlw	115	;'s'
   127  002A  3420               	retlw	32	;' '
   128  002B  3462               	retlw	98	;'b'
   129  002C  3465               	retlw	101	;'e'
   130  002D  3465               	retlw	101	;'e'
   131  002E  346E               	retlw	110	;'n'
   132  002F  3420               	retlw	32	;' '
   133  0030  3473               	retlw	115	;'s'
   134  0031  3468               	retlw	104	;'h'
   135  0032  346F               	retlw	111	;'o'
   136  0033  3472               	retlw	114	;'r'
   137  0034  3474               	retlw	116	;'t'
   138  0035  346C               	retlw	108	;'l'
   139  0036  3469               	retlw	105	;'i'
   140  0037  3473               	retlw	115	;'s'
   141  0038  3474               	retlw	116	;'t'
   142  0039  3465               	retlw	101	;'e'
   143  003A  3464               	retlw	100	;'d'
   144  003B  3420               	retlw	32	;' '
   145  003C  3466               	retlw	102	;'f'
   146  003D  346F               	retlw	111	;'o'
   147  003E  3472               	retlw	114	;'r'
   148  003F  3420               	retlw	32	;' '
   149  0040  3466               	retlw	102	;'f'
   150  0041  3469               	retlw	105	;'i'
   151  0042  346E               	retlw	110	;'n'
   152  0043  3461               	retlw	97	;'a'
   153  0044  346C               	retlw	108	;'l'
   154  0045  3420               	retlw	32	;' '
   155  0046  3472               	retlw	114	;'r'
   156  0047  346F               	retlw	111	;'o'
   157  0048  3475               	retlw	117	;'u'
   158  0049  346E               	retlw	110	;'n'
   159  004A  3464               	retlw	100	;'d'
   160  004B  3420               	retlw	32	;' '
   161  004C  3466               	retlw	102	;'f'
   162  004D  346F               	retlw	111	;'o'
   163  004E  3472               	retlw	114	;'r'
   164  004F  3420               	retlw	32	;' '
   165  0050  3474               	retlw	116	;'t'
   166  0051  3468               	retlw	104	;'h'
   167  0052  3465               	retlw	101	;'e'
   168  0053  3420               	retlw	32	;' '
   169  0054  3470               	retlw	112	;'p'
   170  0055  346F               	retlw	111	;'o'
   171  0056  3473               	retlw	115	;'s'
   172  0057  3474               	retlw	116	;'t'
   173  0058  3420               	retlw	32	;' '
   174  0059  346F               	retlw	111	;'o'
   175  005A  3466               	retlw	102	;'f'
   176  005B  3420               	retlw	32	;' '
   177  005C  3445               	retlw	69	;'E'
   178  005D  344D               	retlw	77	;'M'
   179  005E  3442               	retlw	66	;'B'
   180  005F  3445               	retlw	69	;'E'
   181  0060  3444               	retlw	68	;'D'
   182  0061  3444               	retlw	68	;'D'
   183  0062  3445               	retlw	69	;'E'
   184  0063  3444               	retlw	68	;'D'
   185  0064  3420               	retlw	32	;' '
   186  0065  3444               	retlw	68	;'D'
   187  0066  3445               	retlw	69	;'E'
   188  0067  3456               	retlw	86	;'V'
   189  0068  3445               	retlw	69	;'E'
   190  0069  344C               	retlw	76	;'L'
   191  006A  344F               	retlw	79	;'O'
   192  006B  3450               	retlw	80	;'P'
   193  006C  3445               	retlw	69	;'E'
   194  006D  3452               	retlw	82	;'R'
   195  006E  3420               	retlw	32	;' '
   196  006F  3461               	retlw	97	;'a'
   197  0070  3474               	retlw	116	;'t'
   198  0071  3420               	retlw	32	;' '
   199  0072  3452               	retlw	82	;'R'
   200  0073  346F               	retlw	111	;'o'
   201  0074  3462               	retlw	98	;'b'
   202  0075  3465               	retlw	101	;'e'
   203  0076  3472               	retlw	114	;'r'
   204  0077  3474               	retlw	116	;'t'
   205  0078  3420               	retlw	32	;' '
   206  0079  3442               	retlw	66	;'B'
   207  007A  344F               	retlw	79	;'O'
   208  007B  3453               	retlw	83	;'S'
   209  007C  3443               	retlw	67	;'C'
   210  007D  3448               	retlw	72	;'H'
   211  007E  342E               	retlw	46	;'.'
   212  007F  3420               	retlw	32	;' '
   213  0080  3443               	retlw	67	;'C'
   214  0081  3461               	retlw	97	;'a'
   215  0082  346C               	retlw	108	;'l'
   216  0083  346C               	retlw	108	;'l'
   217  0084  3420               	retlw	32	;' '
   218  0085  3439               	retlw	57	;'9'
   219  0086  3435               	retlw	53	;'5'
   220  0087  3436               	retlw	54	;'6'
   221  0088  3436               	retlw	54	;'6'
   222  0089  3435               	retlw	53	;'5'
   223  008A  3431               	retlw	49	;'1'
   224  008B  3431               	retlw	49	;'1'
   225  008C  3434               	retlw	52	;'4'
   226  008D  3438               	retlw	56	;'8'
   227  008E  3436               	retlw	54	;'6'
   228  008F  342E               	retlw	46	;'.'
   229  0090  3400               	retlw	0
   230                           psect	strings
   231                           	
   232  0091                     STR_6:	
   233  0091  3441               	retlw	65	;'A'
   234  0092  3454               	retlw	84	;'T'
   235  0093  342B               	retlw	43	;'+'
   236  0094  3443               	retlw	67	;'C'
   237  0095  344D               	retlw	77	;'M'
   238  0096  3447               	retlw	71	;'G'
   239  0097  3453               	retlw	83	;'S'
   240  0098  343D               	retlw	61	;'='
   241  0099  3422               	retlw	34	;'"'
   242  009A  342B               	retlw	43	;'+'
   243  009B  3439               	retlw	57	;'9'
   244  009C  3431               	retlw	49	;'1'
   245  009D  3439               	retlw	57	;'9'
   246  009E  3436               	retlw	54	;'6'
   247  009F  3439               	retlw	57	;'9'
   248  00A0  3438               	retlw	56	;'8'
   249  00A1  3439               	retlw	57	;'9'
   250  00A2  3430               	retlw	48	;'0'
   251  00A3  3432               	retlw	50	;'2'
   252  00A4  3434               	retlw	52	;'4'
   253  00A5  3435               	retlw	53	;'5'
   254  00A6  3432               	retlw	50	;'2'
   255  00A7  3422               	retlw	34	;'"'
   256  00A8  3400               	retlw	0
   257                           psect	strings
   258                           	
   259  00A9                     STR_2:	
   260  00A9  3441               	retlw	65	;'A'
   261  00AA  3454               	retlw	84	;'T'
   262  00AB  3444               	retlw	68	;'D'
   263  00AC  342B               	retlw	43	;'+'
   264  00AD  3439               	retlw	57	;'9'
   265  00AE  3431               	retlw	49	;'1'
   266  00AF  3438               	retlw	56	;'8'
   267  00B0  3432               	retlw	50	;'2'
   268  00B1  3432               	retlw	50	;'2'
   269  00B2  3430               	retlw	48	;'0'
   270  00B3  3432               	retlw	50	;'2'
   271  00B4  3437               	retlw	55	;'7'
   272  00B5  3436               	retlw	54	;'6'
   273  00B6  3431               	retlw	49	;'1'
   274  00B7  3438               	retlw	56	;'8'
   275  00B8  3431               	retlw	49	;'1'
   276  00B9  343B               	retlw	59	;';'
   277  00BA  3400               	retlw	0
   278                           psect	strings
   279                           	
   280  00BB                     STR_5:	
   281  00BB  3441               	retlw	65	;'A'
   282  00BC  3454               	retlw	84	;'T'
   283  00BD  342B               	retlw	43	;'+'
   284  00BE  3443               	retlw	67	;'C'
   285  00BF  344D               	retlw	77	;'M'
   286  00C0  3447               	retlw	71	;'G'
   287  00C1  3446               	retlw	70	;'F'
   288  00C2  343D               	retlw	61	;'='
   289  00C3  3431               	retlw	49	;'1'
   290  00C4  3400               	retlw	0
   291                           psect	strings
   292                           	
   293  00C5                     STR_3:	
   294  00C5  3441               	retlw	65	;'A'
   295  00C6  3454               	retlw	84	;'T'
   296  00C7  3448               	retlw	72	;'H'
   297  00C8  3400               	retlw	0
   298                           psect	strings
   299                           	
   300  00C9                     STR_1:	
   301  00C9  3441               	retlw	65	;'A'
   302  00CA  3454               	retlw	84	;'T'
   303  00CB  3400               	retlw	0
   304                           psect	strings
   305  00C9                     STR_4	equ	STR_1+0
   306                           	file	"gsm_msg_call.as"
   307                           	line	#
   308                           psect cinit,class=CODE,delta=2
   309                           global start_initialization
   310  068C                     start_initialization:
   311                           
   312                           psect	bssCOMMON,class=COMMON,space=1
   313                           global __pbssCOMMON
   314  0074                     __pbssCOMMON:
   315  0074                     _count:
   316  0074                            ds      2
   317                           
   318                           ; Clear objects allocated to COMMON
   319                           psect cinit,class=CODE,delta=2
   320  068C  01F4               	clrf	((__pbssCOMMON)+0)&07Fh
   321  068D  01F5               	clrf	((__pbssCOMMON)+1)&07Fh
   322                           psect cinit,class=CODE,delta=2
   323                           global end_of_initialization
   324                           
   325                           ;End of C runtime variable initialization code
   326                           
   327  068E                     end_of_initialization:
   328  068E  0183               clrf status
   329  068F  120A  118A  2F22   ljmp _main	;jump to C main() function
   330                           psect	cstackCOMMON,class=COMMON,space=1
   331                           global __pcstackCOMMON
   332  0070                     __pcstackCOMMON:
   333                           	global	?_delay
   334  0070                     ?_delay:	; 0 bytes @ 0x0
   335                           	global	?_timer
   336  0070                     ?_timer:	; 0 bytes @ 0x0
   337                           	global	?_tran
   338  0070                     ?_tran:	; 0 bytes @ 0x0
   339                           	global	?_trans
   340  0070                     ?_trans:	; 0 bytes @ 0x0
   341                           	global	?_new
   342  0070                     ?_new:	; 0 bytes @ 0x0
   343                           	global	?_main
   344  0070                     ?_main:	; 0 bytes @ 0x0
   345                           	global	delay@ms
   346  0070                     delay@ms:	; 2 bytes @ 0x0
   347                           	global	timer@sec
   348  0070                     timer@sec:	; 2 bytes @ 0x0
   349  0070                     	ds	2
   350                           	global	??_delay
   351  0072                     ??_delay:	; 0 bytes @ 0x2
   352                           	global	??_timer
   353  0072                     ??_timer:	; 0 bytes @ 0x2
   354                           	global	??_tran
   355  0072                     ??_tran:	; 0 bytes @ 0x2
   356                           	global	??_trans
   357  0072                     ??_trans:	; 0 bytes @ 0x2
   358                           	global	tran@data
   359  0072                     tran@data:	; 1 bytes @ 0x2
   360  0072                     	ds	1
   361                           	global	??_new
   362  0073                     ??_new:	; 0 bytes @ 0x3
   363                           	global	trans@data1
   364  0073                     trans@data1:	; 1 bytes @ 0x3
   365  0073                     	ds	1
   366                           	global	??_main
   367  0074                     ??_main:	; 0 bytes @ 0x4
   368 ;;Data sizes: Strings 195, constant 0, data 0, bss 2, persistent 0 stack 0
   369 ;;Auto spaces:   Size  Autos    Used
   370 ;; COMMON          14      4       6
   371 ;; BANK0           80      0       0
   372 ;; BANK1           80      0       0
   373 ;; BANK3           96      0       0
   374 ;; BANK2           96      0       0
   375                           
   376 ;;
   377 ;; Pointer list with targets:
   378                           
   379 ;; trans@data1	PTR unsigned char  size(1) Largest target is 136
   380 ;;		 -> STR_7(CODE[136]), STR_6(CODE[24]), STR_5(CODE[10]), STR_4(CODE[3]), 
   381 ;;		 -> STR_3(CODE[4]), STR_2(CODE[18]), STR_1(CODE[3]), 
   382 ;;
   383                           
   384                           
   385 ;;
   386 ;; Critical Paths under _main in COMMON
   387 ;;
   388 ;;   _main->_trans
   389 ;;   _new->_tran
   390 ;;   _trans->_delay
   391 ;;   _tran->_delay
   392 ;;
   393 ;; Critical Paths under _main in BANK0
   394 ;;
   395 ;;   None.
   396 ;;
   397 ;; Critical Paths under _main in BANK1
   398 ;;
   399 ;;   None.
   400 ;;
   401 ;; Critical Paths under _main in BANK3
   402 ;;
   403 ;;   None.
   404 ;;
   405 ;; Critical Paths under _main in BANK2
   406 ;;
   407 ;;   None.
   408                           
   409 ;;
   410 ;;Main: autosize = 0, tempsize = 0, incstack = 0, save=0
   411 ;;
   412                           
   413 ;;
   414 ;;Call Graph Tables:
   415 ;;
   416 ;; ---------------------------------------------------------------------------------
   417 ;; (Depth) Function   	        Calls       Base Space   Used Autos Params    Refs
   418 ;; ---------------------------------------------------------------------------------
   419 ;; (0) _main                                                 0     0      0     135
   420 ;;                              _trans
   421 ;;                                _new
   422 ;;                              _delay
   423 ;;                              _timer
   424 ;;                               _tran
   425 ;; ---------------------------------------------------------------------------------
   426 ;; (1) _new                                                  0     0      0      30
   427 ;;                               _tran
   428 ;; ---------------------------------------------------------------------------------
   429 ;; (1) _trans                                                2     2      0      45
   430 ;;                                              2 COMMON     2     2      0
   431 ;;                              _delay
   432 ;; ---------------------------------------------------------------------------------
   433 ;; (1) _tran                                                 1     1      0      30
   434 ;;                                              2 COMMON     1     1      0
   435 ;;                              _delay
   436 ;; ---------------------------------------------------------------------------------
   437 ;; (1) _timer                                                2     0      2      15
   438 ;;                                              0 COMMON     2     0      2
   439 ;; ---------------------------------------------------------------------------------
   440 ;; (2) _delay                                                2     0      2      15
   441 ;;                                              0 COMMON     2     0      2
   442 ;; ---------------------------------------------------------------------------------
   443 ;; Estimated maximum stack depth 2
   444 ;; ---------------------------------------------------------------------------------
   445                           
   446 ;; Call Graph Graphs:
   447                           
   448 ;; _main (ROOT)
   449 ;;   _trans
   450 ;;     _delay
   451 ;;   _new
   452 ;;     _tran
   453 ;;       _delay
   454 ;;   _delay
   455 ;;   _timer
   456 ;;   _tran
   457 ;;     _delay
   458 ;;
   459                           
   460 ;; Address spaces:
   461                           
   462 ;;Name               Size   Autos  Total    Cost      Usage
   463 ;;BITCOMMON            E      0       0       0        0.0%
   464 ;;EEDATA             100      0       0       0        0.0%
   465 ;;NULL                 0      0       0       0        0.0%
   466 ;;CODE                 0      0       0       0        0.0%
   467 ;;COMMON               E      4       6       1       42.9%
   468 ;;BITSFR0              0      0       0       1        0.0%
   469 ;;SFR0                 0      0       0       1        0.0%
   470 ;;BITSFR1              0      0       0       2        0.0%
   471 ;;SFR1                 0      0       0       2        0.0%
   472 ;;STACK                0      0       3       2        0.0%
   473 ;;ABS                  0      0       6       3        0.0%
   474 ;;BITBANK0            50      0       0       4        0.0%
   475 ;;BITSFR3              0      0       0       4        0.0%
   476 ;;SFR3                 0      0       0       4        0.0%
   477 ;;BANK0               50      0       0       5        0.0%
   478 ;;BITSFR2              0      0       0       5        0.0%
   479 ;;SFR2                 0      0       0       5        0.0%
   480 ;;BITBANK1            50      0       0       6        0.0%
   481 ;;BANK1               50      0       0       7        0.0%
   482 ;;BITBANK3            60      0       0       8        0.0%
   483 ;;BANK3               60      0       0       9        0.0%
   484 ;;BITBANK2            60      0       0      10        0.0%
   485 ;;BANK2               60      0       0      11        0.0%
   486 ;;DATA                 0      0       9      12        0.0%
   487                           
   488                           	global	_main
   489                           psect	maintext,global,class=CODE,delta=2
   490                           global __pmaintext
   491  0722                     __pmaintext:
   492                           
   493 ;; *************** function _main *****************
   494 ;; Defined at:
   495 ;;		line 50 in file "D:\Embedded\pic\code\software\protocal\GSM\GSM_msg_call\gsm_msg_call.c"
   496 ;; Parameters:    Size  Location     Type
   497 ;;		None
   498 ;; Auto vars:     Size  Location     Type
   499 ;;		None
   500 ;; Return value:  Size  Location     Type
   501 ;;		None               void
   502 ;; Registers used:
   503 ;;		wreg, fsr0l, fsr0h, status,2, status,0, btemp+1, pclath, cstack
   504 ;; Tracked objects:
   505 ;;		On entry : 17F/0
   506 ;;		On exit  : 0/0
   507 ;;		Unchanged: 0/0
   508 ;; Data sizes:     COMMON   BANK0   BANK1   BANK3   BANK2
   509 ;;      Params:         0       0       0       0       0
   510 ;;      Locals:         0       0       0       0       0
   511 ;;      Temps:          0       0       0       0       0
   512 ;;      Totals:         0       0       0       0       0
   513 ;;Total ram usage:        0 bytes
   514 ;; Hardware stack levels required when called:    3
   515 ;; This function calls:
   516 ;;		_trans
   517 ;;		_new
   518 ;;		_delay
   519 ;;		_timer
   520 ;;		_tran
   521 ;; This function is called by:
   522 ;;		Startup code after reset
   523 ;; This function uses a non-reentrant model
   524 ;;
   525                           psect	maintext
   526                           	file	"D:\Embedded\pic\code\software\protocal\GSM\GSM_msg_call\gsm_msg_call.c"
   527                           	line	50
   528                           	global	__size_of_main
   529  00DE                     	__size_of_main	equ	__end_of_main-_main
   530                           	
   531  0722                     _main:	
   532                           	opt	stack 5
   533                           ; Regs used in _main: [wreg-fsr0h+status,2+status,0+btemp+1+pclath+cstack]
   534                           	line	51
   535                           	
   536  0722                     l2241:	
   537                           ;gsm_msg_call.c: 51: TRISC=0X83;
   538  0722  3083               	movlw	(083h)
   539  0723  1683               	bsf	status, 5	;RP0=1, select bank1
   540  0724  1303               	bcf	status, 6	;RP1=0, select bank1
   541  0725  0087               	movwf	(135)^080h	;volatile
   542                           	line	52
   543                           	
   544  0726                     l2243:	
   545                           ;gsm_msg_call.c: 52: PORTC=0X00;
   546  0726  1283               	bcf	status, 5	;RP0=0, select bank0
   547  0727  1303               	bcf	status, 6	;RP1=0, select bank0
   548  0728  0187               	clrf	(7)	;volatile
   549                           	line	53
   550                           	
   551  0729                     l2245:	
   552                           ;gsm_msg_call.c: 53: TXSTA=0X26;
   553  0729  3026               	movlw	(026h)
   554  072A  1683               	bsf	status, 5	;RP0=1, select bank1
   555  072B  1303               	bcf	status, 6	;RP1=0, select bank1
   556  072C  0098               	movwf	(152)^080h	;volatile
   557                           	line	54
   558                           	
   559  072D                     l2247:	
   560                           ;gsm_msg_call.c: 54: RCSTA=0X90;
   561  072D  3090               	movlw	(090h)
   562  072E  1283               	bcf	status, 5	;RP0=0, select bank0
   563  072F  1303               	bcf	status, 6	;RP1=0, select bank0
   564  0730  0098               	movwf	(24)	;volatile
   565                           	line	55
   566                           	
   567  0731                     l2249:	
   568                           ;gsm_msg_call.c: 55: SPBRG=25;
   569  0731  3019               	movlw	(019h)
   570  0732  1683               	bsf	status, 5	;RP0=1, select bank1
   571  0733  1303               	bcf	status, 6	;RP1=0, select bank1
   572  0734  0099               	movwf	(153)^080h	;volatile
   573                           	line	56
   574                           	
   575  0735                     l2251:	
   576                           ;gsm_msg_call.c: 56: OPTION_REG=0X07;
   577  0735  3007               	movlw	(07h)
   578  0736  0081               	movwf	(129)^080h	;volatile
   579  0737  2F38               	goto	l2253
   580                           	line	57
   581                           ;gsm_msg_call.c: 57: while(1)
   582                           	
   583  0738                     l1059:	
   584                           	line	59
   585                           	
   586  0738                     l2253:	
   587                           ;gsm_msg_call.c: 58: {
   588                           ;gsm_msg_call.c: 59: if(RC0==1)
   589  0738  1283               	bcf	status, 5	;RP0=0, select bank0
   590  0739  1C07               	btfss	(56/8),(56)&7
   591  073A  2F3C               	goto	u2211
   592  073B  2F3D               	goto	u2210
   593  073C                     u2211:
   594  073C  2F8A               	goto	l1060
   595  073D                     u2210:
   596                           	line	61
   597                           	
   598  073D                     l2255:	
   599                           ;gsm_msg_call.c: 60: {
   600                           ;gsm_msg_call.c: 61: trans("AT");
   601  073D  30C1               	movlw	((STR_1-__stringbase))&0ffh
   602  073E  120A  118A  26F4   	fcall	_trans
              120A  118A         
   603                           	line	62
   604                           	
   605  0743                     l2257:	
   606                           ;gsm_msg_call.c: 62: new();
   607  0743  120A  118A  2692   	fcall	_new
              120A  118A         
   608                           	line	63
   609                           	
   610  0748                     l2259:	
   611                           ;gsm_msg_call.c: 63: delay(10000);
   612  0748  3010               	movlw	low(02710h)
   613  0749  00F0               	movwf	(?_delay)
   614  074A  3027               	movlw	high(02710h)
   615  074B  00F1               	movwf	((?_delay))+1
   616  074C  120A  118A  269F   	fcall	_delay
              120A  118A         
   617                           	line	64
   618                           ;gsm_msg_call.c: 64: trans("ATD+918220276181;");
   619  0751  30A1               	movlw	((STR_2-__stringbase))&0ffh
   620  0752  120A  118A  26F4   	fcall	_trans
              120A  118A         
   621                           	line	65
   622                           	
   623  0757                     l2261:	
   624                           ;gsm_msg_call.c: 65: new();
   625  0757  120A  118A  2692   	fcall	_new
              120A  118A         
   626                           	line	66
   627                           	
   628  075C                     l2263:	
   629                           ;gsm_msg_call.c: 66: delay(10000);
   630  075C  3010               	movlw	low(02710h)
   631  075D  00F0               	movwf	(?_delay)
   632  075E  3027               	movlw	high(02710h)
   633  075F  00F1               	movwf	((?_delay))+1
   634  0760  120A  118A  269F   	fcall	_delay
              120A  118A         
   635                           	line	67
   636                           	
   637  0765                     l2265:	
   638                           ;gsm_msg_call.c: 67: timer(20);
   639  0765  3014               	movlw	low(014h)
   640  0766  00F0               	movwf	(?_timer)
   641  0767  3000               	movlw	high(014h)
   642  0768  00F1               	movwf	((?_timer))+1
   643  0769  120A  118A  26C8   	fcall	_timer
              120A  118A         
   644                           	line	68
   645                           	
   646  076E                     l2267:	
   647                           ;gsm_msg_call.c: 68: trans("ATH");
   648  076E  30BD               	movlw	((STR_3-__stringbase))&0ffh
   649  076F  120A  118A  26F4   	fcall	_trans
              120A  118A         
   650                           	line	69
   651                           	
   652  0774                     l2269:	
   653                           ;gsm_msg_call.c: 69: new();
   654  0774  120A  118A  2692   	fcall	_new
              120A  118A         
   655                           	line	70
   656                           	
   657  0779                     l2271:	
   658                           ;gsm_msg_call.c: 70: delay(10000);
   659  0779  3010               	movlw	low(02710h)
   660  077A  00F0               	movwf	(?_delay)
   661  077B  3027               	movlw	high(02710h)
   662  077C  00F1               	movwf	((?_delay))+1
   663  077D  120A  118A  269F   	fcall	_delay
              120A  118A         
   664                           	line	71
   665                           ;gsm_msg_call.c: 71: while(RC0==1);
   666  0782  2F83               	goto	l1061
   667                           	
   668  0783                     l1062:	
   669                           	
   670  0783                     l1061:	
   671  0783  1283               	bcf	status, 5	;RP0=0, select bank0
   672  0784  1303               	bcf	status, 6	;RP1=0, select bank0
   673  0785  1807               	btfsc	(56/8),(56)&7
   674  0786  2F88               	goto	u2221
   675  0787  2F89               	goto	u2220
   676  0788                     u2221:
   677  0788  2F83               	goto	l1061
   678  0789                     u2220:
   679  0789  2F8A               	goto	l1060
   680                           	
   681  078A                     l1063:	
   682                           	line	72
   683                           	
   684  078A                     l1060:	
   685                           	line	73
   686                           ;gsm_msg_call.c: 72: }
   687                           ;gsm_msg_call.c: 73: if(RC1==1)
   688  078A  1C87               	btfss	(57/8),(57)&7
   689  078B  2F8D               	goto	u2231
   690  078C  2F8E               	goto	u2230
   691  078D                     u2231:
   692  078D  2F38               	goto	l2253
   693  078E                     u2230:
   694                           	line	75
   695                           	
   696  078E                     l2273:	
   697                           ;gsm_msg_call.c: 74: {
   698                           ;gsm_msg_call.c: 75: trans("AT");
   699  078E  30C1               	movlw	((STR_4-__stringbase))&0ffh
   700  078F  120A  118A  26F4   	fcall	_trans
              120A  118A         
   701                           	line	76
   702                           	
   703  0794                     l2275:	
   704                           ;gsm_msg_call.c: 76: new();
   705  0794  120A  118A  2692   	fcall	_new
              120A  118A         
   706                           	line	77
   707                           	
   708  0799                     l2277:	
   709                           ;gsm_msg_call.c: 77: delay(10000);
   710  0799  3010               	movlw	low(02710h)
   711  079A  00F0               	movwf	(?_delay)
   712  079B  3027               	movlw	high(02710h)
   713  079C  00F1               	movwf	((?_delay))+1
   714  079D  120A  118A  269F   	fcall	_delay
              120A  118A         
   715                           	line	78
   716                           ;gsm_msg_call.c: 78: trans("AT+CMGF=1");
   717  07A2  30B3               	movlw	((STR_5-__stringbase))&0ffh
   718  07A3  120A  118A  26F4   	fcall	_trans
              120A  118A         
   719                           	line	79
   720                           	
   721  07A8                     l2279:	
   722                           ;gsm_msg_call.c: 79: new();
   723  07A8  120A  118A  2692   	fcall	_new
              120A  118A         
   724                           	line	80
   725                           	
   726  07AD                     l2281:	
   727                           ;gsm_msg_call.c: 80: delay(10000);
   728  07AD  3010               	movlw	low(02710h)
   729  07AE  00F0               	movwf	(?_delay)
   730  07AF  3027               	movlw	high(02710h)
   731  07B0  00F1               	movwf	((?_delay))+1
   732  07B1  120A  118A  269F   	fcall	_delay
              120A  118A         
   733                           	line	81
   734                           ;gsm_msg_call.c: 81: trans("AT+CMGS=\"+919698902452\"");
   735  07B6  3089               	movlw	((STR_6-__stringbase))&0ffh
   736  07B7  120A  118A  26F4   	fcall	_trans
              120A  118A         
   737                           	line	82
   738                           	
   739  07BC                     l2283:	
   740                           ;gsm_msg_call.c: 82: new();
   741  07BC  120A  118A  2692   	fcall	_new
              120A  118A         
   742                           	line	83
   743                           	
   744  07C1                     l2285:	
   745                           ;gsm_msg_call.c: 83: delay(10000);
   746  07C1  3010               	movlw	low(02710h)
   747  07C2  00F0               	movwf	(?_delay)
   748  07C3  3027               	movlw	high(02710h)
   749  07C4  00F1               	movwf	((?_delay))+1
   750  07C5  120A  118A  269F   	fcall	_delay
              120A  118A         
   751                           	line	84
   752                           ;gsm_msg_call.c: 84: trans("Dear Jayaprakash, your resume has been shortlisted for final
                                  round for the post of EMBEDDED DEVELOPER at Robert BOSCH. Call 9566511486.");
   753  07CA  3001               	movlw	((STR_7-__stringbase))&0ffh
   754  07CB  120A  118A  26F4   	fcall	_trans
              120A  118A         
   755                           	line	85
   756                           	
   757  07D0                     l2287:	
   758                           ;gsm_msg_call.c: 85: new();
   759  07D0  120A  118A  2692   	fcall	_new
              120A  118A         
   760                           	line	86
   761                           	
   762  07D5                     l2289:	
   763                           ;gsm_msg_call.c: 86: delay(10000);
   764  07D5  3010               	movlw	low(02710h)
   765  07D6  00F0               	movwf	(?_delay)
   766  07D7  3027               	movlw	high(02710h)
   767  07D8  00F1               	movwf	((?_delay))+1
   768  07D9  120A  118A  269F   	fcall	_delay
              120A  118A         
   769                           	line	87
   770                           	
   771  07DE                     l2291:	
   772                           ;gsm_msg_call.c: 87: tran(0X1A);
   773  07DE  301A               	movlw	(01Ah)
   774  07DF  120A  118A  26B3   	fcall	_tran
              120A  118A         
   775                           	line	88
   776                           	
   777  07E4                     l2293:	
   778                           ;gsm_msg_call.c: 88: new();
   779  07E4  120A  118A  2692   	fcall	_new
              120A  118A         
   780                           	line	89
   781                           	
   782  07E9                     l2295:	
   783                           ;gsm_msg_call.c: 89: delay(10000);
   784  07E9  3010               	movlw	low(02710h)
   785  07EA  00F0               	movwf	(?_delay)
   786  07EB  3027               	movlw	high(02710h)
   787  07EC  00F1               	movwf	((?_delay))+1
   788  07ED  120A  118A  269F   	fcall	_delay
              120A  118A         
   789                           	line	90
   790                           ;gsm_msg_call.c: 90: while(RC1==1);
   791  07F2  2FF3               	goto	l1065
   792                           	
   793  07F3                     l1066:	
   794                           	
   795  07F3                     l1065:	
   796  07F3  1283               	bcf	status, 5	;RP0=0, select bank0
   797  07F4  1303               	bcf	status, 6	;RP1=0, select bank0
   798  07F5  1887               	btfsc	(57/8),(57)&7
   799  07F6  2FF8               	goto	u2241
   800  07F7  2FF9               	goto	u2240
   801  07F8                     u2241:
   802  07F8  2FF3               	goto	l1065
   803  07F9                     u2240:
   804  07F9  2F38               	goto	l2253
   805                           	
   806  07FA                     l1067:	
   807  07FA  2F38               	goto	l2253
   808                           	line	91
   809                           	
   810  07FB                     l1064:	
   811  07FB  2F38               	goto	l2253
   812                           	line	92
   813                           	
   814  07FC                     l1068:	
   815                           	line	57
   816  07FC  2F38               	goto	l2253
   817                           	
   818  07FD                     l1069:	
   819                           	line	93
   820                           	
   821  07FD                     l1070:	
   822                           	global	start
   823  07FD  120A  118A  2800   	ljmp	start
   824                           	opt stack 0
   825                           GLOBAL	__end_of_main
   826  0800                     	__end_of_main:
   827 ;; =============== function _main ends ============
   828                           
   829                           	signat	_main,88
   830                           	global	_new
   831                           psect	text91,local,class=CODE,delta=2
   832                           global __ptext91
   833  0692                     __ptext91:
   834                           
   835 ;; *************** function _new *****************
   836 ;; Defined at:
   837 ;;		line 45 in file "D:\Embedded\pic\code\software\protocal\GSM\GSM_msg_call\gsm_msg_call.c"
   838 ;; Parameters:    Size  Location     Type
   839 ;;		None
   840 ;; Auto vars:     Size  Location     Type
   841 ;;		None
   842 ;; Return value:  Size  Location     Type
   843 ;;		None               void
   844 ;; Registers used:
   845 ;;		wreg, status,2, status,0, pclath, cstack
   846 ;; Tracked objects:
   847 ;;		On entry : 0/0
   848 ;;		On exit  : 0/0
   849 ;;		Unchanged: 0/0
   850 ;; Data sizes:     COMMON   BANK0   BANK1   BANK3   BANK2
   851 ;;      Params:         0       0       0       0       0
   852 ;;      Locals:         0       0       0       0       0
   853 ;;      Temps:          0       0       0       0       0
   854 ;;      Totals:         0       0       0       0       0
   855 ;;Total ram usage:        0 bytes
   856 ;; Hardware stack levels used:    1
   857 ;; Hardware stack levels required when called:    2
   858 ;; This function calls:
   859 ;;		_tran
   860 ;; This function is called by:
   861 ;;		_main
   862 ;; This function uses a non-reentrant model
   863 ;;
   864                           psect	text91
   865                           	file	"D:\Embedded\pic\code\software\protocal\GSM\GSM_msg_call\gsm_msg_call.c"
   866                           	line	45
   867                           	global	__size_of_new
   868  000D                     	__size_of_new	equ	__end_of_new-_new
   869                           	
   870  0692                     _new:	
   871                           	opt	stack 5
   872                           ; Regs used in _new: [wreg+status,2+status,0+pclath+cstack]
   873                           	line	46
   874                           	
   875  0692                     l2239:	
   876                           ;gsm_msg_call.c: 46: tran(0X0D);
   877  0692  300D               	movlw	(0Dh)
   878  0693  120A  118A  26B3   	fcall	_tran
              120A  118A         
   879                           	line	47
   880                           ;gsm_msg_call.c: 47: tran(0X0A);
   881  0698  300A               	movlw	(0Ah)
   882  0699  120A  118A  26B3   	fcall	_tran
              120A  118A         
   883                           	line	48
   884                           	
   885  069E                     l1056:	
   886  069E  0008               	return
   887                           	opt stack 0
   888                           GLOBAL	__end_of_new
   889  069F                     	__end_of_new:
   890 ;; =============== function _new ends ============
   891                           
   892                           	signat	_new,88
   893                           	global	_trans
   894                           psect	text92,local,class=CODE,delta=2
   895                           global __ptext92
   896  06F4                     __ptext92:
   897                           
   898 ;; *************** function _trans *****************
   899 ;; Defined at:
   900 ;;		line 35 in file "D:\Embedded\pic\code\software\protocal\GSM\GSM_msg_call\gsm_msg_call.c"
   901 ;; Parameters:    Size  Location     Type
   902 ;;  data1           1    wreg     PTR unsigned char 
   903 ;;		 -> STR_7(136), STR_6(24), STR_5(10), STR_4(3), 
   904 ;;		 -> STR_3(4), STR_2(18), STR_1(3), 
   905 ;; Auto vars:     Size  Location     Type
   906 ;;  data1           1    3[COMMON] PTR unsigned char 
   907 ;;		 -> STR_7(136), STR_6(24), STR_5(10), STR_4(3), 
   908 ;;		 -> STR_3(4), STR_2(18), STR_1(3), 
   909 ;; Return value:  Size  Location     Type
   910 ;;		None               void
   911 ;; Registers used:
   912 ;;		wreg, fsr0l, fsr0h, status,2, status,0, pclath, cstack
   913 ;; Tracked objects:
   914 ;;		On entry : 0/0
   915 ;;		On exit  : 0/0
   916 ;;		Unchanged: 0/0
   917 ;; Data sizes:     COMMON   BANK0   BANK1   BANK3   BANK2
   918 ;;      Params:         0       0       0       0       0
   919 ;;      Locals:         1       0       0       0       0
   920 ;;      Temps:          1       0       0       0       0
   921 ;;      Totals:         2       0       0       0       0
   922 ;;Total ram usage:        2 bytes
   923 ;; Hardware stack levels used:    1
   924 ;; Hardware stack levels required when called:    1
   925 ;; This function calls:
   926 ;;		_delay
   927 ;; This function is called by:
   928 ;;		_main
   929 ;; This function uses a non-reentrant model
   930 ;;
   931                           psect	text92
   932                           	file	"D:\Embedded\pic\code\software\protocal\GSM\GSM_msg_call\gsm_msg_call.c"
   933                           	line	35
   934                           	global	__size_of_trans
   935  002E                     	__size_of_trans	equ	__end_of_trans-_trans
   936                           	
   937  06F4                     _trans:	
   938                           	opt	stack 6
   939                           ; Regs used in _trans: [wreg-fsr0h+status,2+status,0+pclath+cstack]
   940                           ;trans@data1 stored from wreg
   941  06F4  00F3               	movwf	(trans@data1)
   942                           	line	36
   943                           	
   944  06F5                     l2229:	
   945                           ;gsm_msg_call.c: 36: while(*data1)
   946  06F5  2F14               	goto	l2237
   947                           	
   948  06F6                     l1048:	
   949                           	line	38
   950                           	
   951  06F6                     l2231:	
   952                           ;gsm_msg_call.c: 37: {
   953                           ;gsm_msg_call.c: 38: TXREG=*data1++;
   954  06F6  0873               	movf	(trans@data1),w
   955  06F7  0084               	movwf	fsr0
   956  06F8  120A  118A  2003   	fcall	stringdir
              120A  118A         
   957  06FD  1283               	bcf	status, 5	;RP0=0, select bank0
   958  06FE  1303               	bcf	status, 6	;RP1=0, select bank0
   959  06FF  0099               	movwf	(25)	;volatile
   960                           	
   961  0700                     l2233:	
   962  0700  3001               	movlw	(01h)
   963  0701  00F2               	movwf	(??_trans+0)+0
   964  0702  0872               	movf	(??_trans+0)+0,w
   965  0703  07F3               	addwf	(trans@data1),f
   966                           	line	39
   967                           ;gsm_msg_call.c: 39: while(TXIF==0);
   968  0704  2F05               	goto	l1049
   969                           	
   970  0705                     l1050:	
   971                           	
   972  0705                     l1049:	
   973  0705  1E0C               	btfss	(100/8),(100)&7
   974  0706  2F08               	goto	u2191
   975  0707  2F09               	goto	u2190
   976  0708                     u2191:
   977  0708  2F05               	goto	l1049
   978  0709                     u2190:
   979                           	
   980  0709                     l1051:	
   981                           	line	40
   982                           ;gsm_msg_call.c: 40: TXIF=0;
   983  0709  120C               	bcf	(100/8),(100)&7
   984                           	line	41
   985                           	
   986  070A                     l2235:	
   987                           ;gsm_msg_call.c: 41: delay(1000);
   988  070A  30E8               	movlw	low(03E8h)
   989  070B  00F0               	movwf	(?_delay)
   990  070C  3003               	movlw	high(03E8h)
   991  070D  00F1               	movwf	((?_delay))+1
   992  070E  120A  118A  269F   	fcall	_delay
              120A  118A         
   993  0713  2F14               	goto	l2237
   994                           	line	42
   995                           	
   996  0714                     l1047:	
   997                           	line	36
   998                           	
   999  0714                     l2237:	
  1000  0714  0873               	movf	(trans@data1),w
  1001  0715  0084               	movwf	fsr0
  1002  0716  120A  118A  2003   	fcall	stringdir
              120A  118A         
  1003  071B  3800               	iorlw	0
  1004  071C  1D03               	skipz
  1005  071D  2F1F               	goto	u2201
  1006  071E  2F20               	goto	u2200
  1007  071F                     u2201:
  1008  071F  2EF6               	goto	l2231
  1009  0720                     u2200:
  1010  0720  2F21               	goto	l1053
  1011                           	
  1012  0721                     l1052:	
  1013                           	line	43
  1014                           	
  1015  0721                     l1053:	
  1016  0721  0008               	return
  1017                           	opt stack 0
  1018                           GLOBAL	__end_of_trans
  1019  0722                     	__end_of_trans:
  1020 ;; =============== function _trans ends ============
  1021                           
  1022                           	signat	_trans,4216
  1023                           	global	_tran
  1024                           psect	text93,local,class=CODE,delta=2
  1025                           global __ptext93
  1026  06B3                     __ptext93:
  1027                           
  1028 ;; *************** function _tran *****************
  1029 ;; Defined at:
  1030 ;;		line 28 in file "D:\Embedded\pic\code\software\protocal\GSM\GSM_msg_call\gsm_msg_call.c"
  1031 ;; Parameters:    Size  Location     Type
  1032 ;;  data            1    wreg     unsigned char 
  1033 ;; Auto vars:     Size  Location     Type
  1034 ;;  data            1    2[COMMON] unsigned char 
  1035 ;; Return value:  Size  Location     Type
  1036 ;;		None               void
  1037 ;; Registers used:
  1038 ;;		wreg, status,2, status,0, pclath, cstack
  1039 ;; Tracked objects:
  1040 ;;		On entry : 0/0
  1041 ;;		On exit  : 0/0
  1042 ;;		Unchanged: 0/0
  1043 ;; Data sizes:     COMMON   BANK0   BANK1   BANK3   BANK2
  1044 ;;      Params:         0       0       0       0       0
  1045 ;;      Locals:         1       0       0       0       0
  1046 ;;      Temps:          0       0       0       0       0
  1047 ;;      Totals:         1       0       0       0       0
  1048 ;;Total ram usage:        1 bytes
  1049 ;; Hardware stack levels used:    1
  1050 ;; Hardware stack levels required when called:    1
  1051 ;; This function calls:
  1052 ;;		_delay
  1053 ;; This function is called by:
  1054 ;;		_new
  1055 ;;		_main
  1056 ;; This function uses a non-reentrant model
  1057 ;;
  1058                           psect	text93
  1059                           	file	"D:\Embedded\pic\code\software\protocal\GSM\GSM_msg_call\gsm_msg_call.c"
  1060                           	line	28
  1061                           	global	__size_of_tran
  1062  0015                     	__size_of_tran	equ	__end_of_tran-_tran
  1063                           	
  1064  06B3                     _tran:	
  1065                           	opt	stack 6
  1066                           ; Regs used in _tran: [wreg+status,2+status,0+pclath+cstack]
  1067                           ;tran@data stored from wreg
  1068  06B3  00F2               	movwf	(tran@data)
  1069                           	line	29
  1070                           	
  1071  06B4                     l2225:	
  1072                           ;gsm_msg_call.c: 29: TXREG=data;
  1073  06B4  0872               	movf	(tran@data),w
  1074  06B5  1283               	bcf	status, 5	;RP0=0, select bank0
  1075  06B6  1303               	bcf	status, 6	;RP1=0, select bank0
  1076  06B7  0099               	movwf	(25)	;volatile
  1077                           	line	30
  1078                           ;gsm_msg_call.c: 30: while(TXIF==0);
  1079  06B8  2EB9               	goto	l1041
  1080                           	
  1081  06B9                     l1042:	
  1082                           	
  1083  06B9                     l1041:	
  1084  06B9  1E0C               	btfss	(100/8),(100)&7
  1085  06BA  2EBC               	goto	u2181
  1086  06BB  2EBD               	goto	u2180
  1087  06BC                     u2181:
  1088  06BC  2EB9               	goto	l1041
  1089  06BD                     u2180:
  1090                           	
  1091  06BD                     l1043:	
  1092                           	line	31
  1093                           ;gsm_msg_call.c: 31: TXIF=0;
  1094  06BD  120C               	bcf	(100/8),(100)&7
  1095                           	line	32
  1096                           	
  1097  06BE                     l2227:	
  1098                           ;gsm_msg_call.c: 32: delay(1000);
  1099  06BE  30E8               	movlw	low(03E8h)
  1100  06BF  00F0               	movwf	(?_delay)
  1101  06C0  3003               	movlw	high(03E8h)
  1102  06C1  00F1               	movwf	((?_delay))+1
  1103  06C2  120A  118A  269F   	fcall	_delay
              120A  118A         
  1104                           	line	33
  1105                           	
  1106  06C7                     l1044:	
  1107  06C7  0008               	return
  1108                           	opt stack 0
  1109                           GLOBAL	__end_of_tran
  1110  06C8                     	__end_of_tran:
  1111 ;; =============== function _tran ends ============
  1112                           
  1113                           	signat	_tran,4216
  1114                           	global	_timer
  1115                           psect	text94,local,class=CODE,delta=2
  1116                           global __ptext94
  1117  06C8                     __ptext94:
  1118                           
  1119 ;; *************** function _timer *****************
  1120 ;; Defined at:
  1121 ;;		line 11 in file "D:\Embedded\pic\code\software\protocal\GSM\GSM_msg_call\gsm_msg_call.c"
  1122 ;; Parameters:    Size  Location     Type
  1123 ;;  sec             2    0[COMMON] int 
  1124 ;; Auto vars:     Size  Location     Type
  1125 ;;		None
  1126 ;; Return value:  Size  Location     Type
  1127 ;;		None               void
  1128 ;; Registers used:
  1129 ;;		wreg, status,2, btemp+1
  1130 ;; Tracked objects:
  1131 ;;		On entry : 0/0
  1132 ;;		On exit  : 0/0
  1133 ;;		Unchanged: 0/0
  1134 ;; Data sizes:     COMMON   BANK0   BANK1   BANK3   BANK2
  1135 ;;      Params:         2       0       0       0       0
  1136 ;;      Locals:         0       0       0       0       0
  1137 ;;      Temps:          0       0       0       0       0
  1138 ;;      Totals:         2       0       0       0       0
  1139 ;;Total ram usage:        2 bytes
  1140 ;; Hardware stack levels used:    1
  1141 ;; This function calls:
  1142 ;;		Nothing
  1143 ;; This function is called by:
  1144 ;;		_main
  1145 ;; This function uses a non-reentrant model
  1146 ;;
  1147                           psect	text94
  1148                           	file	"D:\Embedded\pic\code\software\protocal\GSM\GSM_msg_call\gsm_msg_call.c"
  1149                           	line	11
  1150                           	global	__size_of_timer
  1151  002C                     	__size_of_timer	equ	__end_of_timer-_timer
  1152                           	
  1153  06C8                     _timer:	
  1154                           	opt	stack 7
  1155                           ; Regs used in _timer: [wreg+status,2+btemp+1]
  1156                           	line	12
  1157                           	
  1158  06C8                     l1447:	
  1159                           ;gsm_msg_call.c: 12: while(0<sec)
  1160  06C8  2EE5               	goto	l1457
  1161                           	
  1162  06C9                     l1034:	
  1163                           	line	14
  1164                           ;gsm_msg_call.c: 13: {
  1165                           ;gsm_msg_call.c: 14: if(T0IF==1)
  1166  06C9  1D0B               	btfss	(90/8),(90)&7
  1167  06CA  2ECC               	goto	u21
  1168  06CB  2ECD               	goto	u20
  1169  06CC                     u21:
  1170  06CC  2ED4               	goto	l1035
  1171  06CD                     u20:
  1172                           	line	16
  1173                           	
  1174  06CD                     l1449:	
  1175                           ;gsm_msg_call.c: 15: {
  1176                           ;gsm_msg_call.c: 16: count++;
  1177  06CD  3001               	movlw	low(01h)
  1178  06CE  07F4               	addwf	(_count),f
  1179  06CF  1803               	skipnc
  1180  06D0  0AF5               	incf	(_count+1),f
  1181  06D1  3000               	movlw	high(01h)
  1182  06D2  07F5               	addwf	(_count+1),f
  1183                           	line	17
  1184                           	
  1185  06D3                     l1451:	
  1186                           ;gsm_msg_call.c: 17: T0IF=0;
  1187  06D3  110B               	bcf	(90/8),(90)&7
  1188                           	line	18
  1189                           	
  1190  06D4                     l1035:	
  1191                           	line	19
  1192                           ;gsm_msg_call.c: 18: }
  1193                           ;gsm_msg_call.c: 19: if(count==15)
  1194  06D4  300F               	movlw	0Fh
  1195  06D5  0674               	xorwf	(_count),w
  1196  06D6  0475               	iorwf	(_count+1),w
  1197  06D7  1D03               	skipz
  1198  06D8  2EDA               	goto	u31
  1199  06D9  2EDB               	goto	u30
  1200  06DA                     u31:
  1201  06DA  2EE5               	goto	l1457
  1202  06DB                     u30:
  1203                           	line	21
  1204                           	
  1205  06DB                     l1453:	
  1206                           ;gsm_msg_call.c: 20: {
  1207                           ;gsm_msg_call.c: 21: count=0;
  1208  06DB  01F4               	clrf	(_count)
  1209  06DC  01F5               	clrf	(_count+1)
  1210                           	line	22
  1211                           	
  1212  06DD                     l1455:	
  1213                           ;gsm_msg_call.c: 22: sec--;
  1214  06DD  30FF               	movlw	low(-1)
  1215  06DE  07F0               	addwf	(timer@sec),f
  1216  06DF  1803               	skipnc
  1217  06E0  0AF1               	incf	(timer@sec+1),f
  1218  06E1  30FF               	movlw	high(-1)
  1219  06E2  07F1               	addwf	(timer@sec+1),f
  1220  06E3  2EE5               	goto	l1457
  1221                           	line	23
  1222                           	
  1223  06E4                     l1036:	
  1224  06E4  2EE5               	goto	l1457
  1225                           	line	24
  1226                           	
  1227  06E5                     l1033:	
  1228                           	line	12
  1229                           	
  1230  06E5                     l1457:	
  1231  06E5  0871               	movf	(timer@sec+1),w
  1232  06E6  3A80               	xorlw	80h
  1233  06E7  00FF               	movwf	btemp+1
  1234  06E8  3080               	movlw	(high(01h))^80h
  1235  06E9  027F               	subwf	btemp+1,w
  1236  06EA  1D03               	skipz
  1237  06EB  2EEE               	goto	u45
  1238  06EC  3001               	movlw	low(01h)
  1239  06ED  0270               	subwf	(timer@sec),w
  1240  06EE                     u45:
  1241                           
  1242  06EE  1803               	skipnc
  1243  06EF  2EF1               	goto	u41
  1244  06F0  2EF2               	goto	u40
  1245  06F1                     u41:
  1246  06F1  2EC9               	goto	l1034
  1247  06F2                     u40:
  1248  06F2  2EF3               	goto	l1038
  1249                           	
  1250  06F3                     l1037:	
  1251                           	line	25
  1252                           	
  1253  06F3                     l1038:	
  1254  06F3  0008               	return
  1255                           	opt stack 0
  1256                           GLOBAL	__end_of_timer
  1257  06F4                     	__end_of_timer:
  1258 ;; =============== function _timer ends ============
  1259                           
  1260                           	signat	_timer,4216
  1261                           	global	_delay
  1262                           psect	text95,local,class=CODE,delta=2
  1263                           global __ptext95
  1264  069F                     __ptext95:
  1265                           
  1266 ;; *************** function _delay *****************
  1267 ;; Defined at:
  1268 ;;		line 7 in file "D:\Embedded\pic\code\software\protocal\GSM\GSM_msg_call\gsm_msg_call.c"
  1269 ;; Parameters:    Size  Location     Type
  1270 ;;  ms              2    0[COMMON] unsigned int 
  1271 ;; Auto vars:     Size  Location     Type
  1272 ;;		None
  1273 ;; Return value:  Size  Location     Type
  1274 ;;		None               void
  1275 ;; Registers used:
  1276 ;;		wreg
  1277 ;; Tracked objects:
  1278 ;;		On entry : 0/0
  1279 ;;		On exit  : 0/0
  1280 ;;		Unchanged: 0/0
  1281 ;; Data sizes:     COMMON   BANK0   BANK1   BANK3   BANK2
  1282 ;;      Params:         2       0       0       0       0
  1283 ;;      Locals:         0       0       0       0       0
  1284 ;;      Temps:          0       0       0       0       0
  1285 ;;      Totals:         2       0       0       0       0
  1286 ;;Total ram usage:        2 bytes
  1287 ;; Hardware stack levels used:    1
  1288 ;; This function calls:
  1289 ;;		Nothing
  1290 ;; This function is called by:
  1291 ;;		_tran
  1292 ;;		_trans
  1293 ;;		_main
  1294 ;; This function uses a non-reentrant model
  1295 ;;
  1296                           psect	text95
  1297                           	file	"D:\Embedded\pic\code\software\protocal\GSM\GSM_msg_call\gsm_msg_call.c"
  1298                           	line	7
  1299                           	global	__size_of_delay
  1300  0014                     	__size_of_delay	equ	__end_of_delay-_delay
  1301                           	
  1302  069F                     _delay:	
  1303                           	opt	stack 6
  1304                           ; Regs used in _delay: [wreg]
  1305                           	line	8
  1306                           	
  1307  069F                     l1443:	
  1308                           ;gsm_msg_call.c: 8: while(ms--);
  1309  069F  2EA1               	goto	l1445
  1310                           	
  1311  06A0                     l1028:	
  1312  06A0  2EA1               	goto	l1445
  1313                           	
  1314  06A1                     l1027:	
  1315                           	
  1316  06A1                     l1445:	
  1317  06A1  3001               	movlw	low(01h)
  1318  06A2  02F0               	subwf	(delay@ms),f
  1319  06A3  3000               	movlw	high(01h)
  1320  06A4  1C03               	skipc
  1321  06A5  03F1               	decf	(delay@ms+1),f
  1322  06A6  02F1               	subwf	(delay@ms+1),f
  1323  06A7  30FF               	movlw	high(0FFFFh)
  1324  06A8  0671               	xorwf	((delay@ms+1)),w
  1325  06A9  1D03               	skipz
  1326  06AA  2EAD               	goto	u15
  1327  06AB  30FF               	movlw	low(0FFFFh)
  1328  06AC  0670               	xorwf	((delay@ms)),w
  1329  06AD                     u15:
  1330                           
  1331  06AD  1D03               	skipz
  1332  06AE  2EB0               	goto	u11
  1333  06AF  2EB1               	goto	u10
  1334  06B0                     u11:
  1335  06B0  2EA1               	goto	l1445
  1336  06B1                     u10:
  1337  06B1  2EB2               	goto	l1030
  1338                           	
  1339  06B2                     l1029:	
  1340                           	line	9
  1341                           	
  1342  06B2                     l1030:	
  1343  06B2  0008               	return
  1344                           	opt stack 0
  1345                           GLOBAL	__end_of_delay
  1346  06B3                     	__end_of_delay:
  1347 ;; =============== function _delay ends ============
  1348                           
  1349                           	signat	_delay,4216
  1350                           psect	text96,local,class=CODE,delta=2
  1351                           global __ptext96
  1352  0000                     __ptext96:
  1353                           	global	btemp
  1354  007E                     	btemp set 07Eh
  1355                           
  1356                           	DABS	1,126,2	;btemp
  1357                           	global	wtemp0
  1358  007E                     	wtemp0 set btemp


HI-TECH Software PICC Macro Assembler V9.81 build 7503 
Symbol Table                                                                                   Mon Jun 27 16:59:53 2022

                   pc 0002                    u10 06B1                    u11 06B0                    u20 06CD  
                  u21 06CC                    u30 06DB                    u15 06AD                    u31 06DA  
                  u40 06F2                    u41 06F1                    u45 06EE                    fsr 0004  
                 _RC0 0038                   _RC1 0039                   _new 0692                   fsr0 0004  
                l1030 06B2                  l1033 06E5                  l1041 06B9                  l1034 06C9  
                l1042 06B9                  l1050 0705                  l1027 06A1                  l1035 06D4  
                l1043 06BD                  l1051 0709                  l1028 06A0                  l1036 06E4  
                l1044 06C7                  l1052 0721                  l1060 078A                  l1029 06B2  
                l1037 06F3                  l1053 0721                  l1061 0783                  l1038 06F3  
                l1070 07FD                  l1062 0783                  l1047 0714                  l1063 078A  
                l1048 06F6                  l1056 069E                  l1064 07FB                  l1049 0705  
                l1065 07F3                  l1066 07F3                  l1067 07FA                  l1059 0738  
                l1068 07FC                  l1069 07FD                  l2231 06F6                  l2225 06B4  
                l2233 0700                  l2241 0722                  l1443 069F                  l1451 06D3  
                l2227 06BE                  l2235 070A                  l2251 0735                  l2243 0726  
                l1445 06A1                  l1453 06DB                  l2237 0714                  l2229 06F5  
                l2261 0757                  l2253 0738                  l2245 0729                  l1455 06DD  
                l1447 06C8                  l2239 0692                  l2271 0779                  l2263 075C  
                l2255 073D                  l2247 072D                  l1449 06CD                  l1457 06E5  
                l2281 07AD                  l2273 078E                  l2265 0765                  l2257 0743  
                l2249 0731                  l2291 07DE                  l2283 07BC                  l2275 0794  
                l2267 076E                  l2259 0748                  l2293 07E4                  l2285 07C1  
                l2277 0799                  l2269 0774                  l2295 07E9                  l2287 07D0  
                l2279 07A8                  l2289 07D5                  ?_new 0070                  STR_1 00C9  
                STR_2 00A9                  STR_3 00C5                  STR_4 00C9                  STR_5 00BB  
                STR_6 0091                  STR_7 0009                  _T0IF 005A                  u2200 0720  
                u2201 071F                  u2210 073D                  u2211 073C                  u2220 0789  
                u2221 0788                  u2230 078E                  u2231 078D                  u2240 07F9  
                u2241 07F8                  u2180 06BD                  u2181 06BC                  u2190 0709  
                u2191 0708                  _TXIF 0064                  _main 0722                  _tran 06B3  
                btemp 007E                  start 0000                 ??_new 0073                 ?_main 0070  
               ?_tran 0070                 _RCSTA 0018                 _SPBRG 0099                 _PORTC 0007  
               _TRISC 0087                 _TXREG 0019                 _TXSTA 0098                 _delay 069F  
               _count 0074                 _timer 06C8                 _trans 06F4                 pclath 000A  
               status 0003                 wtemp0 007E          __end_of_main 0800          __end_of_tran 06C8  
              ??_main 0074                ??_tran 0072                ?_delay 0070                ?_timer 0070  
              ?_trans 0070        __pcstackCOMMON 0070         __end_of_delay 06B3         __end_of_timer 06F4  
       __end_of_trans 0722               ??_delay 0072               ??_timer 0072               ??_trans 0072  
          __pmaintext 0722          __size_of_new 000D               delay@ms 0070  end_of_initialization 068E  
 start_initialization 068C           __end_of_new 069F           __pbssCOMMON 0074             __pstrings 0003  
      __size_of_delay 0014        __size_of_timer 002C        __size_of_trans 002E           __stringbase 0008  
          trans@data1 0073              __ptext90 0000              __ptext91 0692              __ptext92 06F4  
            __ptext93 06B3              __ptext94 06C8              __ptext95 069F              __ptext96 0000  
       __size_of_main 00DE         __size_of_tran 0015             stringcode 0003              timer@sec 0070  
            tran@data 0072            _OPTION_REG 0081              stringdir 0003              stringtab 0003  
