opt subtitle "HI-TECH Software Omniscient Code Generator (Lite mode) build 7503"

opt pagewidth 120

	opt lm

	processor	16F887
clrc	macro
	bcf	3,0
	endm
clrz	macro
	bcf	3,2
	endm
setc	macro
	bsf	3,0
	endm
setz	macro
	bsf	3,2
	endm
skipc	macro
	btfss	3,0
	endm
skipz	macro
	btfss	3,2
	endm
skipnc	macro
	btfsc	3,0
	endm
skipnz	macro
	btfsc	3,2
	endm
indf	equ	0
indf0	equ	0
pc	equ	2
pcl	equ	2
status	equ	3
fsr	equ	4
fsr0	equ	4
c	equ	1
z	equ	0
pclath	equ	10
	FNROOT	_main
	global	main@F1601
psect	idataBANK0,class=CODE,space=0,delta=2
global __pidataBANK0
__pidataBANK0:
	file	"D:\Embedded\pic\code\software\segment\add\add.c"
	line	9

;initializer for main@F1601
	retlw	03Fh
	retlw	06h
	retlw	05Bh
	retlw	04Fh
	retlw	066h
	retlw	06Dh
	retlw	07Dh
	retlw	07h
	retlw	07Fh
	retlw	06Fh
	retlw	0
	retlw	0
	retlw	0
	retlw	0
	retlw	0
	retlw	0
	retlw	0
	retlw	0
	retlw	0
	retlw	0
	global	_PORTB
_PORTB	set	6
	global	_PORTC
_PORTC	set	7
	global	_RC0
_RC0	set	56
	global	_RC1
_RC1	set	57
	global	_RC2
_RC2	set	58
	global	_RC3
_RC3	set	59
	global	_TRISB
_TRISB	set	134
	global	_TRISC
_TRISC	set	135
	global	_ANSEL
_ANSEL	set	392
	global	_ANSELH
_ANSELH	set	393
	file	"add.as"
	line	#
psect cinit,class=CODE,delta=2
global start_initialization
start_initialization:

psect	dataBANK0,class=BANK0,space=1
global __pdataBANK0
__pdataBANK0:
	file	"D:\Embedded\pic\code\software\segment\add\add.c"
main@F1601:
       ds      20

global btemp
psect inittext,class=CODE,delta=2
global init_fetch,btemp
;	Called with low address in FSR and high address in W
init_fetch:
	movf btemp,w
	movwf pclath
	movf btemp+1,w
	movwf pc
global init_ram
;Called with:
;	high address of idata address in btemp 
;	low address of idata address in btemp+1 
;	low address of data in FSR
;	high address + 1 of data in btemp-1
init_ram:
	fcall init_fetch
	movwf indf,f
	incf fsr,f
	movf fsr,w
	xorwf btemp-1,w
	btfsc status,2
	retlw 0
	incf btemp+1,f
	btfsc status,2
	incf btemp,f
	goto init_ram
; Initialize objects allocated to BANK0
psect cinit,class=CODE,delta=2
global init_ram, __pidataBANK0
	bcf	status, 7	;select IRP bank0
	movlw low(__pdataBANK0+20)
	movwf btemp-1,f
	movlw high(__pidataBANK0)
	movwf btemp,f
	movlw low(__pidataBANK0)
	movwf btemp+1,f
	movlw low(__pdataBANK0)
	movwf fsr,f
	fcall init_ram
psect cinit,class=CODE,delta=2
global end_of_initialization

;End of C runtime variable initialization code

end_of_initialization:
clrf status
ljmp _main	;jump to C main() function
psect	cstackCOMMON,class=COMMON,space=1
global __pcstackCOMMON
__pcstackCOMMON:
	global	?_main
?_main:	; 0 bytes @ 0x0
	global	??_main
??_main:	; 0 bytes @ 0x0
	ds	4
psect	cstackBANK0,class=BANK0,space=1
global __pcstackBANK0
__pcstackBANK0:
	global	main@seg
main@seg:	; 20 bytes @ 0x0
	ds	20
	global	main@i
main@i:	; 2 bytes @ 0x14
	ds	2
;;Data sizes: Strings 0, constant 0, data 20, bss 0, persistent 0 stack 0
;;Auto spaces:   Size  Autos    Used
;; COMMON          14      4       4
;; BANK0           80     22      42
;; BANK1           80      0       0
;; BANK3           96      0       0
;; BANK2           96      0       0

;;
;; Pointer list with targets:



;;
;; Critical Paths under _main in COMMON
;;
;;   None.
;;
;; Critical Paths under _main in BANK0
;;
;;   None.
;;
;; Critical Paths under _main in BANK1
;;
;;   None.
;;
;; Critical Paths under _main in BANK3
;;
;;   None.
;;
;; Critical Paths under _main in BANK2
;;
;;   None.

;;
;;Main: autosize = 0, tempsize = 4, incstack = 0, save=0
;;

;;
;;Call Graph Tables:
;;
;; ---------------------------------------------------------------------------------
;; (Depth) Function   	        Calls       Base Space   Used Autos Params    Refs
;; ---------------------------------------------------------------------------------
;; (0) _main                                                26    26      0      50
;;                                              0 COMMON     4     4      0
;;                                              0 BANK0     22    22      0
;; ---------------------------------------------------------------------------------
;; Estimated maximum stack depth 0
;; ---------------------------------------------------------------------------------

;; Call Graph Graphs:

;; _main (ROOT)
;;

;; Address spaces:

;;Name               Size   Autos  Total    Cost      Usage
;;BANK3               60      0       0       9        0.0%
;;BITBANK3            60      0       0       8        0.0%
;;SFR3                 0      0       0       4        0.0%
;;BITSFR3              0      0       0       4        0.0%
;;BANK2               60      0       0      11        0.0%
;;BITBANK2            60      0       0      10        0.0%
;;SFR2                 0      0       0       5        0.0%
;;BITSFR2              0      0       0       5        0.0%
;;SFR1                 0      0       0       2        0.0%
;;BITSFR1              0      0       0       2        0.0%
;;BANK1               50      0       0       7        0.0%
;;BITBANK1            50      0       0       6        0.0%
;;CODE                 0      0       0       0        0.0%
;;DATA                 0      0      2E      12        0.0%
;;ABS                  0      0      2E       3        0.0%
;;NULL                 0      0       0       0        0.0%
;;STACK                0      0       0       2        0.0%
;;BANK0               50     16      2A       5       52.5%
;;BITBANK0            50      0       0       4        0.0%
;;SFR0                 0      0       0       1        0.0%
;;BITSFR0              0      0       0       1        0.0%
;;COMMON               E      4       4       1       28.6%
;;BITCOMMON            E      0       0       0        0.0%
;;EEDATA             100      0       0       0        0.0%

	global	_main
psect	maintext,global,class=CODE,delta=2
global __pmaintext
__pmaintext:

;; *************** function _main *****************
;; Defined at:
;;		line 7 in file "D:\Embedded\pic\code\software\segment\add\add.c"
;; Parameters:    Size  Location     Type
;;		None
;; Auto vars:     Size  Location     Type
;;  seg            20    0[BANK0 ] unsigned char [20]
;;  i               2   20[BANK0 ] int 
;; Return value:  Size  Location     Type
;;		None               void
;; Registers used:
;;		wreg, fsr0l, fsr0h, status,2, status,0
;; Tracked objects:
;;		On entry : 17F/0
;;		On exit  : 0/0
;;		Unchanged: 0/0
;; Data sizes:     COMMON   BANK0   BANK1   BANK3   BANK2
;;      Params:         0       0       0       0       0
;;      Locals:         0      22       0       0       0
;;      Temps:          4       0       0       0       0
;;      Totals:         4      22       0       0       0
;;Total ram usage:       26 bytes
;; This function calls:
;;		Nothing
;; This function is called by:
;;		Startup code after reset
;; This function uses a non-reentrant model
;;
psect	maintext
	file	"D:\Embedded\pic\code\software\segment\add\add.c"
	line	7
	global	__size_of_main
	__size_of_main	equ	__end_of_main-_main
	
_main:	
	opt	stack 8
; Regs used in _main: [wreg-fsr0h+status,2+status,0]
	line	9
	
l2204:	
;add.c: 8: int i;
;add.c: 9: char seg[20]={0X3F,0X06,0X5B,0X4F,0X66,0X6D,0X7D,0X07,0X7F,0X6F};
	movlw	(main@seg)&0ffh
	movwf	fsr0
	movlw	low(main@F1601)
	movwf	(??_main+0)+0
	movf	fsr0,w
	movwf	((??_main+0)+0+1)
	movlw	20
	movwf	((??_main+0)+0+2)
u2220:
	movf	(??_main+0)+0,w
	movwf	fsr0
	bcf	status, 7	;select IRP bank0
	
	movf	indf,w
	movwf	((??_main+0)+0+3)
	incf	(??_main+0)+0,f
	movf	((??_main+0)+0+1),w
	movwf	fsr0
	
	movf	((??_main+0)+0+3),w
	movwf	indf
	incf	((??_main+0)+0+1),f
	decfsz	((??_main+0)+0+2),f
	goto	u2220
	line	10
	
l2206:	
;add.c: 10: PORTB=0X00;
	bcf	status, 5	;RP0=0, select bank0
	bcf	status, 6	;RP1=0, select bank0
	clrf	(6)	;volatile
	line	11
	
l2208:	
;add.c: 11: TRISB=0X00;
	bsf	status, 5	;RP0=1, select bank1
	bcf	status, 6	;RP1=0, select bank1
	clrf	(134)^080h	;volatile
	line	12
	
l2210:	
;add.c: 12: PORTC=0X00;
	bcf	status, 5	;RP0=0, select bank0
	bcf	status, 6	;RP1=0, select bank0
	clrf	(7)	;volatile
	line	13
	
l2212:	
;add.c: 13: TRISC=0X0F;
	movlw	(0Fh)
	bsf	status, 5	;RP0=1, select bank1
	bcf	status, 6	;RP1=0, select bank1
	movwf	(135)^080h	;volatile
	line	14
	
l2214:	
;add.c: 14: ANSEL=0X00;
	bsf	status, 5	;RP0=1, select bank3
	bsf	status, 6	;RP1=1, select bank3
	clrf	(392)^0180h	;volatile
	line	15
	
l2216:	
;add.c: 15: ANSELH=0X00;
	clrf	(393)^0180h	;volatile
	line	16
	
l2218:	
;add.c: 16: i=0;
	bcf	status, 5	;RP0=0, select bank0
	bcf	status, 6	;RP1=0, select bank0
	clrf	(main@i)
	clrf	(main@i+1)
	goto	l2220
	line	17
;add.c: 17: while(1)
	
l1027:	
	line	19
	
l2220:	
;add.c: 18: {
;add.c: 19: if(RC0==1)
	btfss	(56/8),(56)&7
	goto	u2231
	goto	u2230
u2231:
	goto	l1028
u2230:
	line	21
	
l2222:	
;add.c: 20: {
;add.c: 21: i++;
	movlw	low(01h)
	addwf	(main@i),f
	skipnc
	incf	(main@i+1),f
	movlw	high(01h)
	addwf	(main@i+1),f
	line	22
;add.c: 22: while(RC0==1);
	goto	l1029
	
l1030:	
	
l1029:	
	btfsc	(56/8),(56)&7
	goto	u2241
	goto	u2240
u2241:
	goto	l1029
u2240:
	goto	l1028
	
l1031:	
	line	23
	
l1028:	
	line	24
;add.c: 23: }
;add.c: 24: if(RC1==1)
	btfss	(57/8),(57)&7
	goto	u2251
	goto	u2250
u2251:
	goto	l1032
u2250:
	line	26
	
l2224:	
;add.c: 25: {
;add.c: 26: i++;
	movlw	low(01h)
	addwf	(main@i),f
	skipnc
	incf	(main@i+1),f
	movlw	high(01h)
	addwf	(main@i+1),f
	line	27
;add.c: 27: while(RC1==1);
	goto	l1033
	
l1034:	
	
l1033:	
	btfsc	(57/8),(57)&7
	goto	u2261
	goto	u2260
u2261:
	goto	l1033
u2260:
	goto	l1032
	
l1035:	
	line	28
	
l1032:	
	line	29
;add.c: 28: }
;add.c: 29: if(RC2==1)
	btfss	(58/8),(58)&7
	goto	u2271
	goto	u2270
u2271:
	goto	l1036
u2270:
	line	31
	
l2226:	
;add.c: 30: {
;add.c: 31: PORTB=seg[i];
	movf	(main@i),w
	addlw	main@seg&0ffh
	movwf	fsr0
	bcf	status, 7	;select IRP bank0
	movf	indf,w
	movwf	(6)	;volatile
	line	32
;add.c: 32: while(RC2==1);
	goto	l1037
	
l1038:	
	
l1037:	
	btfsc	(58/8),(58)&7
	goto	u2281
	goto	u2280
u2281:
	goto	l1037
u2280:
	goto	l1036
	
l1039:	
	line	33
	
l1036:	
	line	34
;add.c: 33: }
;add.c: 34: if(RC3==1)
	btfss	(59/8),(59)&7
	goto	u2291
	goto	u2290
u2291:
	goto	l2220
u2290:
	line	36
	
l2228:	
;add.c: 35: {
;add.c: 36: i=0;
	clrf	(main@i)
	clrf	(main@i+1)
	goto	l2220
	line	37
	
l1040:	
	goto	l2220
	line	38
	
l1041:	
	line	17
	goto	l2220
	
l1042:	
	line	39
	
l1043:	
	global	start
	ljmp	start
	opt stack 0
GLOBAL	__end_of_main
	__end_of_main:
;; =============== function _main ends ============

	signat	_main,88
psect	maintext
	global	btemp
	btemp set 07Eh

	DABS	1,126,2	;btemp
	global	wtemp0
	wtemp0 set btemp
	end
