opt subtitle "HI-TECH Software Omniscient Code Generator (Lite mode) build 7503"

opt pagewidth 120

	opt lm

	processor	16F887
clrc	macro
	bcf	3,0
	endm
clrz	macro
	bcf	3,2
	endm
setc	macro
	bsf	3,0
	endm
setz	macro
	bsf	3,2
	endm
skipc	macro
	btfss	3,0
	endm
skipz	macro
	btfss	3,2
	endm
skipnc	macro
	btfsc	3,0
	endm
skipnz	macro
	btfsc	3,2
	endm
indf	equ	0
indf0	equ	0
pc	equ	2
pcl	equ	2
status	equ	3
fsr	equ	4
fsr0	equ	4
c	equ	1
z	equ	0
pclath	equ	10
	FNCALL	_main,_lcd_cmd
	FNCALL	_lcd_cmd,_pulse
	FNCALL	_pulse,_delay
	FNROOT	_main
	global	_PORTB
psect	text78,local,class=CODE,delta=2
global __ptext78
__ptext78:
_PORTB	set	6
	global	_PORTE
_PORTE	set	9
	global	_RE0
_RE0	set	72
	global	_RE1
_RE1	set	73
	global	_RE2
_RE2	set	74
	global	_TRISB
_TRISB	set	134
	global	_TRISE
_TRISE	set	137
	global	_ANSEL
_ANSEL	set	392
	global	_ANSELH
_ANSELH	set	393
	file	"lcd_basic1.as"
	line	#
psect cinit,class=CODE,delta=2
global start_initialization
start_initialization:

psect cinit,class=CODE,delta=2
global end_of_initialization

;End of C runtime variable initialization code

end_of_initialization:
clrf status
ljmp _main	;jump to C main() function
psect	cstackCOMMON,class=COMMON,space=1
global __pcstackCOMMON
__pcstackCOMMON:
	global	?_delay
?_delay:	; 0 bytes @ 0x0
	global	?_pulse
?_pulse:	; 0 bytes @ 0x0
	global	?_main
?_main:	; 0 bytes @ 0x0
	global	delay@a
delay@a:	; 2 bytes @ 0x0
	ds	2
	global	??_delay
??_delay:	; 0 bytes @ 0x2
	global	??_pulse
??_pulse:	; 0 bytes @ 0x2
	global	?_lcd_cmd
?_lcd_cmd:	; 0 bytes @ 0x2
	global	lcd_cmd@b
lcd_cmd@b:	; 1 bytes @ 0x2
	ds	1
	global	lcd_cmd@c
lcd_cmd@c:	; 1 bytes @ 0x3
	ds	1
	global	??_lcd_cmd
??_lcd_cmd:	; 0 bytes @ 0x4
	global	lcd_cmd@a
lcd_cmd@a:	; 1 bytes @ 0x4
	ds	1
	global	??_main
??_main:	; 0 bytes @ 0x5
	ds	1
;;Data sizes: Strings 0, constant 0, data 0, bss 0, persistent 0 stack 0
;;Auto spaces:   Size  Autos    Used
;; COMMON          14      6       6
;; BANK0           80      0       0
;; BANK1           80      0       0
;; BANK3           96      0       0
;; BANK2           96      0       0

;;
;; Pointer list with targets:



;;
;; Critical Paths under _main in COMMON
;;
;;   _main->_lcd_cmd
;;   _pulse->_delay
;;
;; Critical Paths under _main in BANK0
;;
;;   None.
;;
;; Critical Paths under _main in BANK1
;;
;;   None.
;;
;; Critical Paths under _main in BANK3
;;
;;   None.
;;
;; Critical Paths under _main in BANK2
;;
;;   None.

;;
;;Main: autosize = 0, tempsize = 1, incstack = 0, save=0
;;

;;
;;Call Graph Tables:
;;
;; ---------------------------------------------------------------------------------
;; (Depth) Function   	        Calls       Base Space   Used Autos Params    Refs
;; ---------------------------------------------------------------------------------
;; (0) _main                                                 1     1      0      60
;;                                              5 COMMON     1     1      0
;;                            _lcd_cmd
;; ---------------------------------------------------------------------------------
;; (1) _lcd_cmd                                              3     1      2      60
;;                                              2 COMMON     3     1      2
;;                              _pulse
;; ---------------------------------------------------------------------------------
;; (2) _pulse                                                0     0      0      15
;;                              _delay
;; ---------------------------------------------------------------------------------
;; (3) _delay                                                2     0      2      15
;;                                              0 COMMON     2     0      2
;; ---------------------------------------------------------------------------------
;; Estimated maximum stack depth 3
;; ---------------------------------------------------------------------------------

;; Call Graph Graphs:

;; _main (ROOT)
;;   _lcd_cmd
;;     _pulse
;;       _delay
;;

;; Address spaces:

;;Name               Size   Autos  Total    Cost      Usage
;;BITCOMMON            E      0       0       0        0.0%
;;EEDATA             100      0       0       0        0.0%
;;NULL                 0      0       0       0        0.0%
;;CODE                 0      0       0       0        0.0%
;;COMMON               E      6       6       1       42.9%
;;BITSFR0              0      0       0       1        0.0%
;;SFR0                 0      0       0       1        0.0%
;;BITSFR1              0      0       0       2        0.0%
;;SFR1                 0      0       0       2        0.0%
;;STACK                0      0       3       2        0.0%
;;ABS                  0      0       0       3        0.0%
;;BITBANK0            50      0       0       4        0.0%
;;BITSFR3              0      0       0       4        0.0%
;;SFR3                 0      0       0       4        0.0%
;;BANK0               50      0       0       5        0.0%
;;BITSFR2              0      0       0       5        0.0%
;;SFR2                 0      0       0       5        0.0%
;;BITBANK1            50      0       0       6        0.0%
;;BANK1               50      0       0       7        0.0%
;;BITBANK3            60      0       0       8        0.0%
;;BANK3               60      0       0       9        0.0%
;;BITBANK2            60      0       0      10        0.0%
;;BANK2               60      0       0      11        0.0%
;;DATA                 0      0       0      12        0.0%

	global	_main
psect	maintext,global,class=CODE,delta=2
global __pmaintext
__pmaintext:

;; *************** function _main *****************
;; Defined at:
;;		line 29 in file "D:\Embedded\pic\code\software\LCD\lcd_basic1\lcd_basic1.c"
;; Parameters:    Size  Location     Type
;;		None
;; Auto vars:     Size  Location     Type
;;		None
;; Return value:  Size  Location     Type
;;		None               void
;; Registers used:
;;		wreg, status,2, status,0, pclath, cstack
;; Tracked objects:
;;		On entry : 17F/0
;;		On exit  : 0/0
;;		Unchanged: 0/0
;; Data sizes:     COMMON   BANK0   BANK1   BANK3   BANK2
;;      Params:         0       0       0       0       0
;;      Locals:         0       0       0       0       0
;;      Temps:          1       0       0       0       0
;;      Totals:         1       0       0       0       0
;;Total ram usage:        1 bytes
;; Hardware stack levels required when called:    3
;; This function calls:
;;		_lcd_cmd
;; This function is called by:
;;		Startup code after reset
;; This function uses a non-reentrant model
;;
psect	maintext
	file	"D:\Embedded\pic\code\software\LCD\lcd_basic1\lcd_basic1.c"
	line	29
	global	__size_of_main
	__size_of_main	equ	__end_of_main-_main
	
_main:	
	opt	stack 5
; Regs used in _main: [wreg+status,2+status,0+pclath+cstack]
	line	30
	
l2191:	
;lcd_basic1.c: 30: PORTB=0X00;
	bcf	status, 5	;RP0=0, select bank0
	bcf	status, 6	;RP1=0, select bank0
	clrf	(6)	;volatile
	line	31
;lcd_basic1.c: 31: TRISB=0X00;
	bsf	status, 5	;RP0=1, select bank1
	bcf	status, 6	;RP1=0, select bank1
	clrf	(134)^080h	;volatile
	line	32
;lcd_basic1.c: 32: PORTE=0X00;
	bcf	status, 5	;RP0=0, select bank0
	bcf	status, 6	;RP1=0, select bank0
	clrf	(9)	;volatile
	line	33
;lcd_basic1.c: 33: TRISE=0X00;
	bsf	status, 5	;RP0=1, select bank1
	bcf	status, 6	;RP1=0, select bank1
	clrf	(137)^080h	;volatile
	line	34
;lcd_basic1.c: 34: ANSEL=0X00;
	bsf	status, 5	;RP0=1, select bank3
	bsf	status, 6	;RP1=1, select bank3
	clrf	(392)^0180h	;volatile
	line	35
;lcd_basic1.c: 35: ANSELH=0X00;
	clrf	(393)^0180h	;volatile
	line	36
	
l2193:	
;lcd_basic1.c: 36: lcd_cmd(0,0,0X38);
	clrf	(?_lcd_cmd)
	movlw	(038h)
	movwf	(??_main+0)+0
	movf	(??_main+0)+0,w
	movwf	0+(?_lcd_cmd)+01h
	movlw	(0)
	fcall	_lcd_cmd
	line	37
	
l2195:	
;lcd_basic1.c: 37: lcd_cmd(0,0,0X0F);
	clrf	(?_lcd_cmd)
	movlw	(0Fh)
	movwf	(??_main+0)+0
	movf	(??_main+0)+0,w
	movwf	0+(?_lcd_cmd)+01h
	movlw	(0)
	fcall	_lcd_cmd
	goto	l2197
	line	38
;lcd_basic1.c: 38: while(1)
	
l1037:	
	line	40
	
l2197:	
;lcd_basic1.c: 39: {
;lcd_basic1.c: 40: lcd_cmd(0,0,0XC0);
	clrf	(?_lcd_cmd)
	movlw	(0C0h)
	movwf	(??_main+0)+0
	movf	(??_main+0)+0,w
	movwf	0+(?_lcd_cmd)+01h
	movlw	(0)
	fcall	_lcd_cmd
	line	41
	
l2199:	
;lcd_basic1.c: 41: lcd_cmd(1,0,'a');
	clrf	(?_lcd_cmd)
	movlw	(061h)
	movwf	(??_main+0)+0
	movf	(??_main+0)+0,w
	movwf	0+(?_lcd_cmd)+01h
	movlw	(01h)
	fcall	_lcd_cmd
	line	43
	
l2201:	
;lcd_basic1.c: 43: lcd_cmd(0,0,0X80);
	clrf	(?_lcd_cmd)
	movlw	(080h)
	movwf	(??_main+0)+0
	movf	(??_main+0)+0,w
	movwf	0+(?_lcd_cmd)+01h
	movlw	(0)
	fcall	_lcd_cmd
	line	44
	
l2203:	
;lcd_basic1.c: 44: lcd_cmd(1,0,'A');
	clrf	(?_lcd_cmd)
	movlw	(041h)
	movwf	(??_main+0)+0
	movf	(??_main+0)+0,w
	movwf	0+(?_lcd_cmd)+01h
	movlw	(01h)
	fcall	_lcd_cmd
	goto	l2197
	line	46
	
l1038:	
	line	38
	goto	l2197
	
l1039:	
	line	47
	
l1040:	
	global	start
	ljmp	start
	opt stack 0
GLOBAL	__end_of_main
	__end_of_main:
;; =============== function _main ends ============

	signat	_main,88
	global	_lcd_cmd
psect	text79,local,class=CODE,delta=2
global __ptext79
__ptext79:

;; *************** function _lcd_cmd *****************
;; Defined at:
;;		line 22 in file "D:\Embedded\pic\code\software\LCD\lcd_basic1\lcd_basic1.c"
;; Parameters:    Size  Location     Type
;;  a               1    wreg     unsigned char 
;;  b               1    2[COMMON] unsigned char 
;;  c               1    3[COMMON] unsigned char 
;; Auto vars:     Size  Location     Type
;;  a               1    4[COMMON] unsigned char 
;; Return value:  Size  Location     Type
;;		None               void
;; Registers used:
;;		wreg, status,2, status,0, pclath, cstack
;; Tracked objects:
;;		On entry : 0/0
;;		On exit  : 0/0
;;		Unchanged: 0/0
;; Data sizes:     COMMON   BANK0   BANK1   BANK3   BANK2
;;      Params:         2       0       0       0       0
;;      Locals:         1       0       0       0       0
;;      Temps:          0       0       0       0       0
;;      Totals:         3       0       0       0       0
;;Total ram usage:        3 bytes
;; Hardware stack levels used:    1
;; Hardware stack levels required when called:    2
;; This function calls:
;;		_pulse
;; This function is called by:
;;		_main
;; This function uses a non-reentrant model
;;
psect	text79
	file	"D:\Embedded\pic\code\software\LCD\lcd_basic1\lcd_basic1.c"
	line	22
	global	__size_of_lcd_cmd
	__size_of_lcd_cmd	equ	__end_of_lcd_cmd-_lcd_cmd
	
_lcd_cmd:	
	opt	stack 5
; Regs used in _lcd_cmd: [wreg+status,2+status,0+pclath+cstack]
;lcd_cmd@a stored from wreg
	movwf	(lcd_cmd@a)
	line	23
	
l2185:	
;lcd_basic1.c: 23: RE0=a;
	btfsc	(lcd_cmd@a),0
	goto	u2151
	goto	u2150
	
u2151:
	bcf	status, 5	;RP0=0, select bank0
	bcf	status, 6	;RP1=0, select bank0
	bsf	(72/8),(72)&7
	goto	u2164
u2150:
	bcf	status, 5	;RP0=0, select bank0
	bcf	status, 6	;RP1=0, select bank0
	bcf	(72/8),(72)&7
u2164:
	line	24
;lcd_basic1.c: 24: RE1=b;
	btfsc	(lcd_cmd@b),0
	goto	u2171
	goto	u2170
	
u2171:
	bcf	status, 5	;RP0=0, select bank0
	bcf	status, 6	;RP1=0, select bank0
	bsf	(73/8),(73)&7
	goto	u2184
u2170:
	bcf	status, 5	;RP0=0, select bank0
	bcf	status, 6	;RP1=0, select bank0
	bcf	(73/8),(73)&7
u2184:
	line	25
	
l2187:	
;lcd_basic1.c: 25: PORTB=c;
	movf	(lcd_cmd@c),w
	movwf	(6)	;volatile
	line	26
	
l2189:	
;lcd_basic1.c: 26: pulse();
	fcall	_pulse
	line	27
	
l1034:	
	return
	opt stack 0
GLOBAL	__end_of_lcd_cmd
	__end_of_lcd_cmd:
;; =============== function _lcd_cmd ends ============

	signat	_lcd_cmd,12408
	global	_pulse
psect	text80,local,class=CODE,delta=2
global __ptext80
__ptext80:

;; *************** function _pulse *****************
;; Defined at:
;;		line 14 in file "D:\Embedded\pic\code\software\LCD\lcd_basic1\lcd_basic1.c"
;; Parameters:    Size  Location     Type
;;		None
;; Auto vars:     Size  Location     Type
;;		None
;; Return value:  Size  Location     Type
;;		None               void
;; Registers used:
;;		wreg, status,2, status,0, pclath, cstack
;; Tracked objects:
;;		On entry : 0/0
;;		On exit  : 0/0
;;		Unchanged: 0/0
;; Data sizes:     COMMON   BANK0   BANK1   BANK3   BANK2
;;      Params:         0       0       0       0       0
;;      Locals:         0       0       0       0       0
;;      Temps:          0       0       0       0       0
;;      Totals:         0       0       0       0       0
;;Total ram usage:        0 bytes
;; Hardware stack levels used:    1
;; Hardware stack levels required when called:    1
;; This function calls:
;;		_delay
;; This function is called by:
;;		_lcd_cmd
;; This function uses a non-reentrant model
;;
psect	text80
	file	"D:\Embedded\pic\code\software\LCD\lcd_basic1\lcd_basic1.c"
	line	14
	global	__size_of_pulse
	__size_of_pulse	equ	__end_of_pulse-_pulse
	
_pulse:	
	opt	stack 5
; Regs used in _pulse: [wreg+status,2+status,0+pclath+cstack]
	line	16
	
l2179:	
;lcd_basic1.c: 16: RE2=1;
	bcf	status, 5	;RP0=0, select bank0
	bcf	status, 6	;RP1=0, select bank0
	bsf	(74/8),(74)&7
	line	17
	
l2181:	
;lcd_basic1.c: 17: delay(1000);
	movlw	low(03E8h)
	movwf	(?_delay)
	movlw	high(03E8h)
	movwf	((?_delay))+1
	fcall	_delay
	line	18
	
l2183:	
;lcd_basic1.c: 18: RE2=0;
	bcf	status, 5	;RP0=0, select bank0
	bcf	status, 6	;RP1=0, select bank0
	bcf	(74/8),(74)&7
	line	19
;lcd_basic1.c: 19: delay(1000);
	movlw	low(03E8h)
	movwf	(?_delay)
	movlw	high(03E8h)
	movwf	((?_delay))+1
	fcall	_delay
	line	20
	
l1031:	
	return
	opt stack 0
GLOBAL	__end_of_pulse
	__end_of_pulse:
;; =============== function _pulse ends ============

	signat	_pulse,88
	global	_delay
psect	text81,local,class=CODE,delta=2
global __ptext81
__ptext81:

;; *************** function _delay *****************
;; Defined at:
;;		line 10 in file "D:\Embedded\pic\code\software\LCD\lcd_basic1\lcd_basic1.c"
;; Parameters:    Size  Location     Type
;;  a               2    0[COMMON] unsigned int 
;; Auto vars:     Size  Location     Type
;;		None
;; Return value:  Size  Location     Type
;;		None               void
;; Registers used:
;;		wreg
;; Tracked objects:
;;		On entry : 0/0
;;		On exit  : 0/0
;;		Unchanged: 0/0
;; Data sizes:     COMMON   BANK0   BANK1   BANK3   BANK2
;;      Params:         2       0       0       0       0
;;      Locals:         0       0       0       0       0
;;      Temps:          0       0       0       0       0
;;      Totals:         2       0       0       0       0
;;Total ram usage:        2 bytes
;; Hardware stack levels used:    1
;; This function calls:
;;		Nothing
;; This function is called by:
;;		_pulse
;; This function uses a non-reentrant model
;;
psect	text81
	file	"D:\Embedded\pic\code\software\LCD\lcd_basic1\lcd_basic1.c"
	line	10
	global	__size_of_delay
	__size_of_delay	equ	__end_of_delay-_delay
	
_delay:	
	opt	stack 5
; Regs used in _delay: [wreg]
	line	11
	
l1409:	
;lcd_basic1.c: 11: while(a--);
	goto	l1411
	
l1026:	
	goto	l1411
	
l1025:	
	
l1411:	
	movlw	low(01h)
	subwf	(delay@a),f
	movlw	high(01h)
	skipc
	decf	(delay@a+1),f
	subwf	(delay@a+1),f
	movlw	high(0FFFFh)
	xorwf	((delay@a+1)),w
	skipz
	goto	u15
	movlw	low(0FFFFh)
	xorwf	((delay@a)),w
u15:

	skipz
	goto	u11
	goto	u10
u11:
	goto	l1411
u10:
	goto	l1028
	
l1027:	
	line	12
	
l1028:	
	return
	opt stack 0
GLOBAL	__end_of_delay
	__end_of_delay:
;; =============== function _delay ends ============

	signat	_delay,4216
psect	text82,local,class=CODE,delta=2
global __ptext82
__ptext82:
	global	btemp
	btemp set 07Eh

	DABS	1,126,2	;btemp
	global	wtemp0
	wtemp0 set btemp
	end
