opt subtitle "HI-TECH Software Omniscient Code Generator (Lite mode) build 7503"

opt pagewidth 120

	opt lm

	processor	16F887
clrc	macro
	bcf	3,0
	endm
clrz	macro
	bcf	3,2
	endm
setc	macro
	bsf	3,0
	endm
setz	macro
	bsf	3,2
	endm
skipc	macro
	btfss	3,0
	endm
skipz	macro
	btfss	3,2
	endm
skipnc	macro
	btfsc	3,0
	endm
skipnz	macro
	btfsc	3,2
	endm
indf	equ	0
indf0	equ	0
pc	equ	2
pcl	equ	2
status	equ	3
fsr	equ	4
fsr0	equ	4
c	equ	1
z	equ	0
pclath	equ	10
	FNCALL	_main,_address
	FNCALL	_main,_display
	FNCALL	_display,_pulse
	FNCALL	_address,_pulse
	FNCALL	_pulse,_delay
	FNROOT	_main
	global	_PORTB
psect	text90,local,class=CODE,delta=2
global __ptext90
__ptext90:
_PORTB	set	6
	global	_PORTE
_PORTE	set	9
	global	_RE0
_RE0	set	72
	global	_RE1
_RE1	set	73
	global	_RE2
_RE2	set	74
	global	_TRISB
_TRISB	set	134
	global	_TRISE
_TRISE	set	137
	global	_ANSEL
_ANSEL	set	392
	global	_ANSELH
_ANSELH	set	393
	file	"4-bit-lcd.as"
	line	#
psect cinit,class=CODE,delta=2
global start_initialization
start_initialization:

psect cinit,class=CODE,delta=2
global end_of_initialization

;End of C runtime variable initialization code

end_of_initialization:
clrf status
ljmp _main	;jump to C main() function
psect	cstackCOMMON,class=COMMON,space=1
global __pcstackCOMMON
__pcstackCOMMON:
	global	?_delay
?_delay:	; 0 bytes @ 0x0
	global	?_pulse
?_pulse:	; 0 bytes @ 0x0
	global	?_address
?_address:	; 0 bytes @ 0x0
	global	?_display
?_display:	; 0 bytes @ 0x0
	global	?_main
?_main:	; 0 bytes @ 0x0
	global	delay@ms
delay@ms:	; 2 bytes @ 0x0
	ds	2
	global	??_delay
??_delay:	; 0 bytes @ 0x2
	global	??_pulse
??_pulse:	; 0 bytes @ 0x2
	global	??_address
??_address:	; 0 bytes @ 0x2
	global	??_display
??_display:	; 0 bytes @ 0x2
	ds	1
	global	address@a
address@a:	; 1 bytes @ 0x3
	global	display@a
display@a:	; 1 bytes @ 0x3
	ds	1
	global	??_main
??_main:	; 0 bytes @ 0x4
;;Data sizes: Strings 0, constant 0, data 0, bss 0, persistent 0 stack 0
;;Auto spaces:   Size  Autos    Used
;; COMMON          14      4       4
;; BANK0           80      0       0
;; BANK1           80      0       0
;; BANK3           96      0       0
;; BANK2           96      0       0

;;
;; Pointer list with targets:



;;
;; Critical Paths under _main in COMMON
;;
;;   _main->_address
;;   _main->_display
;;   _pulse->_delay
;;
;; Critical Paths under _main in BANK0
;;
;;   None.
;;
;; Critical Paths under _main in BANK1
;;
;;   None.
;;
;; Critical Paths under _main in BANK3
;;
;;   None.
;;
;; Critical Paths under _main in BANK2
;;
;;   None.

;;
;;Main: autosize = 0, tempsize = 0, incstack = 0, save=0
;;

;;
;;Call Graph Tables:
;;
;; ---------------------------------------------------------------------------------
;; (Depth) Function   	        Calls       Base Space   Used Autos Params    Refs
;; ---------------------------------------------------------------------------------
;; (0) _main                                                 0     0      0      90
;;                            _address
;;                            _display
;; ---------------------------------------------------------------------------------
;; (1) _display                                              2     2      0      45
;;                                              2 COMMON     2     2      0
;;                              _pulse
;; ---------------------------------------------------------------------------------
;; (1) _address                                              2     2      0      45
;;                                              2 COMMON     2     2      0
;;                              _pulse
;; ---------------------------------------------------------------------------------
;; (2) _pulse                                                0     0      0      15
;;                              _delay
;; ---------------------------------------------------------------------------------
;; (3) _delay                                                2     0      2      15
;;                                              0 COMMON     2     0      2
;; ---------------------------------------------------------------------------------
;; Estimated maximum stack depth 3
;; ---------------------------------------------------------------------------------

;; Call Graph Graphs:

;; _main (ROOT)
;;   _address
;;     _pulse
;;       _delay
;;   _display
;;     _pulse
;;       _delay
;;

;; Address spaces:

;;Name               Size   Autos  Total    Cost      Usage
;;BITCOMMON            E      0       0       0        0.0%
;;EEDATA             100      0       0       0        0.0%
;;NULL                 0      0       0       0        0.0%
;;CODE                 0      0       0       0        0.0%
;;COMMON               E      4       4       1       28.6%
;;BITSFR0              0      0       0       1        0.0%
;;SFR0                 0      0       0       1        0.0%
;;BITSFR1              0      0       0       2        0.0%
;;SFR1                 0      0       0       2        0.0%
;;STACK                0      0       3       2        0.0%
;;ABS                  0      0       0       3        0.0%
;;BITBANK0            50      0       0       4        0.0%
;;BITSFR3              0      0       0       4        0.0%
;;SFR3                 0      0       0       4        0.0%
;;BANK0               50      0       0       5        0.0%
;;BITSFR2              0      0       0       5        0.0%
;;SFR2                 0      0       0       5        0.0%
;;BITBANK1            50      0       0       6        0.0%
;;BANK1               50      0       0       7        0.0%
;;BITBANK3            60      0       0       8        0.0%
;;BANK3               60      0       0       9        0.0%
;;BITBANK2            60      0       0      10        0.0%
;;BANK2               60      0       0      11        0.0%
;;DATA                 0      0       0      12        0.0%

	global	_main
psect	maintext,global,class=CODE,delta=2
global __pmaintext
__pmaintext:

;; *************** function _main *****************
;; Defined at:
;;		line 53 in file "D:\Embedded\pic\code\software\LCD\4-bit\4-bit-lcd.c"
;; Parameters:    Size  Location     Type
;;		None
;; Auto vars:     Size  Location     Type
;;		None
;; Return value:  Size  Location     Type
;;		None               void
;; Registers used:
;;		wreg, status,2, status,0, pclath, cstack
;; Tracked objects:
;;		On entry : 17F/0
;;		On exit  : 0/0
;;		Unchanged: 0/0
;; Data sizes:     COMMON   BANK0   BANK1   BANK3   BANK2
;;      Params:         0       0       0       0       0
;;      Locals:         0       0       0       0       0
;;      Temps:          0       0       0       0       0
;;      Totals:         0       0       0       0       0
;;Total ram usage:        0 bytes
;; Hardware stack levels required when called:    3
;; This function calls:
;;		_address
;;		_display
;; This function is called by:
;;		Startup code after reset
;; This function uses a non-reentrant model
;;
psect	maintext
	file	"D:\Embedded\pic\code\software\LCD\4-bit\4-bit-lcd.c"
	line	53
	global	__size_of_main
	__size_of_main	equ	__end_of_main-_main
	
_main:	
	opt	stack 5
; Regs used in _main: [wreg+status,2+status,0+pclath+cstack]
	line	54
	
l2208:	
;4-bit-lcd.c: 54: TRISB=0X00;
	bsf	status, 5	;RP0=1, select bank1
	bcf	status, 6	;RP1=0, select bank1
	clrf	(134)^080h	;volatile
	line	55
;4-bit-lcd.c: 55: PORTB=0X00;
	bcf	status, 5	;RP0=0, select bank0
	bcf	status, 6	;RP1=0, select bank0
	clrf	(6)	;volatile
	line	56
;4-bit-lcd.c: 56: TRISE=0X00;
	bsf	status, 5	;RP0=1, select bank1
	bcf	status, 6	;RP1=0, select bank1
	clrf	(137)^080h	;volatile
	line	57
;4-bit-lcd.c: 57: PORTE=0X00;
	bcf	status, 5	;RP0=0, select bank0
	bcf	status, 6	;RP1=0, select bank0
	clrf	(9)	;volatile
	line	58
;4-bit-lcd.c: 58: ANSEL=0X00;
	bsf	status, 5	;RP0=1, select bank3
	bsf	status, 6	;RP1=1, select bank3
	clrf	(392)^0180h	;volatile
	line	59
;4-bit-lcd.c: 59: ANSELH=0X00;
	clrf	(393)^0180h	;volatile
	line	60
	
l2210:	
;4-bit-lcd.c: 60: address(0X02);
	movlw	(02h)
	fcall	_address
	line	61
	
l2212:	
;4-bit-lcd.c: 61: address(0X28);
	movlw	(028h)
	fcall	_address
	line	62
	
l2214:	
;4-bit-lcd.c: 62: address(0X0E);
	movlw	(0Eh)
	fcall	_address
	goto	l2216
	line	63
;4-bit-lcd.c: 63: while(1)
	
l1040:	
	line	65
	
l2216:	
;4-bit-lcd.c: 64: {
;4-bit-lcd.c: 65: address(0X80);
	movlw	(080h)
	fcall	_address
	line	66
	
l2218:	
;4-bit-lcd.c: 66: display('B');
	movlw	(042h)
	fcall	_display
	goto	l2216
	line	67
	
l1041:	
	line	63
	goto	l2216
	
l1042:	
	line	68
	
l1043:	
	global	start
	ljmp	start
	opt stack 0
GLOBAL	__end_of_main
	__end_of_main:
;; =============== function _main ends ============

	signat	_main,88
	global	_display
psect	text91,local,class=CODE,delta=2
global __ptext91
__ptext91:

;; *************** function _display *****************
;; Defined at:
;;		line 44 in file "D:\Embedded\pic\code\software\LCD\4-bit\4-bit-lcd.c"
;; Parameters:    Size  Location     Type
;;  a               1    wreg     unsigned char 
;; Auto vars:     Size  Location     Type
;;  a               1    3[COMMON] unsigned char 
;; Return value:  Size  Location     Type
;;		None               void
;; Registers used:
;;		wreg, status,2, status,0, pclath, cstack
;; Tracked objects:
;;		On entry : 0/0
;;		On exit  : 0/0
;;		Unchanged: 0/0
;; Data sizes:     COMMON   BANK0   BANK1   BANK3   BANK2
;;      Params:         0       0       0       0       0
;;      Locals:         1       0       0       0       0
;;      Temps:          1       0       0       0       0
;;      Totals:         2       0       0       0       0
;;Total ram usage:        2 bytes
;; Hardware stack levels used:    1
;; Hardware stack levels required when called:    2
;; This function calls:
;;		_pulse
;; This function is called by:
;;		_main
;; This function uses a non-reentrant model
;;
psect	text91
	file	"D:\Embedded\pic\code\software\LCD\4-bit\4-bit-lcd.c"
	line	44
	global	__size_of_display
	__size_of_display	equ	__end_of_display-_display
	
_display:	
	opt	stack 5
; Regs used in _display: [wreg+status,2+status,0+pclath+cstack]
;display@a stored from wreg
	movwf	(display@a)
	line	45
	
l2198:	
;4-bit-lcd.c: 45: RE0=1;
	bcf	status, 5	;RP0=0, select bank0
	bcf	status, 6	;RP1=0, select bank0
	bsf	(72/8),(72)&7
	line	46
;4-bit-lcd.c: 46: RE1=0;
	bcf	(73/8),(73)&7
	line	47
	
l2200:	
;4-bit-lcd.c: 47: PORTB=a;
	movf	(display@a),w
	movwf	(6)	;volatile
	line	48
	
l2202:	
;4-bit-lcd.c: 48: pulse();
	fcall	_pulse
	line	49
	
l2204:	
;4-bit-lcd.c: 49: PORTB=a<<4;
	movf	(display@a),w
	movwf	(??_display+0)+0
	movlw	(04h)-1
u2165:
	clrc
	rlf	(??_display+0)+0,f
	addlw	-1
	skipz
	goto	u2165
	clrc
	rlf	(??_display+0)+0,w
	bcf	status, 5	;RP0=0, select bank0
	bcf	status, 6	;RP1=0, select bank0
	movwf	(6)	;volatile
	line	50
	
l2206:	
;4-bit-lcd.c: 50: pulse();
	fcall	_pulse
	line	51
	
l1037:	
	return
	opt stack 0
GLOBAL	__end_of_display
	__end_of_display:
;; =============== function _display ends ============

	signat	_display,4216
	global	_address
psect	text92,local,class=CODE,delta=2
global __ptext92
__ptext92:

;; *************** function _address *****************
;; Defined at:
;;		line 35 in file "D:\Embedded\pic\code\software\LCD\4-bit\4-bit-lcd.c"
;; Parameters:    Size  Location     Type
;;  a               1    wreg     unsigned char 
;; Auto vars:     Size  Location     Type
;;  a               1    3[COMMON] unsigned char 
;; Return value:  Size  Location     Type
;;		None               void
;; Registers used:
;;		wreg, status,2, status,0, pclath, cstack
;; Tracked objects:
;;		On entry : 0/0
;;		On exit  : 0/0
;;		Unchanged: 0/0
;; Data sizes:     COMMON   BANK0   BANK1   BANK3   BANK2
;;      Params:         0       0       0       0       0
;;      Locals:         1       0       0       0       0
;;      Temps:          1       0       0       0       0
;;      Totals:         2       0       0       0       0
;;Total ram usage:        2 bytes
;; Hardware stack levels used:    1
;; Hardware stack levels required when called:    2
;; This function calls:
;;		_pulse
;; This function is called by:
;;		_main
;; This function uses a non-reentrant model
;;
psect	text92
	file	"D:\Embedded\pic\code\software\LCD\4-bit\4-bit-lcd.c"
	line	35
	global	__size_of_address
	__size_of_address	equ	__end_of_address-_address
	
_address:	
	opt	stack 5
; Regs used in _address: [wreg+status,2+status,0+pclath+cstack]
;address@a stored from wreg
	movwf	(address@a)
	line	36
	
l2188:	
;4-bit-lcd.c: 36: RE0=0;
	bcf	status, 5	;RP0=0, select bank0
	bcf	status, 6	;RP1=0, select bank0
	bcf	(72/8),(72)&7
	line	37
;4-bit-lcd.c: 37: RE1=0;
	bcf	(73/8),(73)&7
	line	38
	
l2190:	
;4-bit-lcd.c: 38: PORTB=a;
	movf	(address@a),w
	movwf	(6)	;volatile
	line	39
	
l2192:	
;4-bit-lcd.c: 39: pulse();
	fcall	_pulse
	line	40
	
l2194:	
;4-bit-lcd.c: 40: PORTB=a<<4;
	movf	(address@a),w
	movwf	(??_address+0)+0
	movlw	(04h)-1
u2155:
	clrc
	rlf	(??_address+0)+0,f
	addlw	-1
	skipz
	goto	u2155
	clrc
	rlf	(??_address+0)+0,w
	bcf	status, 5	;RP0=0, select bank0
	bcf	status, 6	;RP1=0, select bank0
	movwf	(6)	;volatile
	line	41
	
l2196:	
;4-bit-lcd.c: 41: pulse();
	fcall	_pulse
	line	42
	
l1034:	
	return
	opt stack 0
GLOBAL	__end_of_address
	__end_of_address:
;; =============== function _address ends ============

	signat	_address,4216
	global	_pulse
psect	text93,local,class=CODE,delta=2
global __ptext93
__ptext93:

;; *************** function _pulse *****************
;; Defined at:
;;		line 14 in file "D:\Embedded\pic\code\software\LCD\4-bit\4-bit-lcd.c"
;; Parameters:    Size  Location     Type
;;		None
;; Auto vars:     Size  Location     Type
;;		None
;; Return value:  Size  Location     Type
;;		None               void
;; Registers used:
;;		wreg, status,2, status,0, pclath, cstack
;; Tracked objects:
;;		On entry : 0/0
;;		On exit  : 0/0
;;		Unchanged: 0/0
;; Data sizes:     COMMON   BANK0   BANK1   BANK3   BANK2
;;      Params:         0       0       0       0       0
;;      Locals:         0       0       0       0       0
;;      Temps:          0       0       0       0       0
;;      Totals:         0       0       0       0       0
;;Total ram usage:        0 bytes
;; Hardware stack levels used:    1
;; Hardware stack levels required when called:    1
;; This function calls:
;;		_delay
;; This function is called by:
;;		_address
;;		_display
;; This function uses a non-reentrant model
;;
psect	text93
	file	"D:\Embedded\pic\code\software\LCD\4-bit\4-bit-lcd.c"
	line	14
	global	__size_of_pulse
	__size_of_pulse	equ	__end_of_pulse-_pulse
	
_pulse:	
	opt	stack 5
; Regs used in _pulse: [wreg+status,2+status,0+pclath+cstack]
	line	15
	
l2182:	
;4-bit-lcd.c: 15: RE2=1;
	bcf	status, 5	;RP0=0, select bank0
	bcf	status, 6	;RP1=0, select bank0
	bsf	(74/8),(74)&7
	line	16
	
l2184:	
;4-bit-lcd.c: 16: delay(10000);
	movlw	low(02710h)
	movwf	(?_delay)
	movlw	high(02710h)
	movwf	((?_delay))+1
	fcall	_delay
	line	17
	
l2186:	
;4-bit-lcd.c: 17: RE2=0;
	bcf	status, 5	;RP0=0, select bank0
	bcf	status, 6	;RP1=0, select bank0
	bcf	(74/8),(74)&7
	line	18
;4-bit-lcd.c: 18: delay(10000);
	movlw	low(02710h)
	movwf	(?_delay)
	movlw	high(02710h)
	movwf	((?_delay))+1
	fcall	_delay
	line	19
	
l1031:	
	return
	opt stack 0
GLOBAL	__end_of_pulse
	__end_of_pulse:
;; =============== function _pulse ends ============

	signat	_pulse,88
	global	_delay
psect	text94,local,class=CODE,delta=2
global __ptext94
__ptext94:

;; *************** function _delay *****************
;; Defined at:
;;		line 10 in file "D:\Embedded\pic\code\software\LCD\4-bit\4-bit-lcd.c"
;; Parameters:    Size  Location     Type
;;  ms              2    0[COMMON] unsigned int 
;; Auto vars:     Size  Location     Type
;;		None
;; Return value:  Size  Location     Type
;;		None               void
;; Registers used:
;;		wreg
;; Tracked objects:
;;		On entry : 0/0
;;		On exit  : 0/0
;;		Unchanged: 0/0
;; Data sizes:     COMMON   BANK0   BANK1   BANK3   BANK2
;;      Params:         2       0       0       0       0
;;      Locals:         0       0       0       0       0
;;      Temps:          0       0       0       0       0
;;      Totals:         2       0       0       0       0
;;Total ram usage:        2 bytes
;; Hardware stack levels used:    1
;; This function calls:
;;		Nothing
;; This function is called by:
;;		_pulse
;; This function uses a non-reentrant model
;;
psect	text94
	file	"D:\Embedded\pic\code\software\LCD\4-bit\4-bit-lcd.c"
	line	10
	global	__size_of_delay
	__size_of_delay	equ	__end_of_delay-_delay
	
_delay:	
	opt	stack 5
; Regs used in _delay: [wreg]
	line	11
	
l1412:	
;4-bit-lcd.c: 11: while(ms--);
	goto	l1414
	
l1026:	
	goto	l1414
	
l1025:	
	
l1414:	
	movlw	low(01h)
	subwf	(delay@ms),f
	movlw	high(01h)
	skipc
	decf	(delay@ms+1),f
	subwf	(delay@ms+1),f
	movlw	high(0FFFFh)
	xorwf	((delay@ms+1)),w
	skipz
	goto	u15
	movlw	low(0FFFFh)
	xorwf	((delay@ms)),w
u15:

	skipz
	goto	u11
	goto	u10
u11:
	goto	l1414
u10:
	goto	l1028
	
l1027:	
	line	12
	
l1028:	
	return
	opt stack 0
GLOBAL	__end_of_delay
	__end_of_delay:
;; =============== function _delay ends ============

	signat	_delay,4216
psect	text95,local,class=CODE,delta=2
global __ptext95
__ptext95:
	global	btemp
	btemp set 07Eh

	DABS	1,126,2	;btemp
	global	wtemp0
	wtemp0 set btemp
	end
