opt subtitle "HI-TECH Software Omniscient Code Generator (Lite mode) build 7503"

opt pagewidth 120

	opt lm

	processor	16F887
clrc	macro
	bcf	3,0
	endm
clrz	macro
	bcf	3,2
	endm
setc	macro
	bsf	3,0
	endm
setz	macro
	bsf	3,2
	endm
skipc	macro
	btfss	3,0
	endm
skipz	macro
	btfss	3,2
	endm
skipnc	macro
	btfsc	3,0
	endm
skipnz	macro
	btfsc	3,2
	endm
indf	equ	0
indf0	equ	0
pc	equ	2
pcl	equ	2
status	equ	3
fsr	equ	4
fsr0	equ	4
c	equ	1
z	equ	0
pclath	equ	10
	FNCALL	_main,_lcd_cmd
	FNCALL	_lcd_cmd,_delay
	FNROOT	_main
	global	main@F1694
	global	main@F1696
psect	idataBANK0,class=CODE,space=0,delta=2
global __pidataBANK0
__pidataBANK0:
	file	"D:\Embedded\pic\code\software\LCD\lcd_name\lcd_name.c"
	line	26

;initializer for main@F1694
	retlw	059h
	retlw	06Fh
	retlw	067h
	retlw	065h
	retlw	073h
	retlw	068h
	retlw	06Bh
	retlw	075h
	retlw	06Dh
	retlw	061h
	retlw	072h
	retlw	0
	retlw	0
	retlw	0
	retlw	0
	retlw	0
	retlw	0
	retlw	0
	retlw	0
	retlw	0
psect	idataBANK1,class=CODE,space=0,delta=2
global __pidataBANK1
__pidataBANK1:
	line	27

;initializer for main@F1696
	retlw	045h
	retlw	045h
	retlw	045h
	retlw	0
	retlw	0
	retlw	0
	retlw	0
	retlw	0
	retlw	0
	retlw	0
	retlw	0
	retlw	0
	retlw	0
	retlw	0
	retlw	0
	retlw	0
	retlw	0
	retlw	0
	retlw	0
	retlw	0
	global	_PORTD
_PORTD	set	8
	global	_PORTE
_PORTE	set	9
	global	_RE0
_RE0	set	72
	global	_RE1
_RE1	set	73
	global	_RE2
_RE2	set	74
	global	_TRISD
_TRISD	set	136
	global	_TRISE
_TRISE	set	137
	global	_ANSEL
_ANSEL	set	392
	global	_ANSELH
_ANSELH	set	393
	file	"lcd_name.as"
	line	#
psect cinit,class=CODE,delta=2
global start_initialization
start_initialization:

psect	dataBANK0,class=BANK0,space=1
global __pdataBANK0
__pdataBANK0:
	file	"D:\Embedded\pic\code\software\LCD\lcd_name\lcd_name.c"
	line	26
main@F1694:
       ds      20

psect	dataBANK1,class=BANK1,space=1
global __pdataBANK1
__pdataBANK1:
	file	"D:\Embedded\pic\code\software\LCD\lcd_name\lcd_name.c"
	line	27
main@F1696:
       ds      20

global btemp
psect inittext,class=CODE,delta=2
global init_fetch,btemp
;	Called with low address in FSR and high address in W
init_fetch:
	movf btemp,w
	movwf pclath
	movf btemp+1,w
	movwf pc
global init_ram
;Called with:
;	high address of idata address in btemp 
;	low address of idata address in btemp+1 
;	low address of data in FSR
;	high address + 1 of data in btemp-1
init_ram:
	fcall init_fetch
	movwf indf,f
	incf fsr,f
	movf fsr,w
	xorwf btemp-1,w
	btfsc status,2
	retlw 0
	incf btemp+1,f
	btfsc status,2
	incf btemp,f
	goto init_ram
; Initialize objects allocated to BANK1
psect cinit,class=CODE,delta=2
global init_ram, __pidataBANK1
	bcf	status, 7	;select IRP bank0
	movlw low(__pdataBANK1+20)
	movwf btemp-1,f
	movlw high(__pidataBANK1)
	movwf btemp,f
	movlw low(__pidataBANK1)
	movwf btemp+1,f
	movlw low(__pdataBANK1)
	movwf fsr,f
	fcall init_ram
; Initialize objects allocated to BANK0
psect cinit,class=CODE,delta=2
global init_ram, __pidataBANK0
	movlw low(__pdataBANK0+20)
	movwf btemp-1,f
	movlw high(__pidataBANK0)
	movwf btemp,f
	movlw low(__pidataBANK0)
	movwf btemp+1,f
	movlw low(__pdataBANK0)
	movwf fsr,f
	fcall init_ram
psect cinit,class=CODE,delta=2
global end_of_initialization

;End of C runtime variable initialization code

end_of_initialization:
clrf status
ljmp _main	;jump to C main() function
psect	cstackCOMMON,class=COMMON,space=1
global __pcstackCOMMON
__pcstackCOMMON:
	global	?_delay
?_delay:	; 0 bytes @ 0x0
	global	?_main
?_main:	; 0 bytes @ 0x0
	global	delay@a
delay@a:	; 2 bytes @ 0x0
	ds	2
	global	??_delay
??_delay:	; 0 bytes @ 0x2
	global	?_lcd_cmd
?_lcd_cmd:	; 0 bytes @ 0x2
	global	lcd_cmd@b
lcd_cmd@b:	; 1 bytes @ 0x2
	ds	1
	global	lcd_cmd@c
lcd_cmd@c:	; 1 bytes @ 0x3
	ds	1
	global	??_lcd_cmd
??_lcd_cmd:	; 0 bytes @ 0x4
	global	lcd_cmd@a
lcd_cmd@a:	; 1 bytes @ 0x4
	ds	1
	global	??_main
??_main:	; 0 bytes @ 0x5
	ds	4
psect	cstackBANK0,class=BANK0,space=1
global __pcstackBANK0
__pcstackBANK0:
	global	main@a
main@a:	; 20 bytes @ 0x0
	ds	20
	global	main@b
main@b:	; 20 bytes @ 0x14
	ds	20
	global	main@i
main@i:	; 2 bytes @ 0x28
	ds	2
	global	main@j
main@j:	; 2 bytes @ 0x2A
	ds	2
;;Data sizes: Strings 0, constant 0, data 40, bss 0, persistent 0 stack 0
;;Auto spaces:   Size  Autos    Used
;; COMMON          14      9       9
;; BANK0           80     44      64
;; BANK1           80      0      20
;; BANK3           96      0       0
;; BANK2           96      0       0

;;
;; Pointer list with targets:



;;
;; Critical Paths under _main in COMMON
;;
;;   _main->_lcd_cmd
;;   _lcd_cmd->_delay
;;
;; Critical Paths under _main in BANK0
;;
;;   None.
;;
;; Critical Paths under _main in BANK1
;;
;;   None.
;;
;; Critical Paths under _main in BANK3
;;
;;   None.
;;
;; Critical Paths under _main in BANK2
;;
;;   None.

;;
;;Main: autosize = 0, tempsize = 4, incstack = 0, save=0
;;

;;
;;Call Graph Tables:
;;
;; ---------------------------------------------------------------------------------
;; (Depth) Function   	        Calls       Base Space   Used Autos Params    Refs
;; ---------------------------------------------------------------------------------
;; (0) _main                                                48    48      0     274
;;                                              5 COMMON     4     4      0
;;                                              0 BANK0     44    44      0
;;                            _lcd_cmd
;; ---------------------------------------------------------------------------------
;; (1) _lcd_cmd                                              3     1      2      88
;;                                              2 COMMON     3     1      2
;;                              _delay
;; ---------------------------------------------------------------------------------
;; (2) _delay                                                2     0      2      22
;;                                              0 COMMON     2     0      2
;; ---------------------------------------------------------------------------------
;; Estimated maximum stack depth 2
;; ---------------------------------------------------------------------------------

;; Call Graph Graphs:

;; _main (ROOT)
;;   _lcd_cmd
;;     _delay
;;

;; Address spaces:

;;Name               Size   Autos  Total    Cost      Usage
;;BANK3               60      0       0       9        0.0%
;;BITBANK3            60      0       0       8        0.0%
;;SFR3                 0      0       0       4        0.0%
;;BITSFR3              0      0       0       4        0.0%
;;BANK2               60      0       0      11        0.0%
;;BITBANK2            60      0       0      10        0.0%
;;SFR2                 0      0       0       5        0.0%
;;BITSFR2              0      0       0       5        0.0%
;;SFR1                 0      0       0       2        0.0%
;;BITSFR1              0      0       0       2        0.0%
;;BANK1               50      0      14       7       25.0%
;;BITBANK1            50      0       0       6        0.0%
;;CODE                 0      0       0       0        0.0%
;;DATA                 0      0      5F      12        0.0%
;;ABS                  0      0      5D       3        0.0%
;;NULL                 0      0       0       0        0.0%
;;STACK                0      0       2       2        0.0%
;;BANK0               50     2C      40       5       80.0%
;;BITBANK0            50      0       0       4        0.0%
;;SFR0                 0      0       0       1        0.0%
;;BITSFR0              0      0       0       1        0.0%
;;COMMON               E      9       9       1       64.3%
;;BITCOMMON            E      0       0       0        0.0%
;;EEDATA             100      0       0       0        0.0%

	global	_main
psect	maintext,global,class=CODE,delta=2
global __pmaintext
__pmaintext:

;; *************** function _main *****************
;; Defined at:
;;		line 25 in file "D:\Embedded\pic\code\software\LCD\lcd_name\lcd_name.c"
;; Parameters:    Size  Location     Type
;;		None
;; Auto vars:     Size  Location     Type
;;  b              20   20[BANK0 ] unsigned char [20]
;;  a              20    0[BANK0 ] unsigned char [20]
;;  j               2   42[BANK0 ] int 
;;  i               2   40[BANK0 ] int 
;; Return value:  Size  Location     Type
;;		None               void
;; Registers used:
;;		wreg, fsr0l, fsr0h, status,2, status,0, pclath, cstack
;; Tracked objects:
;;		On entry : 17F/0
;;		On exit  : 0/0
;;		Unchanged: 0/0
;; Data sizes:     COMMON   BANK0   BANK1   BANK3   BANK2
;;      Params:         0       0       0       0       0
;;      Locals:         0      44       0       0       0
;;      Temps:          4       0       0       0       0
;;      Totals:         4      44       0       0       0
;;Total ram usage:       48 bytes
;; Hardware stack levels required when called:    2
;; This function calls:
;;		_lcd_cmd
;; This function is called by:
;;		Startup code after reset
;; This function uses a non-reentrant model
;;
psect	maintext
	file	"D:\Embedded\pic\code\software\LCD\lcd_name\lcd_name.c"
	line	25
	global	__size_of_main
	__size_of_main	equ	__end_of_main-_main
	
_main:	
	opt	stack 6
; Regs used in _main: [wreg-fsr0h+status,2+status,0+pclath+cstack]
	line	26
	
l2252:	
;lcd_name.c: 26: char a[20]="Yogeshkumar";
	movlw	(main@a)&0ffh
	movwf	fsr0
	movlw	low(main@F1694)
	movwf	(??_main+0)+0
	movf	fsr0,w
	movwf	((??_main+0)+0+1)
	movlw	20
	movwf	((??_main+0)+0+2)
u2280:
	movf	(??_main+0)+0,w
	movwf	fsr0
	bcf	status, 7	;select IRP bank0
	
	movf	indf,w
	movwf	((??_main+0)+0+3)
	incf	(??_main+0)+0,f
	movf	((??_main+0)+0+1),w
	movwf	fsr0
	
	movf	((??_main+0)+0+3),w
	movwf	indf
	incf	((??_main+0)+0+1),f
	decfsz	((??_main+0)+0+2),f
	goto	u2280
	line	27
;lcd_name.c: 27: char b[20]="EEE";
	movlw	(main@b)&0ffh
	movwf	fsr0
	movlw	low(main@F1696)
	movwf	(??_main+0)+0
	movf	fsr0,w
	movwf	((??_main+0)+0+1)
	movlw	20
	movwf	((??_main+0)+0+2)
u2290:
	movf	(??_main+0)+0,w
	movwf	fsr0
	bcf	status, 7	;select IRP bank1
	
	movf	indf,w
	movwf	((??_main+0)+0+3)
	incf	(??_main+0)+0,f
	movf	((??_main+0)+0+1),w
	movwf	fsr0
	
	movf	((??_main+0)+0+3),w
	movwf	indf
	incf	((??_main+0)+0+1),f
	decfsz	((??_main+0)+0+2),f
	goto	u2290
	line	28
	
l2254:	
;lcd_name.c: 28: int i=0,j=0;
	bcf	status, 5	;RP0=0, select bank0
	bcf	status, 6	;RP1=0, select bank0
	clrf	(main@i)
	clrf	(main@i+1)
	
l2256:	
	clrf	(main@j)
	clrf	(main@j+1)
	line	30
	
l2258:	
;lcd_name.c: 30: PORTD=0X00;
	clrf	(8)	;volatile
	line	31
	
l2260:	
;lcd_name.c: 31: TRISD=0X00;
	bsf	status, 5	;RP0=1, select bank1
	bcf	status, 6	;RP1=0, select bank1
	clrf	(136)^080h	;volatile
	line	32
	
l2262:	
;lcd_name.c: 32: PORTE=0X00;
	bcf	status, 5	;RP0=0, select bank0
	bcf	status, 6	;RP1=0, select bank0
	clrf	(9)	;volatile
	line	33
	
l2264:	
;lcd_name.c: 33: TRISE=0X00;
	bsf	status, 5	;RP0=1, select bank1
	bcf	status, 6	;RP1=0, select bank1
	clrf	(137)^080h	;volatile
	line	34
	
l2266:	
;lcd_name.c: 34: ANSEL=0X00;
	bsf	status, 5	;RP0=1, select bank3
	bsf	status, 6	;RP1=1, select bank3
	clrf	(392)^0180h	;volatile
	line	35
	
l2268:	
;lcd_name.c: 35: ANSELH=0X00;
	clrf	(393)^0180h	;volatile
	line	36
	
l2270:	
;lcd_name.c: 36: lcd_cmd(0,0,0X38);
	clrf	(?_lcd_cmd)
	movlw	(038h)
	movwf	(??_main+0)+0
	movf	(??_main+0)+0,w
	movwf	0+(?_lcd_cmd)+01h
	movlw	(0)
	fcall	_lcd_cmd
	line	37
	
l2272:	
;lcd_name.c: 37: lcd_cmd(0,0,0X0F);
	clrf	(?_lcd_cmd)
	movlw	(0Fh)
	movwf	(??_main+0)+0
	movf	(??_main+0)+0,w
	movwf	0+(?_lcd_cmd)+01h
	movlw	(0)
	fcall	_lcd_cmd
	goto	l2274
	line	38
;lcd_name.c: 38: while(1)
	
l1038:	
	line	40
	
l2274:	
;lcd_name.c: 39: {
;lcd_name.c: 40: lcd_cmd(0,0,0X80);
	clrf	(?_lcd_cmd)
	movlw	(080h)
	movwf	(??_main+0)+0
	movf	(??_main+0)+0,w
	movwf	0+(?_lcd_cmd)+01h
	movlw	(0)
	fcall	_lcd_cmd
	line	41
;lcd_name.c: 41: while(a[i]!='\0')
	goto	l2280
	
l1040:	
	line	43
	
l2276:	
;lcd_name.c: 42: {
;lcd_name.c: 43: lcd_cmd(1,0,a[i]);
	clrf	(?_lcd_cmd)
	bcf	status, 5	;RP0=0, select bank0
	bcf	status, 6	;RP1=0, select bank0
	movf	(main@i),w
	addlw	main@a&0ffh
	movwf	fsr0
	bcf	status, 7	;select IRP bank0
	movf	indf,w
	movwf	(??_main+0)+0
	movf	(??_main+0)+0,w
	movwf	0+(?_lcd_cmd)+01h
	movlw	(01h)
	fcall	_lcd_cmd
	line	44
	
l2278:	
;lcd_name.c: 44: i++;
	movlw	low(01h)
	bcf	status, 5	;RP0=0, select bank0
	bcf	status, 6	;RP1=0, select bank0
	addwf	(main@i),f
	skipnc
	incf	(main@i+1),f
	movlw	high(01h)
	addwf	(main@i+1),f
	goto	l2280
	line	45
	
l1039:	
	line	41
	
l2280:	
	bcf	status, 5	;RP0=0, select bank0
	bcf	status, 6	;RP1=0, select bank0
	movf	(main@i),w
	addlw	main@a&0ffh
	movwf	fsr0
	bcf	status, 7	;select IRP bank0
	movf	indf,f
	skipz
	goto	u2301
	goto	u2300
u2301:
	goto	l2276
u2300:
	goto	l2282
	
l1041:	
	line	46
	
l2282:	
;lcd_name.c: 45: }
;lcd_name.c: 46: lcd_cmd(0,0,0X18);
	clrf	(?_lcd_cmd)
	movlw	(018h)
	movwf	(??_main+0)+0
	movf	(??_main+0)+0,w
	movwf	0+(?_lcd_cmd)+01h
	movlw	(0)
	fcall	_lcd_cmd
	line	47
;lcd_name.c: 47: lcd_cmd(0,0,0XC0);
	clrf	(?_lcd_cmd)
	movlw	(0C0h)
	movwf	(??_main+0)+0
	movf	(??_main+0)+0,w
	movwf	0+(?_lcd_cmd)+01h
	movlw	(0)
	fcall	_lcd_cmd
	line	48
;lcd_name.c: 48: while(b[j]!='\0')
	goto	l2288
	
l1043:	
	line	50
	
l2284:	
;lcd_name.c: 49: {
;lcd_name.c: 50: lcd_cmd(1,0,b[j]);
	clrf	(?_lcd_cmd)
	bcf	status, 5	;RP0=0, select bank0
	bcf	status, 6	;RP1=0, select bank0
	movf	(main@j),w
	addlw	main@b&0ffh
	movwf	fsr0
	bcf	status, 7	;select IRP bank0
	movf	indf,w
	movwf	(??_main+0)+0
	movf	(??_main+0)+0,w
	movwf	0+(?_lcd_cmd)+01h
	movlw	(01h)
	fcall	_lcd_cmd
	line	51
	
l2286:	
;lcd_name.c: 51: j++;
	movlw	low(01h)
	bcf	status, 5	;RP0=0, select bank0
	bcf	status, 6	;RP1=0, select bank0
	addwf	(main@j),f
	skipnc
	incf	(main@j+1),f
	movlw	high(01h)
	addwf	(main@j+1),f
	goto	l2288
	line	52
	
l1042:	
	line	48
	
l2288:	
	bcf	status, 5	;RP0=0, select bank0
	bcf	status, 6	;RP1=0, select bank0
	movf	(main@j),w
	addlw	main@b&0ffh
	movwf	fsr0
	bcf	status, 7	;select IRP bank0
	movf	indf,f
	skipz
	goto	u2311
	goto	u2310
u2311:
	goto	l2284
u2310:
	goto	l2274
	
l1044:	
	goto	l2274
	line	54
	
l1045:	
	line	38
	goto	l2274
	
l1046:	
	line	55
	
l1047:	
	global	start
	ljmp	start
	opt stack 0
GLOBAL	__end_of_main
	__end_of_main:
;; =============== function _main ends ============

	signat	_main,88
	global	_lcd_cmd
psect	text97,local,class=CODE,delta=2
global __ptext97
__ptext97:

;; *************** function _lcd_cmd *****************
;; Defined at:
;;		line 15 in file "D:\Embedded\pic\code\software\LCD\lcd_name\lcd_name.c"
;; Parameters:    Size  Location     Type
;;  a               1    wreg     unsigned char 
;;  b               1    2[COMMON] unsigned char 
;;  c               1    3[COMMON] unsigned char 
;; Auto vars:     Size  Location     Type
;;  a               1    4[COMMON] unsigned char 
;; Return value:  Size  Location     Type
;;		None               void
;; Registers used:
;;		wreg, status,2, status,0, pclath, cstack
;; Tracked objects:
;;		On entry : 0/0
;;		On exit  : 0/0
;;		Unchanged: 0/0
;; Data sizes:     COMMON   BANK0   BANK1   BANK3   BANK2
;;      Params:         2       0       0       0       0
;;      Locals:         1       0       0       0       0
;;      Temps:          0       0       0       0       0
;;      Totals:         3       0       0       0       0
;;Total ram usage:        3 bytes
;; Hardware stack levels used:    1
;; Hardware stack levels required when called:    1
;; This function calls:
;;		_delay
;; This function is called by:
;;		_main
;; This function uses a non-reentrant model
;;
psect	text97
	file	"D:\Embedded\pic\code\software\LCD\lcd_name\lcd_name.c"
	line	15
	global	__size_of_lcd_cmd
	__size_of_lcd_cmd	equ	__end_of_lcd_cmd-_lcd_cmd
	
_lcd_cmd:	
	opt	stack 6
; Regs used in _lcd_cmd: [wreg+status,2+status,0+pclath+cstack]
;lcd_cmd@a stored from wreg
	movwf	(lcd_cmd@a)
	line	16
	
l2240:	
;lcd_name.c: 16: RE0=a;
	btfsc	(lcd_cmd@a),0
	goto	u2241
	goto	u2240
	
u2241:
	bcf	status, 5	;RP0=0, select bank0
	bcf	status, 6	;RP1=0, select bank0
	bsf	(72/8),(72)&7
	goto	u2254
u2240:
	bcf	status, 5	;RP0=0, select bank0
	bcf	status, 6	;RP1=0, select bank0
	bcf	(72/8),(72)&7
u2254:
	line	17
;lcd_name.c: 17: RE1=b;
	btfsc	(lcd_cmd@b),0
	goto	u2261
	goto	u2260
	
u2261:
	bcf	status, 5	;RP0=0, select bank0
	bcf	status, 6	;RP1=0, select bank0
	bsf	(73/8),(73)&7
	goto	u2274
u2260:
	bcf	status, 5	;RP0=0, select bank0
	bcf	status, 6	;RP1=0, select bank0
	bcf	(73/8),(73)&7
u2274:
	line	18
	
l2242:	
;lcd_name.c: 18: PORTD=c;
	movf	(lcd_cmd@c),w
	movwf	(8)	;volatile
	line	19
	
l2244:	
;lcd_name.c: 19: RE2=1;
	bsf	(74/8),(74)&7
	line	20
	
l2246:	
;lcd_name.c: 20: delay(2000);
	movlw	low(07D0h)
	movwf	(?_delay)
	movlw	high(07D0h)
	movwf	((?_delay))+1
	fcall	_delay
	line	21
	
l2248:	
;lcd_name.c: 21: RE2=0;
	bcf	status, 5	;RP0=0, select bank0
	bcf	status, 6	;RP1=0, select bank0
	bcf	(74/8),(74)&7
	line	22
	
l2250:	
;lcd_name.c: 22: delay(2000);
	movlw	low(07D0h)
	movwf	(?_delay)
	movlw	high(07D0h)
	movwf	((?_delay))+1
	fcall	_delay
	line	23
	
l1031:	
	return
	opt stack 0
GLOBAL	__end_of_lcd_cmd
	__end_of_lcd_cmd:
;; =============== function _lcd_cmd ends ============

	signat	_lcd_cmd,12408
	global	_delay
psect	text98,local,class=CODE,delta=2
global __ptext98
__ptext98:

;; *************** function _delay *****************
;; Defined at:
;;		line 11 in file "D:\Embedded\pic\code\software\LCD\lcd_name\lcd_name.c"
;; Parameters:    Size  Location     Type
;;  a               2    0[COMMON] unsigned int 
;; Auto vars:     Size  Location     Type
;;		None
;; Return value:  Size  Location     Type
;;		None               void
;; Registers used:
;;		wreg
;; Tracked objects:
;;		On entry : 0/0
;;		On exit  : 0/0
;;		Unchanged: 0/0
;; Data sizes:     COMMON   BANK0   BANK1   BANK3   BANK2
;;      Params:         2       0       0       0       0
;;      Locals:         0       0       0       0       0
;;      Temps:          0       0       0       0       0
;;      Totals:         2       0       0       0       0
;;Total ram usage:        2 bytes
;; Hardware stack levels used:    1
;; This function calls:
;;		Nothing
;; This function is called by:
;;		_lcd_cmd
;; This function uses a non-reentrant model
;;
psect	text98
	file	"D:\Embedded\pic\code\software\LCD\lcd_name\lcd_name.c"
	line	11
	global	__size_of_delay
	__size_of_delay	equ	__end_of_delay-_delay
	
_delay:	
	opt	stack 6
; Regs used in _delay: [wreg]
	line	12
	
l2236:	
;lcd_name.c: 12: while(a--);
	goto	l2238
	
l1026:	
	goto	l2238
	
l1025:	
	
l2238:	
	movlw	low(01h)
	subwf	(delay@a),f
	movlw	high(01h)
	skipc
	decf	(delay@a+1),f
	subwf	(delay@a+1),f
	movlw	high(0FFFFh)
	xorwf	((delay@a+1)),w
	skipz
	goto	u2235
	movlw	low(0FFFFh)
	xorwf	((delay@a)),w
u2235:

	skipz
	goto	u2231
	goto	u2230
u2231:
	goto	l2238
u2230:
	goto	l1028
	
l1027:	
	line	13
	
l1028:	
	return
	opt stack 0
GLOBAL	__end_of_delay
	__end_of_delay:
;; =============== function _delay ends ============

	signat	_delay,4216
psect	text99,local,class=CODE,delta=2
global __ptext99
__ptext99:
	global	btemp
	btemp set 07Eh

	DABS	1,126,2	;btemp
	global	wtemp0
	wtemp0 set btemp
	end
