opt subtitle "HI-TECH Software Omniscient Code Generator (Lite mode) build 7503"

opt pagewidth 120

	opt lm

	processor	16F887
clrc	macro
	bcf	3,0
	endm
clrz	macro
	bcf	3,2
	endm
setc	macro
	bsf	3,0
	endm
setz	macro
	bsf	3,2
	endm
skipc	macro
	btfss	3,0
	endm
skipz	macro
	btfss	3,2
	endm
skipnc	macro
	btfsc	3,0
	endm
skipnz	macro
	btfsc	3,2
	endm
indf	equ	0
indf0	equ	0
pc	equ	2
pcl	equ	2
status	equ	3
fsr	equ	4
fsr0	equ	4
c	equ	1
z	equ	0
pclath	equ	10
	FNCALL	_main,_master
	FNROOT	_main
	global	_PORTA
psect	text60,local,class=CODE,delta=2
global __ptext60
__ptext60:
_PORTA	set	5
	global	_PORTC
_PORTC	set	7
	global	_SSPBUF
_SSPBUF	set	19
	global	_SSPCON
_SSPCON	set	20
	global	_SSPIF
_SSPIF	set	99
	global	_SSPSTAT
_SSPSTAT	set	148
	global	_TRISA
_TRISA	set	133
	global	_TRISC
_TRISC	set	135
	global	_ANSEL
_ANSEL	set	392
	global	_ANSELH
_ANSELH	set	393
	file	"master.as"
	line	#
psect cinit,class=CODE,delta=2
global start_initialization
start_initialization:

psect cinit,class=CODE,delta=2
global end_of_initialization

;End of C runtime variable initialization code

end_of_initialization:
clrf status
ljmp _main	;jump to C main() function
psect	cstackCOMMON,class=COMMON,space=1
global __pcstackCOMMON
__pcstackCOMMON:
	global	?_master
?_master:	; 0 bytes @ 0x0
	global	??_master
??_master:	; 0 bytes @ 0x0
	global	?_main
?_main:	; 0 bytes @ 0x0
	global	master@data
master@data:	; 1 bytes @ 0x0
	ds	1
	global	??_main
??_main:	; 0 bytes @ 0x1
;;Data sizes: Strings 0, constant 0, data 0, bss 0, persistent 0 stack 0
;;Auto spaces:   Size  Autos    Used
;; COMMON          14      1       1
;; BANK0           80      0       0
;; BANK1           80      0       0
;; BANK3           96      0       0
;; BANK2           96      0       0

;;
;; Pointer list with targets:



;;
;; Critical Paths under _main in COMMON
;;
;;   _main->_master
;;
;; Critical Paths under _main in BANK0
;;
;;   None.
;;
;; Critical Paths under _main in BANK1
;;
;;   None.
;;
;; Critical Paths under _main in BANK3
;;
;;   None.
;;
;; Critical Paths under _main in BANK2
;;
;;   None.

;;
;;Main: autosize = 0, tempsize = 0, incstack = 0, save=0
;;

;;
;;Call Graph Tables:
;;
;; ---------------------------------------------------------------------------------
;; (Depth) Function   	        Calls       Base Space   Used Autos Params    Refs
;; ---------------------------------------------------------------------------------
;; (0) _main                                                 0     0      0      15
;;                             _master
;; ---------------------------------------------------------------------------------
;; (1) _master                                               1     1      0      15
;;                                              0 COMMON     1     1      0
;; ---------------------------------------------------------------------------------
;; Estimated maximum stack depth 1
;; ---------------------------------------------------------------------------------

;; Call Graph Graphs:

;; _main (ROOT)
;;   _master
;;

;; Address spaces:

;;Name               Size   Autos  Total    Cost      Usage
;;BITCOMMON            E      0       0       0        0.0%
;;EEDATA             100      0       0       0        0.0%
;;NULL                 0      0       0       0        0.0%
;;CODE                 0      0       0       0        0.0%
;;COMMON               E      1       1       1        7.1%
;;BITSFR0              0      0       0       1        0.0%
;;SFR0                 0      0       0       1        0.0%
;;BITSFR1              0      0       0       2        0.0%
;;SFR1                 0      0       0       2        0.0%
;;STACK                0      0       1       2        0.0%
;;ABS                  0      0       0       3        0.0%
;;BITBANK0            50      0       0       4        0.0%
;;BITSFR3              0      0       0       4        0.0%
;;SFR3                 0      0       0       4        0.0%
;;BANK0               50      0       0       5        0.0%
;;BITSFR2              0      0       0       5        0.0%
;;SFR2                 0      0       0       5        0.0%
;;BITBANK1            50      0       0       6        0.0%
;;BANK1               50      0       0       7        0.0%
;;BITBANK3            60      0       0       8        0.0%
;;BANK3               60      0       0       9        0.0%
;;BITBANK2            60      0       0      10        0.0%
;;BANK2               60      0       0      11        0.0%
;;DATA                 0      0       0      12        0.0%

	global	_main
psect	maintext,global,class=CODE,delta=2
global __pmaintext
__pmaintext:

;; *************** function _main *****************
;; Defined at:
;;		line 12 in file "D:\Embedded\pic\code\software\protocal\SPI\Basic-1_mas-1_slave\Master\master.c"
;; Parameters:    Size  Location     Type
;;		None
;; Auto vars:     Size  Location     Type
;;		None
;; Return value:  Size  Location     Type
;;		None               void
;; Registers used:
;;		wreg, status,2, status,0, pclath, cstack
;; Tracked objects:
;;		On entry : 17F/0
;;		On exit  : 0/0
;;		Unchanged: 0/0
;; Data sizes:     COMMON   BANK0   BANK1   BANK3   BANK2
;;      Params:         0       0       0       0       0
;;      Locals:         0       0       0       0       0
;;      Temps:          0       0       0       0       0
;;      Totals:         0       0       0       0       0
;;Total ram usage:        0 bytes
;; Hardware stack levels required when called:    1
;; This function calls:
;;		_master
;; This function is called by:
;;		Startup code after reset
;; This function uses a non-reentrant model
;;
psect	maintext
	file	"D:\Embedded\pic\code\software\protocal\SPI\Basic-1_mas-1_slave\Master\master.c"
	line	12
	global	__size_of_main
	__size_of_main	equ	__end_of_main-_main
	
_main:	
	opt	stack 7
; Regs used in _main: [wreg+status,2+status,0+pclath+cstack]
	line	13
	
l2171:	
;master.c: 13: PORTA=0X00;
	bcf	status, 5	;RP0=0, select bank0
	bcf	status, 6	;RP1=0, select bank0
	clrf	(5)	;volatile
	line	14
;master.c: 14: TRISA=0X00;
	bsf	status, 5	;RP0=1, select bank1
	bcf	status, 6	;RP1=0, select bank1
	clrf	(133)^080h	;volatile
	line	15
;master.c: 15: ANSEL=0X00;
	bsf	status, 5	;RP0=1, select bank3
	bsf	status, 6	;RP1=1, select bank3
	clrf	(392)^0180h	;volatile
	line	16
;master.c: 16: ANSELH=0X00;
	clrf	(393)^0180h	;volatile
	line	17
;master.c: 17: PORTC=0X00;
	bcf	status, 5	;RP0=0, select bank0
	bcf	status, 6	;RP1=0, select bank0
	clrf	(7)	;volatile
	line	18
	
l2173:	
;master.c: 18: TRISC=0X10;
	movlw	(010h)
	bsf	status, 5	;RP0=1, select bank1
	bcf	status, 6	;RP1=0, select bank1
	movwf	(135)^080h	;volatile
	line	19
	
l2175:	
;master.c: 19: SSPCON=0X30;
	movlw	(030h)
	bcf	status, 5	;RP0=0, select bank0
	bcf	status, 6	;RP1=0, select bank0
	movwf	(20)	;volatile
	line	20
	
l2177:	
;master.c: 20: SSPSTAT=0X80;
	movlw	(080h)
	bsf	status, 5	;RP0=1, select bank1
	bcf	status, 6	;RP1=0, select bank1
	movwf	(148)^080h	;volatile
	goto	l2179
	line	21
;master.c: 21: while(1)
	
l1031:	
	line	23
	
l2179:	
;master.c: 22: {
;master.c: 23: master('V');
	movlw	(056h)
	fcall	_master
	goto	l2179
	line	24
	
l1032:	
	line	21
	goto	l2179
	
l1033:	
	line	25
	
l1034:	
	global	start
	ljmp	start
	opt stack 0
GLOBAL	__end_of_main
	__end_of_main:
;; =============== function _main ends ============

	signat	_main,88
	global	_master
psect	text61,local,class=CODE,delta=2
global __ptext61
__ptext61:

;; *************** function _master *****************
;; Defined at:
;;		line 6 in file "D:\Embedded\pic\code\software\protocal\SPI\Basic-1_mas-1_slave\Master\master.c"
;; Parameters:    Size  Location     Type
;;  data            1    wreg     unsigned char 
;; Auto vars:     Size  Location     Type
;;  data            1    0[COMMON] unsigned char 
;; Return value:  Size  Location     Type
;;		None               void
;; Registers used:
;;		wreg
;; Tracked objects:
;;		On entry : 0/0
;;		On exit  : 0/0
;;		Unchanged: 0/0
;; Data sizes:     COMMON   BANK0   BANK1   BANK3   BANK2
;;      Params:         0       0       0       0       0
;;      Locals:         1       0       0       0       0
;;      Temps:          0       0       0       0       0
;;      Totals:         1       0       0       0       0
;;Total ram usage:        1 bytes
;; Hardware stack levels used:    1
;; This function calls:
;;		Nothing
;; This function is called by:
;;		_main
;; This function uses a non-reentrant model
;;
psect	text61
	file	"D:\Embedded\pic\code\software\protocal\SPI\Basic-1_mas-1_slave\Master\master.c"
	line	6
	global	__size_of_master
	__size_of_master	equ	__end_of_master-_master
	
_master:	
	opt	stack 7
; Regs used in _master: [wreg]
;master@data stored from wreg
	movwf	(master@data)
	line	7
	
l1403:	
;master.c: 7: SSPBUF=data;
	movf	(master@data),w
	bcf	status, 5	;RP0=0, select bank0
	bcf	status, 6	;RP1=0, select bank0
	movwf	(19)	;volatile
	line	8
;master.c: 8: while(SSPIF==0);
	goto	l1025
	
l1026:	
	
l1025:	
	btfss	(99/8),(99)&7
	goto	u11
	goto	u10
u11:
	goto	l1025
u10:
	
l1027:	
	line	9
;master.c: 9: SSPIF=0;
	bcf	(99/8),(99)&7
	line	10
	
l1028:	
	return
	opt stack 0
GLOBAL	__end_of_master
	__end_of_master:
;; =============== function _master ends ============

	signat	_master,4216
psect	text62,local,class=CODE,delta=2
global __ptext62
__ptext62:
	global	btemp
	btemp set 07Eh

	DABS	1,126,2	;btemp
	global	wtemp0
	wtemp0 set btemp
	end
