opt subtitle "HI-TECH Software Omniscient Code Generator (Lite mode) build 7503"

opt pagewidth 120

	opt lm

	processor	16F887
clrc	macro
	bcf	3,0
	endm
clrz	macro
	bcf	3,2
	endm
setc	macro
	bsf	3,0
	endm
setz	macro
	bsf	3,2
	endm
skipc	macro
	btfss	3,0
	endm
skipz	macro
	btfss	3,2
	endm
skipnc	macro
	btfsc	3,0
	endm
skipnz	macro
	btfsc	3,2
	endm
indf	equ	0
indf0	equ	0
pc	equ	2
pcl	equ	2
status	equ	3
fsr	equ	4
fsr0	equ	4
c	equ	1
z	equ	0
pclath	equ	10
	FNROOT	_main
	global	main@F1601
psect	idataBANK0,class=CODE,space=0,delta=2
global __pidataBANK0
__pidataBANK0:
	file	"D:\Embedded\pic\code\software\segment\count\count.c"
	line	7

;initializer for main@F1601
	retlw	03Fh
	retlw	06h
	retlw	05Bh
	retlw	04Fh
	retlw	066h
	retlw	06Dh
	retlw	07Dh
	retlw	07h
	retlw	07Fh
	retlw	06Fh
	retlw	0
	retlw	0
	retlw	0
	retlw	0
	retlw	0
	retlw	0
	retlw	0
	retlw	0
	retlw	0
	retlw	0
	global	_PORTA
_PORTA	set	5
	global	_PORTC
_PORTC	set	7
	global	_RA0
_RA0	set	40
	global	_RA1
_RA1	set	41
	global	_TRISA
_TRISA	set	133
	global	_TRISC
_TRISC	set	135
	global	_ANSEL
_ANSEL	set	392
	global	_ANSELH
_ANSELH	set	393
	file	"count.as"
	line	#
psect cinit,class=CODE,delta=2
global start_initialization
start_initialization:

psect	dataBANK0,class=BANK0,space=1
global __pdataBANK0
__pdataBANK0:
	file	"D:\Embedded\pic\code\software\segment\count\count.c"
main@F1601:
       ds      20

global btemp
psect inittext,class=CODE,delta=2
global init_fetch,btemp
;	Called with low address in FSR and high address in W
init_fetch:
	movf btemp,w
	movwf pclath
	movf btemp+1,w
	movwf pc
global init_ram
;Called with:
;	high address of idata address in btemp 
;	low address of idata address in btemp+1 
;	low address of data in FSR
;	high address + 1 of data in btemp-1
init_ram:
	fcall init_fetch
	movwf indf,f
	incf fsr,f
	movf fsr,w
	xorwf btemp-1,w
	btfsc status,2
	retlw 0
	incf btemp+1,f
	btfsc status,2
	incf btemp,f
	goto init_ram
; Initialize objects allocated to BANK0
psect cinit,class=CODE,delta=2
global init_ram, __pidataBANK0
	bcf	status, 7	;select IRP bank0
	movlw low(__pdataBANK0+20)
	movwf btemp-1,f
	movlw high(__pidataBANK0)
	movwf btemp,f
	movlw low(__pidataBANK0)
	movwf btemp+1,f
	movlw low(__pdataBANK0)
	movwf fsr,f
	fcall init_ram
psect cinit,class=CODE,delta=2
global end_of_initialization

;End of C runtime variable initialization code

end_of_initialization:
clrf status
ljmp _main	;jump to C main() function
psect	cstackCOMMON,class=COMMON,space=1
global __pcstackCOMMON
__pcstackCOMMON:
	global	?_main
?_main:	; 0 bytes @ 0x0
	global	??_main
??_main:	; 0 bytes @ 0x0
	ds	4
psect	cstackBANK0,class=BANK0,space=1
global __pcstackBANK0
__pcstackBANK0:
	global	main@seg
main@seg:	; 20 bytes @ 0x0
	ds	20
	global	main@i
main@i:	; 2 bytes @ 0x14
	ds	2
;;Data sizes: Strings 0, constant 0, data 20, bss 0, persistent 0 stack 0
;;Auto spaces:   Size  Autos    Used
;; COMMON          14      4       4
;; BANK0           80     22      42
;; BANK1           80      0       0
;; BANK3           96      0       0
;; BANK2           96      0       0

;;
;; Pointer list with targets:



;;
;; Critical Paths under _main in COMMON
;;
;;   None.
;;
;; Critical Paths under _main in BANK0
;;
;;   None.
;;
;; Critical Paths under _main in BANK1
;;
;;   None.
;;
;; Critical Paths under _main in BANK3
;;
;;   None.
;;
;; Critical Paths under _main in BANK2
;;
;;   None.

;;
;;Main: autosize = 0, tempsize = 4, incstack = 0, save=0
;;

;;
;;Call Graph Tables:
;;
;; ---------------------------------------------------------------------------------
;; (Depth) Function   	        Calls       Base Space   Used Autos Params    Refs
;; ---------------------------------------------------------------------------------
;; (0) _main                                                26    26      0     116
;;                                              0 COMMON     4     4      0
;;                                              0 BANK0     22    22      0
;; ---------------------------------------------------------------------------------
;; Estimated maximum stack depth 0
;; ---------------------------------------------------------------------------------

;; Call Graph Graphs:

;; _main (ROOT)
;;

;; Address spaces:

;;Name               Size   Autos  Total    Cost      Usage
;;BANK3               60      0       0       9        0.0%
;;BITBANK3            60      0       0       8        0.0%
;;SFR3                 0      0       0       4        0.0%
;;BITSFR3              0      0       0       4        0.0%
;;BANK2               60      0       0      11        0.0%
;;BITBANK2            60      0       0      10        0.0%
;;SFR2                 0      0       0       5        0.0%
;;BITSFR2              0      0       0       5        0.0%
;;SFR1                 0      0       0       2        0.0%
;;BITSFR1              0      0       0       2        0.0%
;;BANK1               50      0       0       7        0.0%
;;BITBANK1            50      0       0       6        0.0%
;;CODE                 0      0       0       0        0.0%
;;DATA                 0      0      2E      12        0.0%
;;ABS                  0      0      2E       3        0.0%
;;NULL                 0      0       0       0        0.0%
;;STACK                0      0       0       2        0.0%
;;BANK0               50     16      2A       5       52.5%
;;BITBANK0            50      0       0       4        0.0%
;;SFR0                 0      0       0       1        0.0%
;;BITSFR0              0      0       0       1        0.0%
;;COMMON               E      4       4       1       28.6%
;;BITCOMMON            E      0       0       0        0.0%
;;EEDATA             100      0       0       0        0.0%

	global	_main
psect	maintext,global,class=CODE,delta=2
global __pmaintext
__pmaintext:

;; *************** function _main *****************
;; Defined at:
;;		line 5 in file "D:\Embedded\pic\code\software\segment\count\count.c"
;; Parameters:    Size  Location     Type
;;		None
;; Auto vars:     Size  Location     Type
;;  seg            20    0[BANK0 ] unsigned char [20]
;;  i               2   20[BANK0 ] int 
;; Return value:  Size  Location     Type
;;		None               void
;; Registers used:
;;		wreg, fsr0l, fsr0h, status,2, status,0, btemp+1
;; Tracked objects:
;;		On entry : 17F/0
;;		On exit  : 0/0
;;		Unchanged: 0/0
;; Data sizes:     COMMON   BANK0   BANK1   BANK3   BANK2
;;      Params:         0       0       0       0       0
;;      Locals:         0      22       0       0       0
;;      Temps:          4       0       0       0       0
;;      Totals:         4      22       0       0       0
;;Total ram usage:       26 bytes
;; This function calls:
;;		Nothing
;; This function is called by:
;;		Startup code after reset
;; This function uses a non-reentrant model
;;
psect	maintext
	file	"D:\Embedded\pic\code\software\segment\count\count.c"
	line	5
	global	__size_of_main
	__size_of_main	equ	__end_of_main-_main
	
_main:	
	opt	stack 8
; Regs used in _main: [wreg-fsr0h+status,2+status,0+btemp+1]
	line	7
	
l2202:	
;count.c: 6: int i;
;count.c: 7: char seg[20]={0X3F,0X06,0X5B,0X4F,0X66,0X6D,0X7D,0X07,0X7F,0X6F};
	movlw	(main@seg)&0ffh
	movwf	fsr0
	movlw	low(main@F1601)
	movwf	(??_main+0)+0
	movf	fsr0,w
	movwf	((??_main+0)+0+1)
	movlw	20
	movwf	((??_main+0)+0+2)
u2200:
	movf	(??_main+0)+0,w
	movwf	fsr0
	bcf	status, 7	;select IRP bank0
	
	movf	indf,w
	movwf	((??_main+0)+0+3)
	incf	(??_main+0)+0,f
	movf	((??_main+0)+0+1),w
	movwf	fsr0
	
	movf	((??_main+0)+0+3),w
	movwf	indf
	incf	((??_main+0)+0+1),f
	decfsz	((??_main+0)+0+2),f
	goto	u2200
	line	8
	
l2204:	
;count.c: 8: PORTA=0X00;
	bcf	status, 5	;RP0=0, select bank0
	bcf	status, 6	;RP1=0, select bank0
	clrf	(5)	;volatile
	line	9
	
l2206:	
;count.c: 9: TRISA=0X03;
	movlw	(03h)
	bsf	status, 5	;RP0=1, select bank1
	bcf	status, 6	;RP1=0, select bank1
	movwf	(133)^080h	;volatile
	line	10
	
l2208:	
;count.c: 10: PORTC=0X00;
	bcf	status, 5	;RP0=0, select bank0
	bcf	status, 6	;RP1=0, select bank0
	clrf	(7)	;volatile
	line	11
	
l2210:	
;count.c: 11: TRISC=0X00;
	bsf	status, 5	;RP0=1, select bank1
	bcf	status, 6	;RP1=0, select bank1
	clrf	(135)^080h	;volatile
	line	12
	
l2212:	
;count.c: 12: ANSEL=0X00;
	bsf	status, 5	;RP0=1, select bank3
	bsf	status, 6	;RP1=1, select bank3
	clrf	(392)^0180h	;volatile
	line	13
	
l2214:	
;count.c: 13: ANSELH=0X00;
	clrf	(393)^0180h	;volatile
	line	14
	
l2216:	
;count.c: 14: i=0;
	bcf	status, 5	;RP0=0, select bank0
	bcf	status, 6	;RP1=0, select bank0
	clrf	(main@i)
	clrf	(main@i+1)
	goto	l2226
	line	15
;count.c: 15: while(1)
	
l1027:	
	line	17
;count.c: 16: {
;count.c: 17: while(i<10)
	goto	l2226
	
l1029:	
	line	19
;count.c: 18: {
;count.c: 19: if(RA0==1)
	bcf	status, 5	;RP0=0, select bank0
	bcf	status, 6	;RP1=0, select bank0
	btfss	(40/8),(40)&7
	goto	u2211
	goto	u2210
u2211:
	goto	l1030
u2210:
	line	21
	
l2218:	
;count.c: 20: {
;count.c: 21: i++;
	movlw	low(01h)
	addwf	(main@i),f
	skipnc
	incf	(main@i+1),f
	movlw	high(01h)
	addwf	(main@i+1),f
	line	22
	
l2220:	
;count.c: 22: PORTC=seg[i];
	movf	(main@i),w
	addlw	main@seg&0ffh
	movwf	fsr0
	bcf	status, 7	;select IRP bank0
	movf	indf,w
	movwf	(7)	;volatile
	line	23
;count.c: 23: while(RA0==1);
	goto	l1031
	
l1032:	
	
l1031:	
	btfsc	(40/8),(40)&7
	goto	u2221
	goto	u2220
u2221:
	goto	l1031
u2220:
	goto	l1030
	
l1033:	
	line	24
	
l1030:	
	line	25
;count.c: 24: }
;count.c: 25: if(RA1==1)
	btfss	(41/8),(41)&7
	goto	u2231
	goto	u2230
u2231:
	goto	l2226
u2230:
	line	27
	
l2222:	
;count.c: 26: {
;count.c: 27: i--;
	movlw	low(-1)
	addwf	(main@i),f
	skipnc
	incf	(main@i+1),f
	movlw	high(-1)
	addwf	(main@i+1),f
	line	28
	
l2224:	
;count.c: 28: PORTC=seg[i];
	movf	(main@i),w
	addlw	main@seg&0ffh
	movwf	fsr0
	bcf	status, 7	;select IRP bank0
	movf	indf,w
	movwf	(7)	;volatile
	line	29
;count.c: 29: while(RA1==1);
	goto	l1035
	
l1036:	
	
l1035:	
	btfsc	(41/8),(41)&7
	goto	u2241
	goto	u2240
u2241:
	goto	l1035
u2240:
	goto	l2226
	
l1037:	
	goto	l2226
	line	30
	
l1034:	
	goto	l2226
	line	31
	
l1028:	
	line	17
	
l2226:	
	bcf	status, 5	;RP0=0, select bank0
	bcf	status, 6	;RP1=0, select bank0
	movf	(main@i+1),w
	xorlw	80h
	movwf	btemp+1
	movlw	(high(0Ah))^80h
	subwf	btemp+1,w
	skipz
	goto	u2255
	movlw	low(0Ah)
	subwf	(main@i),w
u2255:

	skipc
	goto	u2251
	goto	u2250
u2251:
	goto	l1029
u2250:
	goto	l2226
	
l1038:	
	goto	l2226
	line	32
	
l1039:	
	line	15
	goto	l2226
	
l1040:	
	line	33
	
l1041:	
	global	start
	ljmp	start
	opt stack 0
GLOBAL	__end_of_main
	__end_of_main:
;; =============== function _main ends ============

	signat	_main,88
psect	maintext
	global	btemp
	btemp set 07Eh

	DABS	1,126,2	;btemp
	global	wtemp0
	wtemp0 set btemp
	end
